
pico_rom.elf:     file format elf32-littlearm

Sections:
Idx Name          Size      VMA       LMA       File off  Algn
  0 .boot2        00000100  10000000  10000000  00010000  2**0
                  CONTENTS, ALLOC, LOAD, READONLY, CODE
  1 .text         00005ad0  10000100  10000100  00010100  2**3
                  CONTENTS, ALLOC, LOAD, READONLY, CODE
  2 .rodata       000000f8  10005bd0  10005bd0  00015bd0  2**2
                  CONTENTS, ALLOC, LOAD, READONLY, DATA
  3 .binary_info  00000020  10005cc8  10005cc8  00015cc8  2**2
                  CONTENTS, ALLOC, LOAD, DATA
  4 .ram_vector_table 000000c0  20000000  20000000  0002023c  2**2
                  CONTENTS
  5 .data         0000017c  200000c0  10005ce8  000200c0  2**4
                  CONTENTS, ALLOC, LOAD, CODE
  6 .uninitialized_data 00000000  2000023c  2000023c  000202fc  2**0
                  CONTENTS
  7 .scratch_x    00000000  20040000  20040000  000202fc  2**0
                  CONTENTS
  8 .scratch_y    00000000  20041000  20041000  000202fc  2**0
                  CONTENTS
  9 .bss          000083c8  20000240  20000240  00020240  2**3
                  ALLOC
 10 .heap         00000800  20008608  20008608  000202fc  2**2
                  CONTENTS, READONLY
 11 .stack_dummy  00000800  20041000  20041000  00020b00  2**5
                  CONTENTS, READONLY
 12 .ARM.attributes 00000028  00000000  00000000  00021300  2**0
                  CONTENTS, READONLY
 13 .comment      00000079  00000000  00000000  00021328  2**0
                  CONTENTS, READONLY
 14 .debug_frame  00000028  00000000  00000000  000213a4  2**2
                  CONTENTS, READONLY, DEBUGGING

pico_rom.elf:     file format elf32-littlearm


Disassembly of section .boot2:

10000000 <__boot2_start__>:
10000000:	4b32b500 	.word	0x4b32b500
10000004:	60582021 	.word	0x60582021
10000008:	21026898 	.word	0x21026898
1000000c:	60984388 	.word	0x60984388
10000010:	611860d8 	.word	0x611860d8
10000014:	4b2e6158 	.word	0x4b2e6158
10000018:	60992100 	.word	0x60992100
1000001c:	61592104 	.word	0x61592104
10000020:	22f02101 	.word	0x22f02101
10000024:	492b5099 	.word	0x492b5099
10000028:	21016019 	.word	0x21016019
1000002c:	20356099 	.word	0x20356099
10000030:	f844f000 	.word	0xf844f000
10000034:	42902202 	.word	0x42902202
10000038:	2106d014 	.word	0x2106d014
1000003c:	f0006619 	.word	0xf0006619
10000040:	6e19f834 	.word	0x6e19f834
10000044:	66192101 	.word	0x66192101
10000048:	66182000 	.word	0x66182000
1000004c:	f000661a 	.word	0xf000661a
10000050:	6e19f82c 	.word	0x6e19f82c
10000054:	6e196e19 	.word	0x6e196e19
10000058:	f0002005 	.word	0xf0002005
1000005c:	2101f82f 	.word	0x2101f82f
10000060:	d1f94208 	.word	0xd1f94208
10000064:	60992100 	.word	0x60992100
10000068:	6019491b 	.word	0x6019491b
1000006c:	60592100 	.word	0x60592100
10000070:	481b491a 	.word	0x481b491a
10000074:	21016001 	.word	0x21016001
10000078:	21eb6099 	.word	0x21eb6099
1000007c:	21a06619 	.word	0x21a06619
10000080:	f0006619 	.word	0xf0006619
10000084:	2100f812 	.word	0x2100f812
10000088:	49166099 	.word	0x49166099
1000008c:	60014814 	.word	0x60014814
10000090:	60992101 	.word	0x60992101
10000094:	2800bc01 	.word	0x2800bc01
10000098:	4700d000 	.word	0x4700d000
1000009c:	49134812 	.word	0x49134812
100000a0:	c8036008 	.word	0xc8036008
100000a4:	8808f380 	.word	0x8808f380
100000a8:	b5034708 	.word	0xb5034708
100000ac:	20046a99 	.word	0x20046a99
100000b0:	d0fb4201 	.word	0xd0fb4201
100000b4:	42012001 	.word	0x42012001
100000b8:	bd03d1f8 	.word	0xbd03d1f8
100000bc:	6618b502 	.word	0x6618b502
100000c0:	f7ff6618 	.word	0xf7ff6618
100000c4:	6e18fff2 	.word	0x6e18fff2
100000c8:	bd026e18 	.word	0xbd026e18
100000cc:	40020000 	.word	0x40020000
100000d0:	18000000 	.word	0x18000000
100000d4:	00070000 	.word	0x00070000
100000d8:	005f0300 	.word	0x005f0300
100000dc:	00002221 	.word	0x00002221
100000e0:	180000f4 	.word	0x180000f4
100000e4:	a0002022 	.word	0xa0002022
100000e8:	10000100 	.word	0x10000100
100000ec:	e000ed08 	.word	0xe000ed08
	...
100000fc:	d58f0b07 	.word	0xd58f0b07

Disassembly of section .text:

10000100 <__logical_binary_start>:
10000100:	20042000 	.word	0x20042000
10000104:	100001f7 	.word	0x100001f7
10000108:	100001c3 	.word	0x100001c3
1000010c:	100001c5 	.word	0x100001c5
10000110:	100001c1 	.word	0x100001c1
10000114:	100001c1 	.word	0x100001c1
10000118:	100001c1 	.word	0x100001c1
1000011c:	100001c1 	.word	0x100001c1
10000120:	100001c1 	.word	0x100001c1
10000124:	100001c1 	.word	0x100001c1
10000128:	100001c1 	.word	0x100001c1
1000012c:	100001c7 	.word	0x100001c7
10000130:	100001c1 	.word	0x100001c1
10000134:	100001c1 	.word	0x100001c1
10000138:	100001c9 	.word	0x100001c9
1000013c:	100001cb 	.word	0x100001cb
10000140:	100001cd 	.word	0x100001cd
10000144:	100001cd 	.word	0x100001cd
10000148:	100001cd 	.word	0x100001cd
1000014c:	100001cd 	.word	0x100001cd
10000150:	100001cd 	.word	0x100001cd
10000154:	100001cd 	.word	0x100001cd
10000158:	100001cd 	.word	0x100001cd
1000015c:	100001cd 	.word	0x100001cd
10000160:	100001cd 	.word	0x100001cd
10000164:	100001cd 	.word	0x100001cd
10000168:	100001cd 	.word	0x100001cd
1000016c:	100001cd 	.word	0x100001cd
10000170:	100001cd 	.word	0x100001cd
10000174:	100001cd 	.word	0x100001cd
10000178:	100001cd 	.word	0x100001cd
1000017c:	100001cd 	.word	0x100001cd
10000180:	100001cd 	.word	0x100001cd
10000184:	100001cd 	.word	0x100001cd
10000188:	100001cd 	.word	0x100001cd
1000018c:	100001cd 	.word	0x100001cd
10000190:	100001cd 	.word	0x100001cd
10000194:	100001cd 	.word	0x100001cd
10000198:	100001cd 	.word	0x100001cd
1000019c:	100001cd 	.word	0x100001cd
100001a0:	100001cd 	.word	0x100001cd
100001a4:	100001cd 	.word	0x100001cd
100001a8:	100001cd 	.word	0x100001cd
100001ac:	100001cd 	.word	0x100001cd
100001b0:	100001cd 	.word	0x100001cd
100001b4:	100001cd 	.word	0x100001cd
100001b8:	100001cd 	.word	0x100001cd
100001bc:	100001cd 	.word	0x100001cd

100001c0 <isr_invalid>:
100001c0:	be00      	bkpt	0x0000

100001c2 <isr_nmi>:
100001c2:	be00      	bkpt	0x0000

100001c4 <isr_hardfault>:
100001c4:	be00      	bkpt	0x0000

100001c6 <isr_svcall>:
100001c6:	be00      	bkpt	0x0000

100001c8 <isr_pendsv>:
100001c8:	be00      	bkpt	0x0000

100001ca <isr_systick>:
100001ca:	be00      	bkpt	0x0000

100001cc <__unhandled_user_irq>:
100001cc:	f000 f84b 	bl	10000266 <__get_current_exception>
100001d0:	3810      	subs	r0, #16

100001d2 <unhandled_user_irq_num_in_r0>:
100001d2:	be00      	bkpt	0x0000

100001d4 <binary_info_header>:
100001d4:	7188ebf2 	.word	0x7188ebf2
100001d8:	10005cc8 	.word	0x10005cc8
100001dc:	10005ce8 	.word	0x10005ce8
100001e0:	10000234 	.word	0x10000234
100001e4:	e71aa390 	.word	0xe71aa390

100001e8 <_entry_point>:
100001e8:	2000      	movs	r0, #0
100001ea:	4921      	ldr	r1, [pc, #132]	; (10000270 <__get_current_exception+0xa>)
100001ec:	6008      	str	r0, [r1, #0]
100001ee:	c806      	ldmia	r0!, {r1, r2}
100001f0:	f381 8808 	msr	MSP, r1
100001f4:	4710      	bx	r2

100001f6 <_reset_handler>:
100001f6:	481f      	ldr	r0, [pc, #124]	; (10000274 <__get_current_exception+0xe>)
100001f8:	6800      	ldr	r0, [r0, #0]
100001fa:	2800      	cmp	r0, #0
100001fc:	d12f      	bne.n	1000025e <hold_non_core0_in_bootrom>
100001fe:	a40d      	add	r4, pc, #52	; (adr r4, 10000234 <data_cpy_table>)
10000200:	cc0e      	ldmia	r4!, {r1, r2, r3}
10000202:	2900      	cmp	r1, #0
10000204:	d002      	beq.n	1000020c <_reset_handler+0x16>
10000206:	f000 f812 	bl	1000022e <data_cpy>
1000020a:	e7f9      	b.n	10000200 <_reset_handler+0xa>
1000020c:	491a      	ldr	r1, [pc, #104]	; (10000278 <__get_current_exception+0x12>)
1000020e:	4a1b      	ldr	r2, [pc, #108]	; (1000027c <__get_current_exception+0x16>)
10000210:	2000      	movs	r0, #0
10000212:	e000      	b.n	10000216 <bss_fill_test>

10000214 <bss_fill_loop>:
10000214:	c101      	stmia	r1!, {r0}

10000216 <bss_fill_test>:
10000216:	4291      	cmp	r1, r2
10000218:	d1fc      	bne.n	10000214 <bss_fill_loop>

1000021a <platform_entry>:
1000021a:	4919      	ldr	r1, [pc, #100]	; (10000280 <__get_current_exception+0x1a>)
1000021c:	4788      	blx	r1
1000021e:	4919      	ldr	r1, [pc, #100]	; (10000284 <__get_current_exception+0x1e>)
10000220:	4788      	blx	r1
10000222:	4919      	ldr	r1, [pc, #100]	; (10000288 <__get_current_exception+0x22>)
10000224:	4788      	blx	r1
10000226:	be00      	bkpt	0x0000
10000228:	e7fd      	b.n	10000226 <platform_entry+0xc>

1000022a <data_cpy_loop>:
1000022a:	c901      	ldmia	r1!, {r0}
1000022c:	c201      	stmia	r2!, {r0}

1000022e <data_cpy>:
1000022e:	429a      	cmp	r2, r3
10000230:	d3fb      	bcc.n	1000022a <data_cpy_loop>
10000232:	4770      	bx	lr

10000234 <data_cpy_table>:
10000234:	10005ce8 	.word	0x10005ce8
10000238:	200000c0 	.word	0x200000c0
1000023c:	2000023c 	.word	0x2000023c
10000240:	10005e64 	.word	0x10005e64
10000244:	20040000 	.word	0x20040000
10000248:	20040000 	.word	0x20040000
1000024c:	10005e64 	.word	0x10005e64
10000250:	20041000 	.word	0x20041000
10000254:	20041000 	.word	0x20041000
10000258:	00000000 	.word	0x00000000
1000025c:	4770      	bx	lr

1000025e <hold_non_core0_in_bootrom>:
1000025e:	480b      	ldr	r0, [pc, #44]	; (1000028c <__get_current_exception+0x26>)
10000260:	f005 f83c 	bl	100052dc <rom_func_lookup>
10000264:	4700      	bx	r0

10000266 <__get_current_exception>:
10000266:	f3ef 8005 	mrs	r0, IPSR
1000026a:	b2c0      	uxtb	r0, r0
1000026c:	4770      	bx	lr
1000026e:	0000      	.short	0x0000
10000270:	e000ed08 	.word	0xe000ed08
10000274:	d0000000 	.word	0xd0000000
10000278:	20000240 	.word	0x20000240
1000027c:	20008608 	.word	0x20008608
10000280:	100049b9 	.word	0x100049b9
10000284:	10003e41 	.word	0x10003e41
10000288:	10004aa5 	.word	0x10004aa5
1000028c:	00005657 	.word	0x00005657

10000290 <__bi_46>:
10000290:	50520006 5360b3ab 10005c6c              ..RP..`Sl\..

1000029c <__bi_34>:
1000029c:	50520006 02031c86 10005c7c              ..RP....|\..

100002a8 <__bi_26>:
100002a8:	50520006 9da22254 10005c88              ..RPT"...\..

100002b4 <__bi_18>:
100002b4:	50520005 68f465de 10005e64              ..RP.e.hd^..

100002c0 <_init>:
100002c0:	b5f8      	push	{r3, r4, r5, r6, r7, lr}
100002c2:	46c0      	nop			; (mov r8, r8)

100002c4 <__do_global_dtors_aux>:
100002c4:	b510      	push	{r4, lr}
100002c6:	4c06      	ldr	r4, [pc, #24]	; (100002e0 <__do_global_dtors_aux+0x1c>)
100002c8:	7823      	ldrb	r3, [r4, #0]
100002ca:	2b00      	cmp	r3, #0
100002cc:	d107      	bne.n	100002de <__do_global_dtors_aux+0x1a>
100002ce:	4b05      	ldr	r3, [pc, #20]	; (100002e4 <__do_global_dtors_aux+0x20>)
100002d0:	2b00      	cmp	r3, #0
100002d2:	d002      	beq.n	100002da <__do_global_dtors_aux+0x16>
100002d4:	4804      	ldr	r0, [pc, #16]	; (100002e8 <__do_global_dtors_aux+0x24>)
100002d6:	e000      	b.n	100002da <__do_global_dtors_aux+0x16>
100002d8:	bf00      	nop
100002da:	2301      	movs	r3, #1
100002dc:	7023      	strb	r3, [r4, #0]
100002de:	bd10      	pop	{r4, pc}
100002e0:	20000340 	.word	0x20000340
100002e4:	00000000 	.word	0x00000000
100002e8:	10005bd0 	.word	0x10005bd0

100002ec <frame_dummy>:
100002ec:	4b04      	ldr	r3, [pc, #16]	; (10000300 <frame_dummy+0x14>)
100002ee:	b510      	push	{r4, lr}
100002f0:	2b00      	cmp	r3, #0
100002f2:	d003      	beq.n	100002fc <frame_dummy+0x10>
100002f4:	4903      	ldr	r1, [pc, #12]	; (10000304 <frame_dummy+0x18>)
100002f6:	4804      	ldr	r0, [pc, #16]	; (10000308 <frame_dummy+0x1c>)
100002f8:	e000      	b.n	100002fc <frame_dummy+0x10>
100002fa:	bf00      	nop
100002fc:	bd10      	pop	{r4, pc}
100002fe:	46c0      	nop			; (mov r8, r8)
10000300:	00000000 	.word	0x00000000
10000304:	20000344 	.word	0x20000344
10000308:	10005bd0 	.word	0x10005bd0

1000030c <setup_gpio>:
1000030c:	b510      	push	{r4, lr}
1000030e:	2000      	movs	r0, #0
10000310:	24d0      	movs	r4, #208	; 0xd0
10000312:	f003 fdf1 	bl	10003ef8 <gpio_init>
10000316:	2301      	movs	r3, #1
10000318:	0624      	lsls	r4, r4, #24
1000031a:	62a3      	str	r3, [r4, #40]	; 0x28
1000031c:	2001      	movs	r0, #1
1000031e:	f003 fdeb 	bl	10003ef8 <gpio_init>
10000322:	2302      	movs	r3, #2
10000324:	2002      	movs	r0, #2
10000326:	62a3      	str	r3, [r4, #40]	; 0x28
10000328:	f003 fde6 	bl	10003ef8 <gpio_init>
1000032c:	2304      	movs	r3, #4
1000032e:	2003      	movs	r0, #3
10000330:	62a3      	str	r3, [r4, #40]	; 0x28
10000332:	f003 fde1 	bl	10003ef8 <gpio_init>
10000336:	2308      	movs	r3, #8
10000338:	2004      	movs	r0, #4
1000033a:	62a3      	str	r3, [r4, #40]	; 0x28
1000033c:	f003 fddc 	bl	10003ef8 <gpio_init>
10000340:	2310      	movs	r3, #16
10000342:	2005      	movs	r0, #5
10000344:	62a3      	str	r3, [r4, #40]	; 0x28
10000346:	f003 fdd7 	bl	10003ef8 <gpio_init>
1000034a:	2320      	movs	r3, #32
1000034c:	2006      	movs	r0, #6
1000034e:	62a3      	str	r3, [r4, #40]	; 0x28
10000350:	f003 fdd2 	bl	10003ef8 <gpio_init>
10000354:	2340      	movs	r3, #64	; 0x40
10000356:	2007      	movs	r0, #7
10000358:	62a3      	str	r3, [r4, #40]	; 0x28
1000035a:	f003 fdcd 	bl	10003ef8 <gpio_init>
1000035e:	2380      	movs	r3, #128	; 0x80
10000360:	2008      	movs	r0, #8
10000362:	62a3      	str	r3, [r4, #40]	; 0x28
10000364:	f003 fdc8 	bl	10003ef8 <gpio_init>
10000368:	2380      	movs	r3, #128	; 0x80
1000036a:	005b      	lsls	r3, r3, #1
1000036c:	62a3      	str	r3, [r4, #40]	; 0x28
1000036e:	2009      	movs	r0, #9
10000370:	f003 fdc2 	bl	10003ef8 <gpio_init>
10000374:	2380      	movs	r3, #128	; 0x80
10000376:	009b      	lsls	r3, r3, #2
10000378:	62a3      	str	r3, [r4, #40]	; 0x28
1000037a:	200a      	movs	r0, #10
1000037c:	f003 fdbc 	bl	10003ef8 <gpio_init>
10000380:	2380      	movs	r3, #128	; 0x80
10000382:	00db      	lsls	r3, r3, #3
10000384:	62a3      	str	r3, [r4, #40]	; 0x28
10000386:	200b      	movs	r0, #11
10000388:	f003 fdb6 	bl	10003ef8 <gpio_init>
1000038c:	2380      	movs	r3, #128	; 0x80
1000038e:	011b      	lsls	r3, r3, #4
10000390:	62a3      	str	r3, [r4, #40]	; 0x28
10000392:	200c      	movs	r0, #12
10000394:	f003 fdb0 	bl	10003ef8 <gpio_init>
10000398:	2380      	movs	r3, #128	; 0x80
1000039a:	015b      	lsls	r3, r3, #5
1000039c:	62a3      	str	r3, [r4, #40]	; 0x28
1000039e:	200d      	movs	r0, #13
100003a0:	f003 fdaa 	bl	10003ef8 <gpio_init>
100003a4:	2380      	movs	r3, #128	; 0x80
100003a6:	019b      	lsls	r3, r3, #6
100003a8:	62a3      	str	r3, [r4, #40]	; 0x28
100003aa:	200e      	movs	r0, #14
100003ac:	f003 fda4 	bl	10003ef8 <gpio_init>
100003b0:	2380      	movs	r3, #128	; 0x80
100003b2:	01db      	lsls	r3, r3, #7
100003b4:	62a3      	str	r3, [r4, #40]	; 0x28
100003b6:	200f      	movs	r0, #15
100003b8:	f003 fd9e 	bl	10003ef8 <gpio_init>
100003bc:	2380      	movs	r3, #128	; 0x80
100003be:	021b      	lsls	r3, r3, #8
100003c0:	6263      	str	r3, [r4, #36]	; 0x24
100003c2:	2010      	movs	r0, #16
100003c4:	f003 fd98 	bl	10003ef8 <gpio_init>
100003c8:	2380      	movs	r3, #128	; 0x80
100003ca:	025b      	lsls	r3, r3, #9
100003cc:	6263      	str	r3, [r4, #36]	; 0x24
100003ce:	2011      	movs	r0, #17
100003d0:	f003 fd92 	bl	10003ef8 <gpio_init>
100003d4:	2380      	movs	r3, #128	; 0x80
100003d6:	029b      	lsls	r3, r3, #10
100003d8:	6263      	str	r3, [r4, #36]	; 0x24
100003da:	2012      	movs	r0, #18
100003dc:	f003 fd8c 	bl	10003ef8 <gpio_init>
100003e0:	2380      	movs	r3, #128	; 0x80
100003e2:	02db      	lsls	r3, r3, #11
100003e4:	6263      	str	r3, [r4, #36]	; 0x24
100003e6:	2013      	movs	r0, #19
100003e8:	f003 fd86 	bl	10003ef8 <gpio_init>
100003ec:	2380      	movs	r3, #128	; 0x80
100003ee:	031b      	lsls	r3, r3, #12
100003f0:	6263      	str	r3, [r4, #36]	; 0x24
100003f2:	2014      	movs	r0, #20
100003f4:	f003 fd80 	bl	10003ef8 <gpio_init>
100003f8:	2380      	movs	r3, #128	; 0x80
100003fa:	035b      	lsls	r3, r3, #13
100003fc:	6263      	str	r3, [r4, #36]	; 0x24
100003fe:	2015      	movs	r0, #21
10000400:	f003 fd7a 	bl	10003ef8 <gpio_init>
10000404:	2380      	movs	r3, #128	; 0x80
10000406:	039b      	lsls	r3, r3, #14
10000408:	6263      	str	r3, [r4, #36]	; 0x24
1000040a:	2016      	movs	r0, #22
1000040c:	f003 fd74 	bl	10003ef8 <gpio_init>
10000410:	2380      	movs	r3, #128	; 0x80
10000412:	03db      	lsls	r3, r3, #15
10000414:	6263      	str	r3, [r4, #36]	; 0x24
10000416:	bd10      	pop	{r4, pc}

10000418 <setup_rom_contents>:
10000418:	b5f0      	push	{r4, r5, r6, r7, lr}
1000041a:	2100      	movs	r1, #0
1000041c:	4657      	mov	r7, sl
1000041e:	464e      	mov	r6, r9
10000420:	4645      	mov	r5, r8
10000422:	46de      	mov	lr, fp
10000424:	4bfd      	ldr	r3, [pc, #1012]	; (1000081c <setup_rom_contents+0x404>)
10000426:	4afe      	ldr	r2, [pc, #1016]	; (10000820 <setup_rom_contents+0x408>)
10000428:	b5e0      	push	{r5, r6, r7, lr}
1000042a:	5299      	strh	r1, [r3, r2]
1000042c:	2180      	movs	r1, #128	; 0x80
1000042e:	48fd      	ldr	r0, [pc, #1012]	; (10000824 <setup_rom_contents+0x40c>)
10000430:	4afd      	ldr	r2, [pc, #1012]	; (10000828 <setup_rom_contents+0x410>)
10000432:	6298      	str	r0, [r3, #40]	; 0x28
10000434:	48fd      	ldr	r0, [pc, #1012]	; (1000082c <setup_rom_contents+0x414>)
10000436:	0209      	lsls	r1, r1, #8
10000438:	62d8      	str	r0, [r3, #44]	; 0x2c
1000043a:	48fd      	ldr	r0, [pc, #1012]	; (10000830 <setup_rom_contents+0x418>)
1000043c:	5099      	str	r1, [r3, r2]
1000043e:	6318      	str	r0, [r3, #48]	; 0x30
10000440:	48fc      	ldr	r0, [pc, #1008]	; (10000834 <setup_rom_contents+0x41c>)
10000442:	4afd      	ldr	r2, [pc, #1012]	; (10000838 <setup_rom_contents+0x420>)
10000444:	6358      	str	r0, [r3, #52]	; 0x34
10000446:	48fd      	ldr	r0, [pc, #1012]	; (1000083c <setup_rom_contents+0x424>)
10000448:	601a      	str	r2, [r3, #0]
1000044a:	6398      	str	r0, [r3, #56]	; 0x38
1000044c:	48fc      	ldr	r0, [pc, #1008]	; (10000840 <setup_rom_contents+0x428>)
1000044e:	4afd      	ldr	r2, [pc, #1012]	; (10000844 <setup_rom_contents+0x42c>)
10000450:	63d8      	str	r0, [r3, #60]	; 0x3c
10000452:	48fd      	ldr	r0, [pc, #1012]	; (10000848 <setup_rom_contents+0x430>)
10000454:	605a      	str	r2, [r3, #4]
10000456:	6418      	str	r0, [r3, #64]	; 0x40
10000458:	48fc      	ldr	r0, [pc, #1008]	; (1000084c <setup_rom_contents+0x434>)
1000045a:	4afd      	ldr	r2, [pc, #1012]	; (10000850 <setup_rom_contents+0x438>)
1000045c:	6458      	str	r0, [r3, #68]	; 0x44
1000045e:	48fd      	ldr	r0, [pc, #1012]	; (10000854 <setup_rom_contents+0x43c>)
10000460:	609a      	str	r2, [r3, #8]
10000462:	6498      	str	r0, [r3, #72]	; 0x48
10000464:	48fc      	ldr	r0, [pc, #1008]	; (10000858 <setup_rom_contents+0x440>)
10000466:	4afd      	ldr	r2, [pc, #1012]	; (1000085c <setup_rom_contents+0x444>)
10000468:	64d8      	str	r0, [r3, #76]	; 0x4c
1000046a:	48fd      	ldr	r0, [pc, #1012]	; (10000860 <setup_rom_contents+0x448>)
1000046c:	60da      	str	r2, [r3, #12]
1000046e:	6518      	str	r0, [r3, #80]	; 0x50
10000470:	48fc      	ldr	r0, [pc, #1008]	; (10000864 <setup_rom_contents+0x44c>)
10000472:	4afd      	ldr	r2, [pc, #1012]	; (10000868 <setup_rom_contents+0x450>)
10000474:	6558      	str	r0, [r3, #84]	; 0x54
10000476:	48fd      	ldr	r0, [pc, #1012]	; (1000086c <setup_rom_contents+0x454>)
10000478:	611a      	str	r2, [r3, #16]
1000047a:	6598      	str	r0, [r3, #88]	; 0x58
1000047c:	48fc      	ldr	r0, [pc, #1008]	; (10000870 <setup_rom_contents+0x458>)
1000047e:	4afd      	ldr	r2, [pc, #1012]	; (10000874 <setup_rom_contents+0x45c>)
10000480:	65d8      	str	r0, [r3, #92]	; 0x5c
10000482:	48fd      	ldr	r0, [pc, #1012]	; (10000878 <setup_rom_contents+0x460>)
10000484:	615a      	str	r2, [r3, #20]
10000486:	6618      	str	r0, [r3, #96]	; 0x60
10000488:	4afc      	ldr	r2, [pc, #1008]	; (1000087c <setup_rom_contents+0x464>)
1000048a:	48fd      	ldr	r0, [pc, #1012]	; (10000880 <setup_rom_contents+0x468>)
1000048c:	61da      	str	r2, [r3, #28]
1000048e:	6658      	str	r0, [r3, #100]	; 0x64
10000490:	4afc      	ldr	r2, [pc, #1008]	; (10000884 <setup_rom_contents+0x46c>)
10000492:	48fd      	ldr	r0, [pc, #1012]	; (10000888 <setup_rom_contents+0x470>)
10000494:	49fd      	ldr	r1, [pc, #1012]	; (1000088c <setup_rom_contents+0x474>)
10000496:	621a      	str	r2, [r3, #32]
10000498:	6698      	str	r0, [r3, #104]	; 0x68
1000049a:	4afd      	ldr	r2, [pc, #1012]	; (10000890 <setup_rom_contents+0x478>)
1000049c:	48fd      	ldr	r0, [pc, #1012]	; (10000894 <setup_rom_contents+0x47c>)
1000049e:	6199      	str	r1, [r3, #24]
100004a0:	625a      	str	r2, [r3, #36]	; 0x24
100004a2:	66d8      	str	r0, [r3, #108]	; 0x6c
100004a4:	48fc      	ldr	r0, [pc, #1008]	; (10000898 <setup_rom_contents+0x480>)
100004a6:	4cfd      	ldr	r4, [pc, #1012]	; (1000089c <setup_rom_contents+0x484>)
100004a8:	6718      	str	r0, [r3, #112]	; 0x70
100004aa:	48fd      	ldr	r0, [pc, #1012]	; (100008a0 <setup_rom_contents+0x488>)
100004ac:	25e4      	movs	r5, #228	; 0xe4
100004ae:	6758      	str	r0, [r3, #116]	; 0x74
100004b0:	48fc      	ldr	r0, [pc, #1008]	; (100008a4 <setup_rom_contents+0x48c>)
100004b2:	4ffd      	ldr	r7, [pc, #1012]	; (100008a8 <setup_rom_contents+0x490>)
100004b4:	6798      	str	r0, [r3, #120]	; 0x78
100004b6:	48fd      	ldr	r0, [pc, #1012]	; (100008ac <setup_rom_contents+0x494>)
100004b8:	4efd      	ldr	r6, [pc, #1012]	; (100008b0 <setup_rom_contents+0x498>)
100004ba:	67d8      	str	r0, [r3, #124]	; 0x7c
100004bc:	2080      	movs	r0, #128	; 0x80
100004be:	501c      	str	r4, [r3, r0]
100004c0:	4cfc      	ldr	r4, [pc, #1008]	; (100008b4 <setup_rom_contents+0x49c>)
100004c2:	3004      	adds	r0, #4
100004c4:	501c      	str	r4, [r3, r0]
100004c6:	4cfc      	ldr	r4, [pc, #1008]	; (100008b8 <setup_rom_contents+0x4a0>)
100004c8:	3004      	adds	r0, #4
100004ca:	501c      	str	r4, [r3, r0]
100004cc:	4cfb      	ldr	r4, [pc, #1004]	; (100008bc <setup_rom_contents+0x4a4>)
100004ce:	3004      	adds	r0, #4
100004d0:	501c      	str	r4, [r3, r0]
100004d2:	4cfb      	ldr	r4, [pc, #1004]	; (100008c0 <setup_rom_contents+0x4a8>)
100004d4:	3004      	adds	r0, #4
100004d6:	501c      	str	r4, [r3, r0]
100004d8:	3004      	adds	r0, #4
100004da:	5019      	str	r1, [r3, r0]
100004dc:	2198      	movs	r1, #152	; 0x98
100004de:	48f9      	ldr	r0, [pc, #996]	; (100008c4 <setup_rom_contents+0x4ac>)
100004e0:	4cf9      	ldr	r4, [pc, #996]	; (100008c8 <setup_rom_contents+0x4b0>)
100004e2:	5058      	str	r0, [r3, r1]
100004e4:	48f9      	ldr	r0, [pc, #996]	; (100008cc <setup_rom_contents+0x4b4>)
100004e6:	3104      	adds	r1, #4
100004e8:	5058      	str	r0, [r3, r1]
100004ea:	48f9      	ldr	r0, [pc, #996]	; (100008d0 <setup_rom_contents+0x4b8>)
100004ec:	3104      	adds	r1, #4
100004ee:	5058      	str	r0, [r3, r1]
100004f0:	48f8      	ldr	r0, [pc, #992]	; (100008d4 <setup_rom_contents+0x4bc>)
100004f2:	3104      	adds	r1, #4
100004f4:	5058      	str	r0, [r3, r1]
100004f6:	48f8      	ldr	r0, [pc, #992]	; (100008d8 <setup_rom_contents+0x4c0>)
100004f8:	3104      	adds	r1, #4
100004fa:	5058      	str	r0, [r3, r1]
100004fc:	48f7      	ldr	r0, [pc, #988]	; (100008dc <setup_rom_contents+0x4c4>)
100004fe:	3104      	adds	r1, #4
10000500:	5058      	str	r0, [r3, r1]
10000502:	48f7      	ldr	r0, [pc, #988]	; (100008e0 <setup_rom_contents+0x4c8>)
10000504:	3104      	adds	r1, #4
10000506:	5058      	str	r0, [r3, r1]
10000508:	48f6      	ldr	r0, [pc, #984]	; (100008e4 <setup_rom_contents+0x4cc>)
1000050a:	3104      	adds	r1, #4
1000050c:	5058      	str	r0, [r3, r1]
1000050e:	48f6      	ldr	r0, [pc, #984]	; (100008e8 <setup_rom_contents+0x4d0>)
10000510:	3104      	adds	r1, #4
10000512:	5058      	str	r0, [r3, r1]
10000514:	48f5      	ldr	r0, [pc, #980]	; (100008ec <setup_rom_contents+0x4d4>)
10000516:	3104      	adds	r1, #4
10000518:	5058      	str	r0, [r3, r1]
1000051a:	48f5      	ldr	r0, [pc, #980]	; (100008f0 <setup_rom_contents+0x4d8>)
1000051c:	3104      	adds	r1, #4
1000051e:	5058      	str	r0, [r3, r1]
10000520:	49f4      	ldr	r1, [pc, #976]	; (100008f4 <setup_rom_contents+0x4dc>)
10000522:	4693      	mov	fp, r2
10000524:	468c      	mov	ip, r1
10000526:	21c4      	movs	r1, #196	; 0xc4
10000528:	4660      	mov	r0, ip
1000052a:	5058      	str	r0, [r3, r1]
1000052c:	48f2      	ldr	r0, [pc, #968]	; (100008f8 <setup_rom_contents+0x4e0>)
1000052e:	3104      	adds	r1, #4
10000530:	5058      	str	r0, [r3, r1]
10000532:	48f2      	ldr	r0, [pc, #968]	; (100008fc <setup_rom_contents+0x4e4>)
10000534:	3104      	adds	r1, #4
10000536:	5058      	str	r0, [r3, r1]
10000538:	48f1      	ldr	r0, [pc, #964]	; (10000900 <setup_rom_contents+0x4e8>)
1000053a:	3104      	adds	r1, #4
1000053c:	5058      	str	r0, [r3, r1]
1000053e:	20d4      	movs	r0, #212	; 0xd4
10000540:	501c      	str	r4, [r3, r0]
10000542:	3004      	adds	r0, #4
10000544:	501f      	str	r7, [r3, r0]
10000546:	4cef      	ldr	r4, [pc, #956]	; (10000904 <setup_rom_contents+0x4ec>)
10000548:	3004      	adds	r0, #4
1000054a:	501e      	str	r6, [r3, r0]
1000054c:	3004      	adds	r0, #4
1000054e:	501c      	str	r4, [r3, r0]
10000550:	48ed      	ldr	r0, [pc, #948]	; (10000908 <setup_rom_contents+0x4f0>)
10000552:	4aee      	ldr	r2, [pc, #952]	; (1000090c <setup_rom_contents+0x4f4>)
10000554:	5158      	str	r0, [r3, r5]
10000556:	3504      	adds	r5, #4
10000558:	515a      	str	r2, [r3, r5]
1000055a:	4aed      	ldr	r2, [pc, #948]	; (10000910 <setup_rom_contents+0x4f8>)
1000055c:	3504      	adds	r5, #4
1000055e:	515a      	str	r2, [r3, r5]
10000560:	22f0      	movs	r2, #240	; 0xf0
10000562:	4dec      	ldr	r5, [pc, #944]	; (10000914 <setup_rom_contents+0x4fc>)
10000564:	4691      	mov	r9, r2
10000566:	509d      	str	r5, [r3, r2]
10000568:	25f4      	movs	r5, #244	; 0xf4
1000056a:	4aeb      	ldr	r2, [pc, #940]	; (10000918 <setup_rom_contents+0x500>)
1000056c:	515a      	str	r2, [r3, r5]
1000056e:	4aeb      	ldr	r2, [pc, #940]	; (1000091c <setup_rom_contents+0x504>)
10000570:	3504      	adds	r5, #4
10000572:	535a      	strh	r2, [r3, r5]
10000574:	2206      	movs	r2, #6
10000576:	3502      	adds	r5, #2
10000578:	555a      	strb	r2, [r3, r5]
1000057a:	32f5      	adds	r2, #245	; 0xf5
1000057c:	4690      	mov	r8, r2
1000057e:	3a52      	subs	r2, #82	; 0x52
10000580:	4692      	mov	sl, r2
10000582:	4642      	mov	r2, r8
10000584:	4651      	mov	r1, sl
10000586:	5499      	strb	r1, [r3, r2]
10000588:	4661      	mov	r1, ip
1000058a:	3201      	adds	r2, #1
1000058c:	5099      	str	r1, [r3, r2]
1000058e:	3204      	adds	r2, #4
10000590:	509f      	str	r7, [r3, r2]
10000592:	2782      	movs	r7, #130	; 0x82
10000594:	007f      	lsls	r7, r7, #1
10000596:	51de      	str	r6, [r3, r7]
10000598:	2684      	movs	r6, #132	; 0x84
1000059a:	0076      	lsls	r6, r6, #1
1000059c:	519c      	str	r4, [r3, r6]
1000059e:	2486      	movs	r4, #134	; 0x86
100005a0:	0064      	lsls	r4, r4, #1
100005a2:	5118      	str	r0, [r3, r4]
100005a4:	2088      	movs	r0, #136	; 0x88
100005a6:	465a      	mov	r2, fp
100005a8:	4cdd      	ldr	r4, [pc, #884]	; (10000920 <setup_rom_contents+0x508>)
100005aa:	0040      	lsls	r0, r0, #1
100005ac:	501c      	str	r4, [r3, r0]
100005ae:	3004      	adds	r0, #4
100005b0:	501a      	str	r2, [r3, r0]
100005b2:	228c      	movs	r2, #140	; 0x8c
100005b4:	48db      	ldr	r0, [pc, #876]	; (10000924 <setup_rom_contents+0x50c>)
100005b6:	0052      	lsls	r2, r2, #1
100005b8:	5098      	str	r0, [r3, r2]
100005ba:	48db      	ldr	r0, [pc, #876]	; (10000928 <setup_rom_contents+0x510>)
100005bc:	3204      	adds	r2, #4
100005be:	5098      	str	r0, [r3, r2]
100005c0:	48da      	ldr	r0, [pc, #872]	; (1000092c <setup_rom_contents+0x514>)
100005c2:	3204      	adds	r2, #4
100005c4:	5098      	str	r0, [r3, r2]
100005c6:	48da      	ldr	r0, [pc, #872]	; (10000930 <setup_rom_contents+0x518>)
100005c8:	3204      	adds	r2, #4
100005ca:	5098      	str	r0, [r3, r2]
100005cc:	2094      	movs	r0, #148	; 0x94
100005ce:	4ad9      	ldr	r2, [pc, #868]	; (10000934 <setup_rom_contents+0x51c>)
100005d0:	4cd9      	ldr	r4, [pc, #868]	; (10000938 <setup_rom_contents+0x520>)
100005d2:	0040      	lsls	r0, r0, #1
100005d4:	501a      	str	r2, [r3, r0]
100005d6:	3004      	adds	r0, #4
100005d8:	501c      	str	r4, [r3, r0]
100005da:	4cd8      	ldr	r4, [pc, #864]	; (1000093c <setup_rom_contents+0x524>)
100005dc:	3004      	adds	r0, #4
100005de:	501c      	str	r4, [r3, r0]
100005e0:	4cd7      	ldr	r4, [pc, #860]	; (10000940 <setup_rom_contents+0x528>)
100005e2:	3004      	adds	r0, #4
100005e4:	501a      	str	r2, [r3, r0]
100005e6:	3004      	adds	r0, #4
100005e8:	501c      	str	r4, [r3, r0]
100005ea:	4cd6      	ldr	r4, [pc, #856]	; (10000944 <setup_rom_contents+0x52c>)
100005ec:	3004      	adds	r0, #4
100005ee:	501c      	str	r4, [r3, r0]
100005f0:	4cd5      	ldr	r4, [pc, #852]	; (10000948 <setup_rom_contents+0x530>)
100005f2:	3004      	adds	r0, #4
100005f4:	501a      	str	r2, [r3, r0]
100005f6:	3004      	adds	r0, #4
100005f8:	501c      	str	r4, [r3, r0]
100005fa:	4cd4      	ldr	r4, [pc, #848]	; (1000094c <setup_rom_contents+0x534>)
100005fc:	3004      	adds	r0, #4
100005fe:	501c      	str	r4, [r3, r0]
10000600:	4cd3      	ldr	r4, [pc, #844]	; (10000950 <setup_rom_contents+0x538>)
10000602:	3004      	adds	r0, #4
10000604:	501a      	str	r2, [r3, r0]
10000606:	3004      	adds	r0, #4
10000608:	501c      	str	r4, [r3, r0]
1000060a:	4cd2      	ldr	r4, [pc, #840]	; (10000954 <setup_rom_contents+0x53c>)
1000060c:	3004      	adds	r0, #4
1000060e:	501c      	str	r4, [r3, r0]
10000610:	4cd1      	ldr	r4, [pc, #836]	; (10000958 <setup_rom_contents+0x540>)
10000612:	3004      	adds	r0, #4
10000614:	501a      	str	r2, [r3, r0]
10000616:	3004      	adds	r0, #4
10000618:	501c      	str	r4, [r3, r0]
1000061a:	4cd0      	ldr	r4, [pc, #832]	; (1000095c <setup_rom_contents+0x544>)
1000061c:	3004      	adds	r0, #4
1000061e:	501c      	str	r4, [r3, r0]
10000620:	4ccf      	ldr	r4, [pc, #828]	; (10000960 <setup_rom_contents+0x548>)
10000622:	3004      	adds	r0, #4
10000624:	501a      	str	r2, [r3, r0]
10000626:	3004      	adds	r0, #4
10000628:	501c      	str	r4, [r3, r0]
1000062a:	4cce      	ldr	r4, [pc, #824]	; (10000964 <setup_rom_contents+0x54c>)
1000062c:	3004      	adds	r0, #4
1000062e:	501c      	str	r4, [r3, r0]
10000630:	4ccd      	ldr	r4, [pc, #820]	; (10000968 <setup_rom_contents+0x550>)
10000632:	3004      	adds	r0, #4
10000634:	501a      	str	r2, [r3, r0]
10000636:	3004      	adds	r0, #4
10000638:	501c      	str	r4, [r3, r0]
1000063a:	4ccc      	ldr	r4, [pc, #816]	; (1000096c <setup_rom_contents+0x554>)
1000063c:	3004      	adds	r0, #4
1000063e:	501c      	str	r4, [r3, r0]
10000640:	4ccb      	ldr	r4, [pc, #812]	; (10000970 <setup_rom_contents+0x558>)
10000642:	3004      	adds	r0, #4
10000644:	501a      	str	r2, [r3, r0]
10000646:	3004      	adds	r0, #4
10000648:	501c      	str	r4, [r3, r0]
1000064a:	4cca      	ldr	r4, [pc, #808]	; (10000974 <setup_rom_contents+0x55c>)
1000064c:	3004      	adds	r0, #4
1000064e:	501c      	str	r4, [r3, r0]
10000650:	4cc9      	ldr	r4, [pc, #804]	; (10000978 <setup_rom_contents+0x560>)
10000652:	3004      	adds	r0, #4
10000654:	501a      	str	r2, [r3, r0]
10000656:	3004      	adds	r0, #4
10000658:	501c      	str	r4, [r3, r0]
1000065a:	4cc8      	ldr	r4, [pc, #800]	; (1000097c <setup_rom_contents+0x564>)
1000065c:	3004      	adds	r0, #4
1000065e:	501c      	str	r4, [r3, r0]
10000660:	4cc7      	ldr	r4, [pc, #796]	; (10000980 <setup_rom_contents+0x568>)
10000662:	3004      	adds	r0, #4
10000664:	501a      	str	r2, [r3, r0]
10000666:	21d0      	movs	r1, #208	; 0xd0
10000668:	3004      	adds	r0, #4
1000066a:	501c      	str	r4, [r3, r0]
1000066c:	4cc5      	ldr	r4, [pc, #788]	; (10000984 <setup_rom_contents+0x56c>)
1000066e:	3004      	adds	r0, #4
10000670:	501c      	str	r4, [r3, r0]
10000672:	4cc5      	ldr	r4, [pc, #788]	; (10000988 <setup_rom_contents+0x570>)
10000674:	3004      	adds	r0, #4
10000676:	501a      	str	r2, [r3, r0]
10000678:	3004      	adds	r0, #4
1000067a:	501c      	str	r4, [r3, r0]
1000067c:	4cc3      	ldr	r4, [pc, #780]	; (1000098c <setup_rom_contents+0x574>)
1000067e:	3004      	adds	r0, #4
10000680:	501c      	str	r4, [r3, r0]
10000682:	4cc3      	ldr	r4, [pc, #780]	; (10000990 <setup_rom_contents+0x578>)
10000684:	3004      	adds	r0, #4
10000686:	501a      	str	r2, [r3, r0]
10000688:	3004      	adds	r0, #4
1000068a:	501c      	str	r4, [r3, r0]
1000068c:	4cc1      	ldr	r4, [pc, #772]	; (10000994 <setup_rom_contents+0x57c>)
1000068e:	3004      	adds	r0, #4
10000690:	501c      	str	r4, [r3, r0]
10000692:	4cc1      	ldr	r4, [pc, #772]	; (10000998 <setup_rom_contents+0x580>)
10000694:	3004      	adds	r0, #4
10000696:	501a      	str	r2, [r3, r0]
10000698:	3004      	adds	r0, #4
1000069a:	501c      	str	r4, [r3, r0]
1000069c:	4cbf      	ldr	r4, [pc, #764]	; (1000099c <setup_rom_contents+0x584>)
1000069e:	3004      	adds	r0, #4
100006a0:	501c      	str	r4, [r3, r0]
100006a2:	4cbf      	ldr	r4, [pc, #764]	; (100009a0 <setup_rom_contents+0x588>)
100006a4:	3004      	adds	r0, #4
100006a6:	501a      	str	r2, [r3, r0]
100006a8:	3004      	adds	r0, #4
100006aa:	501c      	str	r4, [r3, r0]
100006ac:	4cbd      	ldr	r4, [pc, #756]	; (100009a4 <setup_rom_contents+0x58c>)
100006ae:	3004      	adds	r0, #4
100006b0:	501c      	str	r4, [r3, r0]
100006b2:	4cbd      	ldr	r4, [pc, #756]	; (100009a8 <setup_rom_contents+0x590>)
100006b4:	3004      	adds	r0, #4
100006b6:	501a      	str	r2, [r3, r0]
100006b8:	3004      	adds	r0, #4
100006ba:	501c      	str	r4, [r3, r0]
100006bc:	4cbb      	ldr	r4, [pc, #748]	; (100009ac <setup_rom_contents+0x594>)
100006be:	3004      	adds	r0, #4
100006c0:	501c      	str	r4, [r3, r0]
100006c2:	4cbb      	ldr	r4, [pc, #748]	; (100009b0 <setup_rom_contents+0x598>)
100006c4:	3004      	adds	r0, #4
100006c6:	501a      	str	r2, [r3, r0]
100006c8:	3004      	adds	r0, #4
100006ca:	501c      	str	r4, [r3, r0]
100006cc:	4cb9      	ldr	r4, [pc, #740]	; (100009b4 <setup_rom_contents+0x59c>)
100006ce:	3004      	adds	r0, #4
100006d0:	501c      	str	r4, [r3, r0]
100006d2:	4cb9      	ldr	r4, [pc, #740]	; (100009b8 <setup_rom_contents+0x5a0>)
100006d4:	3004      	adds	r0, #4
100006d6:	501a      	str	r2, [r3, r0]
100006d8:	3004      	adds	r0, #4
100006da:	501c      	str	r4, [r3, r0]
100006dc:	4cb7      	ldr	r4, [pc, #732]	; (100009bc <setup_rom_contents+0x5a4>)
100006de:	3004      	adds	r0, #4
100006e0:	521c      	strh	r4, [r3, r0]
100006e2:	3002      	adds	r0, #2
100006e4:	5419      	strb	r1, [r3, r0]
100006e6:	21f4      	movs	r1, #244	; 0xf4
100006e8:	38eb      	subs	r0, #235	; 0xeb
100006ea:	31ff      	adds	r1, #255	; 0xff
100006ec:	38ff      	subs	r0, #255	; 0xff
100006ee:	5458      	strb	r0, [r3, r1]
100006f0:	48b3      	ldr	r0, [pc, #716]	; (100009c0 <setup_rom_contents+0x5a8>)
100006f2:	3101      	adds	r1, #1
100006f4:	505a      	str	r2, [r3, r1]
100006f6:	3104      	adds	r1, #4
100006f8:	5058      	str	r0, [r3, r1]
100006fa:	48b2      	ldr	r0, [pc, #712]	; (100009c4 <setup_rom_contents+0x5ac>)
100006fc:	3104      	adds	r1, #4
100006fe:	5058      	str	r0, [r3, r1]
10000700:	48b1      	ldr	r0, [pc, #708]	; (100009c8 <setup_rom_contents+0x5b0>)
10000702:	3104      	adds	r1, #4
10000704:	505a      	str	r2, [r3, r1]
10000706:	3104      	adds	r1, #4
10000708:	5058      	str	r0, [r3, r1]
1000070a:	48b0      	ldr	r0, [pc, #704]	; (100009cc <setup_rom_contents+0x5b4>)
1000070c:	3104      	adds	r1, #4
1000070e:	5058      	str	r0, [r3, r1]
10000710:	48af      	ldr	r0, [pc, #700]	; (100009d0 <setup_rom_contents+0x5b8>)
10000712:	3104      	adds	r1, #4
10000714:	505a      	str	r2, [r3, r1]
10000716:	3104      	adds	r1, #4
10000718:	5058      	str	r0, [r3, r1]
1000071a:	48ae      	ldr	r0, [pc, #696]	; (100009d4 <setup_rom_contents+0x5bc>)
1000071c:	3104      	adds	r1, #4
1000071e:	5058      	str	r0, [r3, r1]
10000720:	48ad      	ldr	r0, [pc, #692]	; (100009d8 <setup_rom_contents+0x5c0>)
10000722:	3104      	adds	r1, #4
10000724:	505a      	str	r2, [r3, r1]
10000726:	3104      	adds	r1, #4
10000728:	5058      	str	r0, [r3, r1]
1000072a:	48ac      	ldr	r0, [pc, #688]	; (100009dc <setup_rom_contents+0x5c4>)
1000072c:	3104      	adds	r1, #4
1000072e:	5058      	str	r0, [r3, r1]
10000730:	48ab      	ldr	r0, [pc, #684]	; (100009e0 <setup_rom_contents+0x5c8>)
10000732:	3104      	adds	r1, #4
10000734:	505a      	str	r2, [r3, r1]
10000736:	3104      	adds	r1, #4
10000738:	5058      	str	r0, [r3, r1]
1000073a:	48aa      	ldr	r0, [pc, #680]	; (100009e4 <setup_rom_contents+0x5cc>)
1000073c:	3104      	adds	r1, #4
1000073e:	5058      	str	r0, [r3, r1]
10000740:	48a9      	ldr	r0, [pc, #676]	; (100009e8 <setup_rom_contents+0x5d0>)
10000742:	3104      	adds	r1, #4
10000744:	505a      	str	r2, [r3, r1]
10000746:	3104      	adds	r1, #4
10000748:	5058      	str	r0, [r3, r1]
1000074a:	48a8      	ldr	r0, [pc, #672]	; (100009ec <setup_rom_contents+0x5d4>)
1000074c:	3104      	adds	r1, #4
1000074e:	5058      	str	r0, [r3, r1]
10000750:	48a7      	ldr	r0, [pc, #668]	; (100009f0 <setup_rom_contents+0x5d8>)
10000752:	3104      	adds	r1, #4
10000754:	505a      	str	r2, [r3, r1]
10000756:	3104      	adds	r1, #4
10000758:	5058      	str	r0, [r3, r1]
1000075a:	48a6      	ldr	r0, [pc, #664]	; (100009f4 <setup_rom_contents+0x5dc>)
1000075c:	3104      	adds	r1, #4
1000075e:	5058      	str	r0, [r3, r1]
10000760:	48a5      	ldr	r0, [pc, #660]	; (100009f8 <setup_rom_contents+0x5e0>)
10000762:	3104      	adds	r1, #4
10000764:	505a      	str	r2, [r3, r1]
10000766:	3104      	adds	r1, #4
10000768:	5058      	str	r0, [r3, r1]
1000076a:	48a4      	ldr	r0, [pc, #656]	; (100009fc <setup_rom_contents+0x5e4>)
1000076c:	3104      	adds	r1, #4
1000076e:	5058      	str	r0, [r3, r1]
10000770:	48a3      	ldr	r0, [pc, #652]	; (10000a00 <setup_rom_contents+0x5e8>)
10000772:	3104      	adds	r1, #4
10000774:	505a      	str	r2, [r3, r1]
10000776:	3104      	adds	r1, #4
10000778:	5058      	str	r0, [r3, r1]
1000077a:	48a2      	ldr	r0, [pc, #648]	; (10000a04 <setup_rom_contents+0x5ec>)
1000077c:	3104      	adds	r1, #4
1000077e:	5058      	str	r0, [r3, r1]
10000780:	48a1      	ldr	r0, [pc, #644]	; (10000a08 <setup_rom_contents+0x5f0>)
10000782:	3104      	adds	r1, #4
10000784:	505a      	str	r2, [r3, r1]
10000786:	3104      	adds	r1, #4
10000788:	5058      	str	r0, [r3, r1]
1000078a:	48a0      	ldr	r0, [pc, #640]	; (10000a0c <setup_rom_contents+0x5f4>)
1000078c:	3104      	adds	r1, #4
1000078e:	5058      	str	r0, [r3, r1]
10000790:	3104      	adds	r1, #4
10000792:	505a      	str	r2, [r3, r1]
10000794:	229c      	movs	r2, #156	; 0x9c
10000796:	499e      	ldr	r1, [pc, #632]	; (10000a10 <setup_rom_contents+0x5f8>)
10000798:	0092      	lsls	r2, r2, #2
1000079a:	5099      	str	r1, [r3, r2]
1000079c:	499d      	ldr	r1, [pc, #628]	; (10000a14 <setup_rom_contents+0x5fc>)
1000079e:	3204      	adds	r2, #4
100007a0:	5099      	str	r1, [r3, r2]
100007a2:	499d      	ldr	r1, [pc, #628]	; (10000a18 <setup_rom_contents+0x600>)
100007a4:	3204      	adds	r2, #4
100007a6:	5099      	str	r1, [r3, r2]
100007a8:	499c      	ldr	r1, [pc, #624]	; (10000a1c <setup_rom_contents+0x604>)
100007aa:	3204      	adds	r2, #4
100007ac:	5099      	str	r1, [r3, r2]
100007ae:	499c      	ldr	r1, [pc, #624]	; (10000a20 <setup_rom_contents+0x608>)
100007b0:	489c      	ldr	r0, [pc, #624]	; (10000a24 <setup_rom_contents+0x60c>)
100007b2:	3204      	adds	r2, #4
100007b4:	5099      	str	r1, [r3, r2]
100007b6:	3204      	adds	r2, #4
100007b8:	5098      	str	r0, [r3, r2]
100007ba:	20a2      	movs	r0, #162	; 0xa2
100007bc:	4a9a      	ldr	r2, [pc, #616]	; (10000a28 <setup_rom_contents+0x610>)
100007be:	4c9b      	ldr	r4, [pc, #620]	; (10000a2c <setup_rom_contents+0x614>)
100007c0:	0080      	lsls	r0, r0, #2
100007c2:	501a      	str	r2, [r3, r0]
100007c4:	3004      	adds	r0, #4
100007c6:	501c      	str	r4, [r3, r0]
100007c8:	4c99      	ldr	r4, [pc, #612]	; (10000a30 <setup_rom_contents+0x618>)
100007ca:	3004      	adds	r0, #4
100007cc:	501c      	str	r4, [r3, r0]
100007ce:	4c99      	ldr	r4, [pc, #612]	; (10000a34 <setup_rom_contents+0x61c>)
100007d0:	4e99      	ldr	r6, [pc, #612]	; (10000a38 <setup_rom_contents+0x620>)
100007d2:	3004      	adds	r0, #4
100007d4:	501c      	str	r4, [r3, r0]
100007d6:	3004      	adds	r0, #4
100007d8:	501e      	str	r6, [r3, r0]
100007da:	4e98      	ldr	r6, [pc, #608]	; (10000a3c <setup_rom_contents+0x624>)
100007dc:	3004      	adds	r0, #4
100007de:	501e      	str	r6, [r3, r0]
100007e0:	26a8      	movs	r6, #168	; 0xa8
100007e2:	4897      	ldr	r0, [pc, #604]	; (10000a40 <setup_rom_contents+0x628>)
100007e4:	4f97      	ldr	r7, [pc, #604]	; (10000a44 <setup_rom_contents+0x62c>)
100007e6:	00b6      	lsls	r6, r6, #2
100007e8:	5198      	str	r0, [r3, r6]
100007ea:	3604      	adds	r6, #4
100007ec:	519f      	str	r7, [r3, r6]
100007ee:	4f96      	ldr	r7, [pc, #600]	; (10000a48 <setup_rom_contents+0x630>)
100007f0:	3604      	adds	r6, #4
100007f2:	519f      	str	r7, [r3, r6]
100007f4:	4f95      	ldr	r7, [pc, #596]	; (10000a4c <setup_rom_contents+0x634>)
100007f6:	3604      	adds	r6, #4
100007f8:	5199      	str	r1, [r3, r6]
100007fa:	3604      	adds	r6, #4
100007fc:	519f      	str	r7, [r3, r6]
100007fe:	4f94      	ldr	r7, [pc, #592]	; (10000a50 <setup_rom_contents+0x638>)
10000800:	3604      	adds	r6, #4
10000802:	519a      	str	r2, [r3, r6]
10000804:	3604      	adds	r6, #4
10000806:	519f      	str	r7, [r3, r6]
10000808:	4f92      	ldr	r7, [pc, #584]	; (10000a54 <setup_rom_contents+0x63c>)
1000080a:	3604      	adds	r6, #4
1000080c:	519f      	str	r7, [r3, r6]
1000080e:	4f92      	ldr	r7, [pc, #584]	; (10000a58 <setup_rom_contents+0x640>)
10000810:	3604      	adds	r6, #4
10000812:	519c      	str	r4, [r3, r6]
10000814:	3604      	adds	r6, #4
10000816:	519f      	str	r7, [r3, r6]
10000818:	e120      	b.n	10000a5c <setup_rom_contents+0x644>
1000081a:	46c0      	nop			; (mov r8, r8)
1000081c:	200003f0 	.word	0x200003f0
10000820:	00007ffa 	.word	0x00007ffa
10000824:	88f3207f 	.word	0x88f3207f
10000828:	00007ffc 	.word	0x00007ffc
1000082c:	a983a920 	.word	0xa983a920
10000830:	a9048501 	.word	0xa9048501
10000834:	a5058501 	.word	0xa5058501
10000838:	8d7fa978 	.word	0x8d7fa978
1000083c:	7ff08d05 	.word	0x7ff08d05
10000840:	f18d04a5 	.word	0xf18d04a5
10000844:	ffa97ffe 	.word	0xffa97ffe
10000848:	00a2587f 	.word	0x00a2587f
1000084c:	4c804a20 	.word	0x4c804a20
10000850:	a97ff28d 	.word	0xa97ff28d
10000854:	08bd8ab7 	.word	0x08bd8ab7
10000858:	f0ffc993 	.word	0xf0ffc993
1000085c:	7ff38dff 	.word	0x7ff38dff
10000860:	80642007 	.word	0x80642007
10000864:	804a4ce8 	.word	0x804a4ce8
10000868:	f08d00a9 	.word	0xf08d00a9
1000086c:	86a42060 	.word	0x86a42060
10000870:	04d00dc9 	.word	0x04d00dc9
10000874:	8d00a97f 	.word	0x8d00a97f
10000878:	81104c48 	.word	0x81104c48
1000087c:	a97fee8d 	.word	0xa97fee8d
10000880:	d008c948 	.word	0xd008c948
10000884:	7fe38dff 	.word	0x7fe38dff
10000888:	8d20a935 	.word	0x8d20a935
1000088c:	7fa97ff1 	.word	0x7fa97ff1
10000890:	e18d00a9 	.word	0xe18d00a9
10000894:	04c67f00 	.word	0x04c67f00
10000898:	00c904a5 	.word	0x00c904a5
1000089c:	874c05c6 	.word	0x874c05c6
100008a0:	05a511d0 	.word	0x05a511d0
100008a4:	09f001c9 	.word	0x09f001c9
100008a8:	8d05a505 	.word	0x8d05a505
100008ac:	048530a9 	.word	0x048530a9
100008b0:	04a57ff0 	.word	0x04a57ff0
100008b4:	a904e680 	.word	0xa904e680
100008b8:	7f008d20 	.word	0x7f008d20
100008bc:	f08d05a5 	.word	0xf08d05a5
100008c0:	8d04a57f 	.word	0x8d04a57f
100008c4:	4c7f008d 	.word	0x4c7f008d
100008c8:	851ca984 	.word	0x851ca984
100008cc:	0bc98110 	.word	0x0bc98110
100008d0:	0ec96e90 	.word	0x0ec96e90
100008d4:	11c96af0 	.word	0x11c96af0
100008d8:	80c966f0 	.word	0x80c966f0
100008dc:	91c962f0 	.word	0x91c962f0
100008e0:	93c95ef0 	.word	0x93c95ef0
100008e4:	ffc95af0 	.word	0xffc95af0
100008e8:	0dc956f0 	.word	0x0dc956f0
100008ec:	20a92dd0 	.word	0x20a92dd0
100008f0:	a97f008d 	.word	0xa97f008d
100008f4:	e6048501 	.word	0xe6048501
100008f8:	c905a505 	.word	0xc905a505
100008fc:	200ad01d 	.word	0x200ad01d
10000900:	8c208275 	.word	0x8c208275
10000904:	a97ff18d 	.word	0xa97ff18d
10000908:	7f008d7f 	.word	0x7f008d7f
1000090c:	8d81104c 	.word	0x8d81104c
10000910:	06857f00 	.word	0x06857f00
10000914:	e6812020 	.word	0xe6812020
10000918:	c531a904 	.word	0xc531a904
1000091c:	ffffd004 	.word	0xffffd004
10000920:	60186068 	.word	0x60186068
10000924:	ffa9607f 	.word	0xffa9607f
10000928:	607fe18d 	.word	0x607fe18d
1000092c:	04a605a5 	.word	0x04a605a5
10000930:	08d001c9 	.word	0x08d001c9
10000934:	009d06a5 	.word	0x009d06a5
10000938:	82744c51 	.word	0x82744c51
1000093c:	08d002c9 	.word	0x08d002c9
10000940:	82744c52 	.word	0x82744c52
10000944:	08d003c9 	.word	0x08d003c9
10000948:	82744c53 	.word	0x82744c53
1000094c:	08d004c9 	.word	0x08d004c9
10000950:	82744c54 	.word	0x82744c54
10000954:	08d005c9 	.word	0x08d005c9
10000958:	82744c55 	.word	0x82744c55
1000095c:	08d006c9 	.word	0x08d006c9
10000960:	82744c56 	.word	0x82744c56
10000964:	08d007c9 	.word	0x08d007c9
10000968:	82744c57 	.word	0x82744c57
1000096c:	08d008c9 	.word	0x08d008c9
10000970:	82744c58 	.word	0x82744c58
10000974:	08d009c9 	.word	0x08d009c9
10000978:	82744c59 	.word	0x82744c59
1000097c:	08d00ac9 	.word	0x08d00ac9
10000980:	82744c5a 	.word	0x82744c5a
10000984:	08d00bc9 	.word	0x08d00bc9
10000988:	82744c5b 	.word	0x82744c5b
1000098c:	08d00cc9 	.word	0x08d00cc9
10000990:	82744c5c 	.word	0x82744c5c
10000994:	08d00dc9 	.word	0x08d00dc9
10000998:	82744c5d 	.word	0x82744c5d
1000099c:	08d00ec9 	.word	0x08d00ec9
100009a0:	82744c5e 	.word	0x82744c5e
100009a4:	08d00fc9 	.word	0x08d00fc9
100009a8:	82744c5f 	.word	0x82744c5f
100009ac:	08d010c9 	.word	0x08d010c9
100009b0:	82744c60 	.word	0x82744c60
100009b4:	08d011c9 	.word	0x08d011c9
100009b8:	82744c61 	.word	0x82744c61
100009bc:	000012c9 	.word	0x000012c9
100009c0:	82744c62 	.word	0x82744c62
100009c4:	08d013c9 	.word	0x08d013c9
100009c8:	82744c63 	.word	0x82744c63
100009cc:	08d014c9 	.word	0x08d014c9
100009d0:	82744c64 	.word	0x82744c64
100009d4:	08d015c9 	.word	0x08d015c9
100009d8:	82744c65 	.word	0x82744c65
100009dc:	08d016c9 	.word	0x08d016c9
100009e0:	82744c66 	.word	0x82744c66
100009e4:	08d017c9 	.word	0x08d017c9
100009e8:	82744c67 	.word	0x82744c67
100009ec:	08d018c9 	.word	0x08d018c9
100009f0:	82744c68 	.word	0x82744c68
100009f4:	08d019c9 	.word	0x08d019c9
100009f8:	82744c69 	.word	0x82744c69
100009fc:	08d01ac9 	.word	0x08d01ac9
10000a00:	82744c6a 	.word	0x82744c6a
10000a04:	08d01bc9 	.word	0x08d01bc9
10000a08:	82744c6b 	.word	0x82744c6b
10000a0c:	08d01cc9 	.word	0x08d01cc9
10000a10:	82744c6c 	.word	0x82744c6c
10000a14:	bd30a260 	.word	0xbd30a260
10000a18:	009d5200 	.word	0x009d5200
10000a1c:	f7d0ca51 	.word	0xf7d0ca51
10000a20:	00bd30a2 	.word	0x00bd30a2
10000a24:	52009d53 	.word	0x52009d53
10000a28:	a2f7d0ca 	.word	0xa2f7d0ca
10000a2c:	5400bd30 	.word	0x5400bd30
10000a30:	ca53009d 	.word	0xca53009d
10000a34:	30a2f7d0 	.word	0x30a2f7d0
10000a38:	9d5500bd 	.word	0x9d5500bd
10000a3c:	d0ca5400 	.word	0xd0ca5400
10000a40:	bd30a2f7 	.word	0xbd30a2f7
10000a44:	009d5600 	.word	0x009d5600
10000a48:	f7d0ca55 	.word	0xf7d0ca55
10000a4c:	56009d57 	.word	0x56009d57
10000a50:	5800bd30 	.word	0x5800bd30
10000a54:	ca57009d 	.word	0xca57009d
10000a58:	9d5900bd 	.word	0x9d5900bd
10000a5c:	4ffe      	ldr	r7, [pc, #1016]	; (10000e58 <setup_rom_contents+0xa40>)
10000a5e:	3604      	adds	r6, #4
10000a60:	519f      	str	r7, [r3, r6]
10000a62:	4ffe      	ldr	r7, [pc, #1016]	; (10000e5c <setup_rom_contents+0xa44>)
10000a64:	3604      	adds	r6, #4
10000a66:	5198      	str	r0, [r3, r6]
10000a68:	3604      	adds	r6, #4
10000a6a:	519f      	str	r7, [r3, r6]
10000a6c:	4ffc      	ldr	r7, [pc, #1008]	; (10000e60 <setup_rom_contents+0xa48>)
10000a6e:	3604      	adds	r6, #4
10000a70:	519f      	str	r7, [r3, r6]
10000a72:	4ffc      	ldr	r7, [pc, #1008]	; (10000e64 <setup_rom_contents+0xa4c>)
10000a74:	3604      	adds	r6, #4
10000a76:	5199      	str	r1, [r3, r6]
10000a78:	3604      	adds	r6, #4
10000a7a:	519f      	str	r7, [r3, r6]
10000a7c:	4ffa      	ldr	r7, [pc, #1000]	; (10000e68 <setup_rom_contents+0xa50>)
10000a7e:	3604      	adds	r6, #4
10000a80:	519a      	str	r2, [r3, r6]
10000a82:	3604      	adds	r6, #4
10000a84:	519f      	str	r7, [r3, r6]
10000a86:	279d      	movs	r7, #157	; 0x9d
10000a88:	3604      	adds	r6, #4
10000a8a:	539f      	strh	r7, [r3, r6]
10000a8c:	4ef7      	ldr	r6, [pc, #988]	; (10000e6c <setup_rom_contents+0xa54>)
10000a8e:	3f42      	subs	r7, #66	; 0x42
10000a90:	559f      	strb	r7, [r3, r6]
10000a92:	4ef7      	ldr	r6, [pc, #988]	; (10000e70 <setup_rom_contents+0xa58>)
10000a94:	376f      	adds	r7, #111	; 0x6f
10000a96:	559f      	strb	r7, [r3, r6]
10000a98:	4ff6      	ldr	r7, [pc, #984]	; (10000e74 <setup_rom_contents+0xa5c>)
10000a9a:	3601      	adds	r6, #1
10000a9c:	519c      	str	r4, [r3, r6]
10000a9e:	3604      	adds	r6, #4
10000aa0:	519f      	str	r7, [r3, r6]
10000aa2:	4ff5      	ldr	r7, [pc, #980]	; (10000e78 <setup_rom_contents+0xa60>)
10000aa4:	3604      	adds	r6, #4
10000aa6:	519f      	str	r7, [r3, r6]
10000aa8:	4ff4      	ldr	r7, [pc, #976]	; (10000e7c <setup_rom_contents+0xa64>)
10000aaa:	3604      	adds	r6, #4
10000aac:	5198      	str	r0, [r3, r6]
10000aae:	3604      	adds	r6, #4
10000ab0:	519f      	str	r7, [r3, r6]
10000ab2:	4ff3      	ldr	r7, [pc, #972]	; (10000e80 <setup_rom_contents+0xa68>)
10000ab4:	3604      	adds	r6, #4
10000ab6:	519f      	str	r7, [r3, r6]
10000ab8:	4ff2      	ldr	r7, [pc, #968]	; (10000e84 <setup_rom_contents+0xa6c>)
10000aba:	3604      	adds	r6, #4
10000abc:	5199      	str	r1, [r3, r6]
10000abe:	3604      	adds	r6, #4
10000ac0:	519f      	str	r7, [r3, r6]
10000ac2:	4ff1      	ldr	r7, [pc, #964]	; (10000e88 <setup_rom_contents+0xa70>)
10000ac4:	3604      	adds	r6, #4
10000ac6:	519a      	str	r2, [r3, r6]
10000ac8:	3604      	adds	r6, #4
10000aca:	519f      	str	r7, [r3, r6]
10000acc:	4fef      	ldr	r7, [pc, #956]	; (10000e8c <setup_rom_contents+0xa74>)
10000ace:	3604      	adds	r6, #4
10000ad0:	519f      	str	r7, [r3, r6]
10000ad2:	4fef      	ldr	r7, [pc, #956]	; (10000e90 <setup_rom_contents+0xa78>)
10000ad4:	3604      	adds	r6, #4
10000ad6:	519c      	str	r4, [r3, r6]
10000ad8:	3604      	adds	r6, #4
10000ada:	519f      	str	r7, [r3, r6]
10000adc:	4fed      	ldr	r7, [pc, #948]	; (10000e94 <setup_rom_contents+0xa7c>)
10000ade:	3604      	adds	r6, #4
10000ae0:	519f      	str	r7, [r3, r6]
10000ae2:	4fed      	ldr	r7, [pc, #948]	; (10000e98 <setup_rom_contents+0xa80>)
10000ae4:	3604      	adds	r6, #4
10000ae6:	5198      	str	r0, [r3, r6]
10000ae8:	3604      	adds	r6, #4
10000aea:	519f      	str	r7, [r3, r6]
10000aec:	4feb      	ldr	r7, [pc, #940]	; (10000e9c <setup_rom_contents+0xa84>)
10000aee:	3604      	adds	r6, #4
10000af0:	519f      	str	r7, [r3, r6]
10000af2:	4feb      	ldr	r7, [pc, #940]	; (10000ea0 <setup_rom_contents+0xa88>)
10000af4:	3604      	adds	r6, #4
10000af6:	5199      	str	r1, [r3, r6]
10000af8:	3604      	adds	r6, #4
10000afa:	519f      	str	r7, [r3, r6]
10000afc:	4fe9      	ldr	r7, [pc, #932]	; (10000ea4 <setup_rom_contents+0xa8c>)
10000afe:	3604      	adds	r6, #4
10000b00:	519a      	str	r2, [r3, r6]
10000b02:	3604      	adds	r6, #4
10000b04:	519f      	str	r7, [r3, r6]
10000b06:	4fe8      	ldr	r7, [pc, #928]	; (10000ea8 <setup_rom_contents+0xa90>)
10000b08:	3604      	adds	r6, #4
10000b0a:	519f      	str	r7, [r3, r6]
10000b0c:	4fe7      	ldr	r7, [pc, #924]	; (10000eac <setup_rom_contents+0xa94>)
10000b0e:	3604      	adds	r6, #4
10000b10:	519c      	str	r4, [r3, r6]
10000b12:	3604      	adds	r6, #4
10000b14:	519f      	str	r7, [r3, r6]
10000b16:	4fe6      	ldr	r7, [pc, #920]	; (10000eb0 <setup_rom_contents+0xa98>)
10000b18:	3604      	adds	r6, #4
10000b1a:	519f      	str	r7, [r3, r6]
10000b1c:	4fe5      	ldr	r7, [pc, #916]	; (10000eb4 <setup_rom_contents+0xa9c>)
10000b1e:	3604      	adds	r6, #4
10000b20:	5198      	str	r0, [r3, r6]
10000b22:	3604      	adds	r6, #4
10000b24:	519f      	str	r7, [r3, r6]
10000b26:	4fe4      	ldr	r7, [pc, #912]	; (10000eb8 <setup_rom_contents+0xaa0>)
10000b28:	3604      	adds	r6, #4
10000b2a:	519f      	str	r7, [r3, r6]
10000b2c:	4fe3      	ldr	r7, [pc, #908]	; (10000ebc <setup_rom_contents+0xaa4>)
10000b2e:	3604      	adds	r6, #4
10000b30:	5199      	str	r1, [r3, r6]
10000b32:	3604      	adds	r6, #4
10000b34:	519f      	str	r7, [r3, r6]
10000b36:	4fe2      	ldr	r7, [pc, #904]	; (10000ec0 <setup_rom_contents+0xaa8>)
10000b38:	3604      	adds	r6, #4
10000b3a:	519a      	str	r2, [r3, r6]
10000b3c:	3604      	adds	r6, #4
10000b3e:	519f      	str	r7, [r3, r6]
10000b40:	4fe0      	ldr	r7, [pc, #896]	; (10000ec4 <setup_rom_contents+0xaac>)
10000b42:	3604      	adds	r6, #4
10000b44:	519f      	str	r7, [r3, r6]
10000b46:	3604      	adds	r6, #4
10000b48:	519c      	str	r4, [r3, r6]
10000b4a:	24dd      	movs	r4, #221	; 0xdd
10000b4c:	4ede      	ldr	r6, [pc, #888]	; (10000ec8 <setup_rom_contents+0xab0>)
10000b4e:	00a4      	lsls	r4, r4, #2
10000b50:	511e      	str	r6, [r3, r4]
10000b52:	4ede      	ldr	r6, [pc, #888]	; (10000ecc <setup_rom_contents+0xab4>)
10000b54:	3404      	adds	r4, #4
10000b56:	511e      	str	r6, [r3, r4]
10000b58:	3404      	adds	r4, #4
10000b5a:	5118      	str	r0, [r3, r4]
10000b5c:	20e0      	movs	r0, #224	; 0xe0
10000b5e:	4cdc      	ldr	r4, [pc, #880]	; (10000ed0 <setup_rom_contents+0xab8>)
10000b60:	0080      	lsls	r0, r0, #2
10000b62:	501c      	str	r4, [r3, r0]
10000b64:	4cdb      	ldr	r4, [pc, #876]	; (10000ed4 <setup_rom_contents+0xabc>)
10000b66:	3004      	adds	r0, #4
10000b68:	501c      	str	r4, [r3, r0]
10000b6a:	3004      	adds	r0, #4
10000b6c:	5019      	str	r1, [r3, r0]
10000b6e:	21e3      	movs	r1, #227	; 0xe3
10000b70:	48d9      	ldr	r0, [pc, #868]	; (10000ed8 <setup_rom_contents+0xac0>)
10000b72:	0089      	lsls	r1, r1, #2
10000b74:	5058      	str	r0, [r3, r1]
10000b76:	3104      	adds	r1, #4
10000b78:	505a      	str	r2, [r3, r1]
10000b7a:	22e5      	movs	r2, #229	; 0xe5
10000b7c:	49d7      	ldr	r1, [pc, #860]	; (10000edc <setup_rom_contents+0xac4>)
10000b7e:	0092      	lsls	r2, r2, #2
10000b80:	5099      	str	r1, [r3, r2]
10000b82:	49d7      	ldr	r1, [pc, #860]	; (10000ee0 <setup_rom_contents+0xac8>)
10000b84:	3204      	adds	r2, #4
10000b86:	5099      	str	r1, [r3, r2]
10000b88:	49d6      	ldr	r1, [pc, #856]	; (10000ee4 <setup_rom_contents+0xacc>)
10000b8a:	3204      	adds	r2, #4
10000b8c:	5099      	str	r1, [r3, r2]
10000b8e:	49d6      	ldr	r1, [pc, #856]	; (10000ee8 <setup_rom_contents+0xad0>)
10000b90:	3204      	adds	r2, #4
10000b92:	5099      	str	r1, [r3, r2]
10000b94:	49d5      	ldr	r1, [pc, #852]	; (10000eec <setup_rom_contents+0xad4>)
10000b96:	3204      	adds	r2, #4
10000b98:	5099      	str	r1, [r3, r2]
10000b9a:	49d5      	ldr	r1, [pc, #852]	; (10000ef0 <setup_rom_contents+0xad8>)
10000b9c:	3204      	adds	r2, #4
10000b9e:	5099      	str	r1, [r3, r2]
10000ba0:	49d4      	ldr	r1, [pc, #848]	; (10000ef4 <setup_rom_contents+0xadc>)
10000ba2:	3204      	adds	r2, #4
10000ba4:	5099      	str	r1, [r3, r2]
10000ba6:	21ec      	movs	r1, #236	; 0xec
10000ba8:	4ad3      	ldr	r2, [pc, #844]	; (10000ef8 <setup_rom_contents+0xae0>)
10000baa:	48d4      	ldr	r0, [pc, #848]	; (10000efc <setup_rom_contents+0xae4>)
10000bac:	0089      	lsls	r1, r1, #2
10000bae:	505a      	str	r2, [r3, r1]
10000bb0:	3104      	adds	r1, #4
10000bb2:	5058      	str	r0, [r3, r1]
10000bb4:	48d2      	ldr	r0, [pc, #840]	; (10000f00 <setup_rom_contents+0xae8>)
10000bb6:	3104      	adds	r1, #4
10000bb8:	505a      	str	r2, [r3, r1]
10000bba:	3104      	adds	r1, #4
10000bbc:	5058      	str	r0, [r3, r1]
10000bbe:	48d1      	ldr	r0, [pc, #836]	; (10000f04 <setup_rom_contents+0xaec>)
10000bc0:	3104      	adds	r1, #4
10000bc2:	505a      	str	r2, [r3, r1]
10000bc4:	3104      	adds	r1, #4
10000bc6:	5058      	str	r0, [r3, r1]
10000bc8:	48cf      	ldr	r0, [pc, #828]	; (10000f08 <setup_rom_contents+0xaf0>)
10000bca:	3104      	adds	r1, #4
10000bcc:	505a      	str	r2, [r3, r1]
10000bce:	3104      	adds	r1, #4
10000bd0:	5058      	str	r0, [r3, r1]
10000bd2:	48ce      	ldr	r0, [pc, #824]	; (10000f0c <setup_rom_contents+0xaf4>)
10000bd4:	3104      	adds	r1, #4
10000bd6:	505a      	str	r2, [r3, r1]
10000bd8:	3104      	adds	r1, #4
10000bda:	5058      	str	r0, [r3, r1]
10000bdc:	48cc      	ldr	r0, [pc, #816]	; (10000f10 <setup_rom_contents+0xaf8>)
10000bde:	3104      	adds	r1, #4
10000be0:	505a      	str	r2, [r3, r1]
10000be2:	3104      	adds	r1, #4
10000be4:	5058      	str	r0, [r3, r1]
10000be6:	48cb      	ldr	r0, [pc, #812]	; (10000f14 <setup_rom_contents+0xafc>)
10000be8:	3104      	adds	r1, #4
10000bea:	5258      	strh	r0, [r3, r1]
10000bec:	20a2      	movs	r0, #162	; 0xa2
10000bee:	49ca      	ldr	r1, [pc, #808]	; (10000f18 <setup_rom_contents+0xb00>)
10000bf0:	4fca      	ldr	r7, [pc, #808]	; (10000f1c <setup_rom_contents+0xb04>)
10000bf2:	545d      	strb	r5, [r3, r1]
10000bf4:	49ca      	ldr	r1, [pc, #808]	; (10000f20 <setup_rom_contents+0xb08>)
10000bf6:	4ecb      	ldr	r6, [pc, #812]	; (10000f24 <setup_rom_contents+0xb0c>)
10000bf8:	5458      	strb	r0, [r3, r1]
10000bfa:	48cb      	ldr	r0, [pc, #812]	; (10000f28 <setup_rom_contents+0xb10>)
10000bfc:	3101      	adds	r1, #1
10000bfe:	5058      	str	r0, [r3, r1]
10000c00:	48ca      	ldr	r0, [pc, #808]	; (10000f2c <setup_rom_contents+0xb14>)
10000c02:	3104      	adds	r1, #4
10000c04:	505a      	str	r2, [r3, r1]
10000c06:	3104      	adds	r1, #4
10000c08:	5058      	str	r0, [r3, r1]
10000c0a:	48c9      	ldr	r0, [pc, #804]	; (10000f30 <setup_rom_contents+0xb18>)
10000c0c:	3104      	adds	r1, #4
10000c0e:	505a      	str	r2, [r3, r1]
10000c10:	3104      	adds	r1, #4
10000c12:	5058      	str	r0, [r3, r1]
10000c14:	48c7      	ldr	r0, [pc, #796]	; (10000f34 <setup_rom_contents+0xb1c>)
10000c16:	3104      	adds	r1, #4
10000c18:	505a      	str	r2, [r3, r1]
10000c1a:	3104      	adds	r1, #4
10000c1c:	5058      	str	r0, [r3, r1]
10000c1e:	3104      	adds	r1, #4
10000c20:	505a      	str	r2, [r3, r1]
10000c22:	48c5      	ldr	r0, [pc, #788]	; (10000f38 <setup_rom_contents+0xb20>)
10000c24:	49c5      	ldr	r1, [pc, #788]	; (10000f3c <setup_rom_contents+0xb24>)
10000c26:	4dc6      	ldr	r5, [pc, #792]	; (10000f40 <setup_rom_contents+0xb28>)
10000c28:	5058      	str	r0, [r3, r1]
10000c2a:	3104      	adds	r1, #4
10000c2c:	505a      	str	r2, [r3, r1]
10000c2e:	48c5      	ldr	r0, [pc, #788]	; (10000f44 <setup_rom_contents+0xb2c>)
10000c30:	49c5      	ldr	r1, [pc, #788]	; (10000f48 <setup_rom_contents+0xb30>)
10000c32:	4cc6      	ldr	r4, [pc, #792]	; (10000f4c <setup_rom_contents+0xb34>)
10000c34:	5058      	str	r0, [r3, r1]
10000c36:	3104      	adds	r1, #4
10000c38:	505a      	str	r2, [r3, r1]
10000c3a:	48c5      	ldr	r0, [pc, #788]	; (10000f50 <setup_rom_contents+0xb38>)
10000c3c:	49c5      	ldr	r1, [pc, #788]	; (10000f54 <setup_rom_contents+0xb3c>)
10000c3e:	5058      	str	r0, [r3, r1]
10000c40:	3104      	adds	r1, #4
10000c42:	505a      	str	r2, [r3, r1]
10000c44:	48c4      	ldr	r0, [pc, #784]	; (10000f58 <setup_rom_contents+0xb40>)
10000c46:	49c5      	ldr	r1, [pc, #788]	; (10000f5c <setup_rom_contents+0xb44>)
10000c48:	5058      	str	r0, [r3, r1]
10000c4a:	3104      	adds	r1, #4
10000c4c:	505a      	str	r2, [r3, r1]
10000c4e:	48c4      	ldr	r0, [pc, #784]	; (10000f60 <setup_rom_contents+0xb48>)
10000c50:	49c4      	ldr	r1, [pc, #784]	; (10000f64 <setup_rom_contents+0xb4c>)
10000c52:	5058      	str	r0, [r3, r1]
10000c54:	3104      	adds	r1, #4
10000c56:	505a      	str	r2, [r3, r1]
10000c58:	48c3      	ldr	r0, [pc, #780]	; (10000f68 <setup_rom_contents+0xb50>)
10000c5a:	49c4      	ldr	r1, [pc, #784]	; (10000f6c <setup_rom_contents+0xb54>)
10000c5c:	5058      	str	r0, [r3, r1]
10000c5e:	3104      	adds	r1, #4
10000c60:	505a      	str	r2, [r3, r1]
10000c62:	48c3      	ldr	r0, [pc, #780]	; (10000f70 <setup_rom_contents+0xb58>)
10000c64:	49c3      	ldr	r1, [pc, #780]	; (10000f74 <setup_rom_contents+0xb5c>)
10000c66:	5058      	str	r0, [r3, r1]
10000c68:	3104      	adds	r1, #4
10000c6a:	505a      	str	r2, [r3, r1]
10000c6c:	48c2      	ldr	r0, [pc, #776]	; (10000f78 <setup_rom_contents+0xb60>)
10000c6e:	49c3      	ldr	r1, [pc, #780]	; (10000f7c <setup_rom_contents+0xb64>)
10000c70:	5058      	str	r0, [r3, r1]
10000c72:	3104      	adds	r1, #4
10000c74:	505a      	str	r2, [r3, r1]
10000c76:	48c2      	ldr	r0, [pc, #776]	; (10000f80 <setup_rom_contents+0xb68>)
10000c78:	49c2      	ldr	r1, [pc, #776]	; (10000f84 <setup_rom_contents+0xb6c>)
10000c7a:	5058      	str	r0, [r3, r1]
10000c7c:	3104      	adds	r1, #4
10000c7e:	505a      	str	r2, [r3, r1]
10000c80:	48c1      	ldr	r0, [pc, #772]	; (10000f88 <setup_rom_contents+0xb70>)
10000c82:	49c2      	ldr	r1, [pc, #776]	; (10000f8c <setup_rom_contents+0xb74>)
10000c84:	5058      	str	r0, [r3, r1]
10000c86:	3104      	adds	r1, #4
10000c88:	505a      	str	r2, [r3, r1]
10000c8a:	48c1      	ldr	r0, [pc, #772]	; (10000f90 <setup_rom_contents+0xb78>)
10000c8c:	49c1      	ldr	r1, [pc, #772]	; (10000f94 <setup_rom_contents+0xb7c>)
10000c8e:	5058      	str	r0, [r3, r1]
10000c90:	3104      	adds	r1, #4
10000c92:	505a      	str	r2, [r3, r1]
10000c94:	48c0      	ldr	r0, [pc, #768]	; (10000f98 <setup_rom_contents+0xb80>)
10000c96:	49c1      	ldr	r1, [pc, #772]	; (10000f9c <setup_rom_contents+0xb84>)
10000c98:	5058      	str	r0, [r3, r1]
10000c9a:	3104      	adds	r1, #4
10000c9c:	505a      	str	r2, [r3, r1]
10000c9e:	48c0      	ldr	r0, [pc, #768]	; (10000fa0 <setup_rom_contents+0xb88>)
10000ca0:	49c0      	ldr	r1, [pc, #768]	; (10000fa4 <setup_rom_contents+0xb8c>)
10000ca2:	5058      	str	r0, [r3, r1]
10000ca4:	3104      	adds	r1, #4
10000ca6:	505a      	str	r2, [r3, r1]
10000ca8:	48bf      	ldr	r0, [pc, #764]	; (10000fa8 <setup_rom_contents+0xb90>)
10000caa:	49c0      	ldr	r1, [pc, #768]	; (10000fac <setup_rom_contents+0xb94>)
10000cac:	5058      	str	r0, [r3, r1]
10000cae:	3104      	adds	r1, #4
10000cb0:	505a      	str	r2, [r3, r1]
10000cb2:	48bf      	ldr	r0, [pc, #764]	; (10000fb0 <setup_rom_contents+0xb98>)
10000cb4:	49bf      	ldr	r1, [pc, #764]	; (10000fb4 <setup_rom_contents+0xb9c>)
10000cb6:	5058      	str	r0, [r3, r1]
10000cb8:	3104      	adds	r1, #4
10000cba:	505a      	str	r2, [r3, r1]
10000cbc:	48be      	ldr	r0, [pc, #760]	; (10000fb8 <setup_rom_contents+0xba0>)
10000cbe:	49bf      	ldr	r1, [pc, #764]	; (10000fbc <setup_rom_contents+0xba4>)
10000cc0:	5058      	str	r0, [r3, r1]
10000cc2:	3104      	adds	r1, #4
10000cc4:	505a      	str	r2, [r3, r1]
10000cc6:	4abe      	ldr	r2, [pc, #760]	; (10000fc0 <setup_rom_contents+0xba8>)
10000cc8:	49be      	ldr	r1, [pc, #760]	; (10000fc4 <setup_rom_contents+0xbac>)
10000cca:	48bf      	ldr	r0, [pc, #764]	; (10000fc8 <setup_rom_contents+0xbb0>)
10000ccc:	5099      	str	r1, [r3, r2]
10000cce:	49bf      	ldr	r1, [pc, #764]	; (10000fcc <setup_rom_contents+0xbb4>)
10000cd0:	3204      	adds	r2, #4
10000cd2:	5099      	str	r1, [r3, r2]
10000cd4:	4abe      	ldr	r2, [pc, #760]	; (10000fd0 <setup_rom_contents+0xbb8>)
10000cd6:	49bf      	ldr	r1, [pc, #764]	; (10000fd4 <setup_rom_contents+0xbbc>)
10000cd8:	5099      	str	r1, [r3, r2]
10000cda:	4abf      	ldr	r2, [pc, #764]	; (10000fd8 <setup_rom_contents+0xbc0>)
10000cdc:	4690      	mov	r8, r2
10000cde:	2292      	movs	r2, #146	; 0x92
10000ce0:	4641      	mov	r1, r8
10000ce2:	00d2      	lsls	r2, r2, #3
10000ce4:	5099      	str	r1, [r3, r2]
10000ce6:	4abd      	ldr	r2, [pc, #756]	; (10000fdc <setup_rom_contents+0xbc4>)
10000ce8:	4694      	mov	ip, r2
10000cea:	4661      	mov	r1, ip
10000cec:	4abc      	ldr	r2, [pc, #752]	; (10000fe0 <setup_rom_contents+0xbc8>)
10000cee:	5099      	str	r1, [r3, r2]
10000cf0:	49bc      	ldr	r1, [pc, #752]	; (10000fe4 <setup_rom_contents+0xbcc>)
10000cf2:	3204      	adds	r2, #4
10000cf4:	5099      	str	r1, [r3, r2]
10000cf6:	4abc      	ldr	r2, [pc, #752]	; (10000fe8 <setup_rom_contents+0xbd0>)
10000cf8:	49bc      	ldr	r1, [pc, #752]	; (10000fec <setup_rom_contents+0xbd4>)
10000cfa:	509f      	str	r7, [r3, r2]
10000cfc:	3204      	adds	r2, #4
10000cfe:	5099      	str	r1, [r3, r2]
10000d00:	4abb      	ldr	r2, [pc, #748]	; (10000ff0 <setup_rom_contents+0xbd8>)
10000d02:	49bc      	ldr	r1, [pc, #752]	; (10000ff4 <setup_rom_contents+0xbdc>)
10000d04:	509e      	str	r6, [r3, r2]
10000d06:	3204      	adds	r2, #4
10000d08:	5099      	str	r1, [r3, r2]
10000d0a:	4abb      	ldr	r2, [pc, #748]	; (10000ff8 <setup_rom_contents+0xbe0>)
10000d0c:	49bb      	ldr	r1, [pc, #748]	; (10000ffc <setup_rom_contents+0xbe4>)
10000d0e:	509d      	str	r5, [r3, r2]
10000d10:	3204      	adds	r2, #4
10000d12:	5099      	str	r1, [r3, r2]
10000d14:	4aba      	ldr	r2, [pc, #744]	; (10001000 <setup_rom_contents+0xbe8>)
10000d16:	49bb      	ldr	r1, [pc, #748]	; (10001004 <setup_rom_contents+0xbec>)
10000d18:	509c      	str	r4, [r3, r2]
10000d1a:	3204      	adds	r2, #4
10000d1c:	5098      	str	r0, [r3, r2]
10000d1e:	4aba      	ldr	r2, [pc, #744]	; (10001008 <setup_rom_contents+0xbf0>)
10000d20:	5099      	str	r1, [r3, r2]
10000d22:	49ba      	ldr	r1, [pc, #744]	; (1000100c <setup_rom_contents+0xbf4>)
10000d24:	3204      	adds	r2, #4
10000d26:	5099      	str	r1, [r3, r2]
10000d28:	4ab9      	ldr	r2, [pc, #740]	; (10001010 <setup_rom_contents+0xbf8>)
10000d2a:	49ba      	ldr	r1, [pc, #744]	; (10001014 <setup_rom_contents+0xbfc>)
10000d2c:	5099      	str	r1, [r3, r2]
10000d2e:	49ba      	ldr	r1, [pc, #744]	; (10001018 <setup_rom_contents+0xc00>)
10000d30:	3204      	adds	r2, #4
10000d32:	5099      	str	r1, [r3, r2]
10000d34:	4ab9      	ldr	r2, [pc, #740]	; (1000101c <setup_rom_contents+0xc04>)
10000d36:	4693      	mov	fp, r2
10000d38:	4659      	mov	r1, fp
10000d3a:	4ab9      	ldr	r2, [pc, #740]	; (10001020 <setup_rom_contents+0xc08>)
10000d3c:	5099      	str	r1, [r3, r2]
10000d3e:	49b9      	ldr	r1, [pc, #740]	; (10001024 <setup_rom_contents+0xc0c>)
10000d40:	3204      	adds	r2, #4
10000d42:	5099      	str	r1, [r3, r2]
10000d44:	49b8      	ldr	r1, [pc, #736]	; (10001028 <setup_rom_contents+0xc10>)
10000d46:	4ab9      	ldr	r2, [pc, #740]	; (1000102c <setup_rom_contents+0xc14>)
10000d48:	505a      	str	r2, [r3, r1]
10000d4a:	4ab9      	ldr	r2, [pc, #740]	; (10001030 <setup_rom_contents+0xc18>)
10000d4c:	3104      	adds	r1, #4
10000d4e:	525a      	strh	r2, [r3, r1]
10000d50:	218d      	movs	r1, #141	; 0x8d
10000d52:	4ab8      	ldr	r2, [pc, #736]	; (10001034 <setup_rom_contents+0xc1c>)
10000d54:	5499      	strb	r1, [r3, r2]
10000d56:	4649      	mov	r1, r9
10000d58:	4ab7      	ldr	r2, [pc, #732]	; (10001038 <setup_rom_contents+0xc20>)
10000d5a:	5499      	strb	r1, [r3, r2]
10000d5c:	4641      	mov	r1, r8
10000d5e:	4ab7      	ldr	r2, [pc, #732]	; (1000103c <setup_rom_contents+0xc24>)
10000d60:	5099      	str	r1, [r3, r2]
10000d62:	4661      	mov	r1, ip
10000d64:	3204      	adds	r2, #4
10000d66:	5099      	str	r1, [r3, r2]
10000d68:	4ab5      	ldr	r2, [pc, #724]	; (10001040 <setup_rom_contents+0xc28>)
10000d6a:	4691      	mov	r9, r2
10000d6c:	4ab5      	ldr	r2, [pc, #724]	; (10001044 <setup_rom_contents+0xc2c>)
10000d6e:	4692      	mov	sl, r2
10000d70:	464a      	mov	r2, r9
10000d72:	4651      	mov	r1, sl
10000d74:	5099      	str	r1, [r3, r2]
10000d76:	3204      	adds	r2, #4
10000d78:	509f      	str	r7, [r3, r2]
10000d7a:	4ab3      	ldr	r2, [pc, #716]	; (10001048 <setup_rom_contents+0xc30>)
10000d7c:	4691      	mov	r9, r2
10000d7e:	4ab3      	ldr	r2, [pc, #716]	; (1000104c <setup_rom_contents+0xc34>)
10000d80:	4692      	mov	sl, r2
10000d82:	464a      	mov	r2, r9
10000d84:	4651      	mov	r1, sl
10000d86:	5099      	str	r1, [r3, r2]
10000d88:	3204      	adds	r2, #4
10000d8a:	509e      	str	r6, [r3, r2]
10000d8c:	4ab0      	ldr	r2, [pc, #704]	; (10001050 <setup_rom_contents+0xc38>)
10000d8e:	4691      	mov	r9, r2
10000d90:	4ab0      	ldr	r2, [pc, #704]	; (10001054 <setup_rom_contents+0xc3c>)
10000d92:	4692      	mov	sl, r2
10000d94:	464a      	mov	r2, r9
10000d96:	4651      	mov	r1, sl
10000d98:	5099      	str	r1, [r3, r2]
10000d9a:	3204      	adds	r2, #4
10000d9c:	509d      	str	r5, [r3, r2]
10000d9e:	4aae      	ldr	r2, [pc, #696]	; (10001058 <setup_rom_contents+0xc40>)
10000da0:	4691      	mov	r9, r2
10000da2:	4aae      	ldr	r2, [pc, #696]	; (1000105c <setup_rom_contents+0xc44>)
10000da4:	4692      	mov	sl, r2
10000da6:	464a      	mov	r2, r9
10000da8:	4651      	mov	r1, sl
10000daa:	5099      	str	r1, [r3, r2]
10000dac:	3204      	adds	r2, #4
10000dae:	509c      	str	r4, [r3, r2]
10000db0:	4aab      	ldr	r2, [pc, #684]	; (10001060 <setup_rom_contents+0xc48>)
10000db2:	5098      	str	r0, [r3, r2]
10000db4:	3204      	adds	r2, #4
10000db6:	4691      	mov	r9, r2
10000db8:	4aaa      	ldr	r2, [pc, #680]	; (10001064 <setup_rom_contents+0xc4c>)
10000dba:	4692      	mov	sl, r2
10000dbc:	464a      	mov	r2, r9
10000dbe:	4651      	mov	r1, sl
10000dc0:	5099      	str	r1, [r3, r2]
10000dc2:	4aa9      	ldr	r2, [pc, #676]	; (10001068 <setup_rom_contents+0xc50>)
10000dc4:	4991      	ldr	r1, [pc, #580]	; (1000100c <setup_rom_contents+0xbf4>)
10000dc6:	5099      	str	r1, [r3, r2]
10000dc8:	3204      	adds	r2, #4
10000dca:	4691      	mov	r9, r2
10000dcc:	4aa7      	ldr	r2, [pc, #668]	; (1000106c <setup_rom_contents+0xc54>)
10000dce:	4692      	mov	sl, r2
10000dd0:	464a      	mov	r2, r9
10000dd2:	4651      	mov	r1, sl
10000dd4:	5099      	str	r1, [r3, r2]
10000dd6:	4aa6      	ldr	r2, [pc, #664]	; (10001070 <setup_rom_contents+0xc58>)
10000dd8:	498f      	ldr	r1, [pc, #572]	; (10001018 <setup_rom_contents+0xc00>)
10000dda:	5099      	str	r1, [r3, r2]
10000ddc:	4659      	mov	r1, fp
10000dde:	3204      	adds	r2, #4
10000de0:	5099      	str	r1, [r3, r2]
10000de2:	4aa4      	ldr	r2, [pc, #656]	; (10001074 <setup_rom_contents+0xc5c>)
10000de4:	4691      	mov	r9, r2
10000de6:	4aa4      	ldr	r2, [pc, #656]	; (10001078 <setup_rom_contents+0xc60>)
10000de8:	4692      	mov	sl, r2
10000dea:	464a      	mov	r2, r9
10000dec:	4651      	mov	r1, sl
10000dee:	5099      	str	r1, [r3, r2]
10000df0:	498e      	ldr	r1, [pc, #568]	; (1000102c <setup_rom_contents+0xc14>)
10000df2:	3204      	adds	r2, #4
10000df4:	5099      	str	r1, [r3, r2]
10000df6:	4aa1      	ldr	r2, [pc, #644]	; (1000107c <setup_rom_contents+0xc64>)
10000df8:	4691      	mov	r9, r2
10000dfa:	4aa1      	ldr	r2, [pc, #644]	; (10001080 <setup_rom_contents+0xc68>)
10000dfc:	4692      	mov	sl, r2
10000dfe:	464a      	mov	r2, r9
10000e00:	4651      	mov	r1, sl
10000e02:	5099      	str	r1, [r3, r2]
10000e04:	4641      	mov	r1, r8
10000e06:	3204      	adds	r2, #4
10000e08:	5099      	str	r1, [r3, r2]
10000e0a:	4661      	mov	r1, ip
10000e0c:	4a9d      	ldr	r2, [pc, #628]	; (10001084 <setup_rom_contents+0xc6c>)
10000e0e:	5099      	str	r1, [r3, r2]
10000e10:	3204      	adds	r2, #4
10000e12:	4691      	mov	r9, r2
10000e14:	4a9c      	ldr	r2, [pc, #624]	; (10001088 <setup_rom_contents+0xc70>)
10000e16:	4692      	mov	sl, r2
10000e18:	464a      	mov	r2, r9
10000e1a:	4651      	mov	r1, sl
10000e1c:	5099      	str	r1, [r3, r2]
10000e1e:	4a9b      	ldr	r2, [pc, #620]	; (1000108c <setup_rom_contents+0xc74>)
10000e20:	509f      	str	r7, [r3, r2]
10000e22:	3204      	adds	r2, #4
10000e24:	4691      	mov	r9, r2
10000e26:	4a9a      	ldr	r2, [pc, #616]	; (10001090 <setup_rom_contents+0xc78>)
10000e28:	4692      	mov	sl, r2
10000e2a:	464a      	mov	r2, r9
10000e2c:	4651      	mov	r1, sl
10000e2e:	5099      	str	r1, [r3, r2]
10000e30:	4a98      	ldr	r2, [pc, #608]	; (10001094 <setup_rom_contents+0xc7c>)
10000e32:	509e      	str	r6, [r3, r2]
10000e34:	3204      	adds	r2, #4
10000e36:	4691      	mov	r9, r2
10000e38:	4a97      	ldr	r2, [pc, #604]	; (10001098 <setup_rom_contents+0xc80>)
10000e3a:	4692      	mov	sl, r2
10000e3c:	464a      	mov	r2, r9
10000e3e:	4651      	mov	r1, sl
10000e40:	5099      	str	r1, [r3, r2]
10000e42:	4a96      	ldr	r2, [pc, #600]	; (1000109c <setup_rom_contents+0xc84>)
10000e44:	509d      	str	r5, [r3, r2]
10000e46:	3204      	adds	r2, #4
10000e48:	4691      	mov	r9, r2
10000e4a:	4a95      	ldr	r2, [pc, #596]	; (100010a0 <setup_rom_contents+0xc88>)
10000e4c:	4692      	mov	sl, r2
10000e4e:	464a      	mov	r2, r9
10000e50:	4651      	mov	r1, sl
10000e52:	5099      	str	r1, [r3, r2]
10000e54:	e126      	b.n	100010a4 <setup_rom_contents+0xc8c>
10000e56:	46c0      	nop			; (mov r8, r8)
10000e58:	d0ca5800 	.word	0xd0ca5800
10000e5c:	009d5a00 	.word	0x009d5a00
10000e60:	f7d0ca59 	.word	0xf7d0ca59
10000e64:	5a009d5b 	.word	0x5a009d5b
10000e68:	5c00bd30 	.word	0x5c00bd30
10000e6c:	000002ea 	.word	0x000002ea
10000e70:	000002eb 	.word	0x000002eb
10000e74:	9d5d00bd 	.word	0x9d5d00bd
10000e78:	d0ca5c00 	.word	0xd0ca5c00
10000e7c:	009d5e00 	.word	0x009d5e00
10000e80:	f7d0ca5d 	.word	0xf7d0ca5d
10000e84:	5e009d5f 	.word	0x5e009d5f
10000e88:	6000bd30 	.word	0x6000bd30
10000e8c:	ca5f009d 	.word	0xca5f009d
10000e90:	9d6100bd 	.word	0x9d6100bd
10000e94:	d0ca6000 	.word	0xd0ca6000
10000e98:	009d6200 	.word	0x009d6200
10000e9c:	f7d0ca61 	.word	0xf7d0ca61
10000ea0:	62009d63 	.word	0x62009d63
10000ea4:	6400bd30 	.word	0x6400bd30
10000ea8:	ca63009d 	.word	0xca63009d
10000eac:	9d6500bd 	.word	0x9d6500bd
10000eb0:	d0ca6400 	.word	0xd0ca6400
10000eb4:	009d6600 	.word	0x009d6600
10000eb8:	f7d0ca65 	.word	0xf7d0ca65
10000ebc:	66009d67 	.word	0x66009d67
10000ec0:	6800bd30 	.word	0x6800bd30
10000ec4:	ca67009d 	.word	0xca67009d
10000ec8:	9d6900bd 	.word	0x9d6900bd
10000ecc:	d0ca6800 	.word	0xd0ca6800
10000ed0:	009d6a00 	.word	0x009d6a00
10000ed4:	f7d0ca69 	.word	0xf7d0ca69
10000ed8:	6a009d6b 	.word	0x6a009d6b
10000edc:	6c00bd30 	.word	0x6c00bd30
10000ee0:	ca6b009d 	.word	0xca6b009d
10000ee4:	20a9f7d0 	.word	0x20a9f7d0
10000ee8:	009d30a2 	.word	0x009d30a2
10000eec:	fad0ca6c 	.word	0xfad0ca6c
10000ef0:	a220a960 	.word	0xa220a960
10000ef4:	51009d30 	.word	0x51009d30
10000ef8:	a2fad0ca 	.word	0xa2fad0ca
10000efc:	52009d30 	.word	0x52009d30
10000f00:	53009d30 	.word	0x53009d30
10000f04:	54009d30 	.word	0x54009d30
10000f08:	55009d30 	.word	0x55009d30
10000f0c:	56009d30 	.word	0x56009d30
10000f10:	57009d30 	.word	0x57009d30
10000f14:	ffffd0ca 	.word	0xffffd0ca
10000f18:	000003e2 	.word	0x000003e2
10000f1c:	a9f4d0ca 	.word	0xa9f4d0ca
10000f20:	000003e3 	.word	0x000003e3
10000f24:	f18e30a2 	.word	0xf18e30a2
10000f28:	58009d30 	.word	0x58009d30
10000f2c:	59009d30 	.word	0x59009d30
10000f30:	5a009d30 	.word	0x5a009d30
10000f34:	5b009d30 	.word	0x5b009d30
10000f38:	5c009d30 	.word	0x5c009d30
10000f3c:	00000404 	.word	0x00000404
10000f40:	ca7f008d 	.word	0xca7f008d
10000f44:	5d009d30 	.word	0x5d009d30
10000f48:	0000040c 	.word	0x0000040c
10000f4c:	a27ff08d 	.word	0xa27ff08d
10000f50:	5e009d30 	.word	0x5e009d30
10000f54:	00000414 	.word	0x00000414
10000f58:	5f009d30 	.word	0x5f009d30
10000f5c:	0000041c 	.word	0x0000041c
10000f60:	60009d30 	.word	0x60009d30
10000f64:	00000424 	.word	0x00000424
10000f68:	61009d30 	.word	0x61009d30
10000f6c:	0000042c 	.word	0x0000042c
10000f70:	62009d30 	.word	0x62009d30
10000f74:	00000434 	.word	0x00000434
10000f78:	63009d30 	.word	0x63009d30
10000f7c:	0000043c 	.word	0x0000043c
10000f80:	64009d30 	.word	0x64009d30
10000f84:	00000444 	.word	0x00000444
10000f88:	65009d30 	.word	0x65009d30
10000f8c:	0000044c 	.word	0x0000044c
10000f90:	66009d30 	.word	0x66009d30
10000f94:	00000454 	.word	0x00000454
10000f98:	67009d30 	.word	0x67009d30
10000f9c:	0000045c 	.word	0x0000045c
10000fa0:	68009d30 	.word	0x68009d30
10000fa4:	00000464 	.word	0x00000464
10000fa8:	69009d30 	.word	0x69009d30
10000fac:	0000046c 	.word	0x0000046c
10000fb0:	6a009d30 	.word	0x6a009d30
10000fb4:	00000474 	.word	0x00000474
10000fb8:	6b009d30 	.word	0x6b009d30
10000fbc:	0000047c 	.word	0x0000047c
10000fc0:	00000484 	.word	0x00000484
10000fc4:	6c009d30 	.word	0x6c009d30
10000fc8:	7ff18e30 	.word	0x7ff18e30
10000fcc:	60fad0ca 	.word	0x60fad0ca
10000fd0:	0000048c 	.word	0x0000048c
10000fd4:	f08d01a9 	.word	0xf08d01a9
10000fd8:	8e30a27f 	.word	0x8e30a27f
10000fdc:	00bd7ff1 	.word	0x00bd7ff1
10000fe0:	00000494 	.word	0x00000494
10000fe4:	7f008d51 	.word	0x7f008d51
10000fe8:	0000049c 	.word	0x0000049c
10000fec:	7ff08d02 	.word	0x7ff08d02
10000ff0:	000004a4 	.word	0x000004a4
10000ff4:	5200bd7f 	.word	0x5200bd7f
10000ff8:	000004ac 	.word	0x000004ac
10000ffc:	03a9f4d0 	.word	0x03a9f4d0
10001000:	000004b4 	.word	0x000004b4
10001004:	8d5300bd 	.word	0x8d5300bd
10001008:	000004bc 	.word	0x000004bc
1000100c:	d0ca7f00 	.word	0xd0ca7f00
10001010:	000004c4 	.word	0x000004c4
10001014:	8d04a9f4 	.word	0x8d04a9f4
10001018:	30a27ff0 	.word	0x30a27ff0
1000101c:	bd7ff18e 	.word	0xbd7ff18e
10001020:	000004cc 	.word	0x000004cc
10001024:	008d5400 	.word	0x008d5400
10001028:	000004d4 	.word	0x000004d4
1000102c:	f4d0ca7f 	.word	0xf4d0ca7f
10001030:	000005a9 	.word	0x000005a9
10001034:	000004da 	.word	0x000004da
10001038:	000004db 	.word	0x000004db
1000103c:	000004dc 	.word	0x000004dc
10001040:	000004e4 	.word	0x000004e4
10001044:	7f008d55 	.word	0x7f008d55
10001048:	000004ec 	.word	0x000004ec
1000104c:	7ff08d06 	.word	0x7ff08d06
10001050:	000004f4 	.word	0x000004f4
10001054:	5600bd7f 	.word	0x5600bd7f
10001058:	000004fc 	.word	0x000004fc
1000105c:	07a9f4d0 	.word	0x07a9f4d0
10001060:	00000504 	.word	0x00000504
10001064:	8d5700bd 	.word	0x8d5700bd
10001068:	0000050c 	.word	0x0000050c
1000106c:	8d08a9f4 	.word	0x8d08a9f4
10001070:	00000514 	.word	0x00000514
10001074:	0000051c 	.word	0x0000051c
10001078:	008d5800 	.word	0x008d5800
1000107c:	00000524 	.word	0x00000524
10001080:	f08d09a9 	.word	0xf08d09a9
10001084:	0000052c 	.word	0x0000052c
10001088:	7f008d59 	.word	0x7f008d59
1000108c:	00000534 	.word	0x00000534
10001090:	7ff08d0a 	.word	0x7ff08d0a
10001094:	0000053c 	.word	0x0000053c
10001098:	5a00bd7f 	.word	0x5a00bd7f
1000109c:	00000544 	.word	0x00000544
100010a0:	0ba9f4d0 	.word	0x0ba9f4d0
100010a4:	4afd      	ldr	r2, [pc, #1012]	; (1000149c <setup_rom_contents+0x1084>)
100010a6:	509c      	str	r4, [r3, r2]
100010a8:	3204      	adds	r2, #4
100010aa:	5098      	str	r0, [r3, r2]
100010ac:	4afc      	ldr	r2, [pc, #1008]	; (100014a0 <setup_rom_contents+0x1088>)
100010ae:	4691      	mov	r9, r2
100010b0:	4afc      	ldr	r2, [pc, #1008]	; (100014a4 <setup_rom_contents+0x108c>)
100010b2:	4692      	mov	sl, r2
100010b4:	464a      	mov	r2, r9
100010b6:	4651      	mov	r1, sl
100010b8:	5099      	str	r1, [r3, r2]
100010ba:	49fb      	ldr	r1, [pc, #1004]	; (100014a8 <setup_rom_contents+0x1090>)
100010bc:	3204      	adds	r2, #4
100010be:	5099      	str	r1, [r3, r2]
100010c0:	4afa      	ldr	r2, [pc, #1000]	; (100014ac <setup_rom_contents+0x1094>)
100010c2:	4691      	mov	r9, r2
100010c4:	4afa      	ldr	r2, [pc, #1000]	; (100014b0 <setup_rom_contents+0x1098>)
100010c6:	4692      	mov	sl, r2
100010c8:	464a      	mov	r2, r9
100010ca:	4651      	mov	r1, sl
100010cc:	5099      	str	r1, [r3, r2]
100010ce:	49f9      	ldr	r1, [pc, #996]	; (100014b4 <setup_rom_contents+0x109c>)
100010d0:	3204      	adds	r2, #4
100010d2:	5099      	str	r1, [r3, r2]
100010d4:	4659      	mov	r1, fp
100010d6:	4af8      	ldr	r2, [pc, #992]	; (100014b8 <setup_rom_contents+0x10a0>)
100010d8:	5099      	str	r1, [r3, r2]
100010da:	3204      	adds	r2, #4
100010dc:	4691      	mov	r9, r2
100010de:	4af7      	ldr	r2, [pc, #988]	; (100014bc <setup_rom_contents+0x10a4>)
100010e0:	4692      	mov	sl, r2
100010e2:	464a      	mov	r2, r9
100010e4:	4651      	mov	r1, sl
100010e6:	5099      	str	r1, [r3, r2]
100010e8:	4af5      	ldr	r2, [pc, #980]	; (100014c0 <setup_rom_contents+0x10a8>)
100010ea:	49f6      	ldr	r1, [pc, #984]	; (100014c4 <setup_rom_contents+0x10ac>)
100010ec:	5099      	str	r1, [r3, r2]
100010ee:	3204      	adds	r2, #4
100010f0:	4691      	mov	r9, r2
100010f2:	4af5      	ldr	r2, [pc, #980]	; (100014c8 <setup_rom_contents+0x10b0>)
100010f4:	4692      	mov	sl, r2
100010f6:	464a      	mov	r2, r9
100010f8:	4651      	mov	r1, sl
100010fa:	5099      	str	r1, [r3, r2]
100010fc:	4641      	mov	r1, r8
100010fe:	4af3      	ldr	r2, [pc, #972]	; (100014cc <setup_rom_contents+0x10b4>)
10001100:	5099      	str	r1, [r3, r2]
10001102:	4661      	mov	r1, ip
10001104:	3204      	adds	r2, #4
10001106:	5099      	str	r1, [r3, r2]
10001108:	4af1      	ldr	r2, [pc, #964]	; (100014d0 <setup_rom_contents+0x10b8>)
1000110a:	4691      	mov	r9, r2
1000110c:	4af1      	ldr	r2, [pc, #964]	; (100014d4 <setup_rom_contents+0x10bc>)
1000110e:	4692      	mov	sl, r2
10001110:	464a      	mov	r2, r9
10001112:	4651      	mov	r1, sl
10001114:	5099      	str	r1, [r3, r2]
10001116:	3204      	adds	r2, #4
10001118:	509f      	str	r7, [r3, r2]
1000111a:	4aef      	ldr	r2, [pc, #956]	; (100014d8 <setup_rom_contents+0x10c0>)
1000111c:	4691      	mov	r9, r2
1000111e:	4aef      	ldr	r2, [pc, #956]	; (100014dc <setup_rom_contents+0x10c4>)
10001120:	4692      	mov	sl, r2
10001122:	464a      	mov	r2, r9
10001124:	4651      	mov	r1, sl
10001126:	5099      	str	r1, [r3, r2]
10001128:	3204      	adds	r2, #4
1000112a:	509e      	str	r6, [r3, r2]
1000112c:	4aec      	ldr	r2, [pc, #944]	; (100014e0 <setup_rom_contents+0x10c8>)
1000112e:	4691      	mov	r9, r2
10001130:	4aec      	ldr	r2, [pc, #944]	; (100014e4 <setup_rom_contents+0x10cc>)
10001132:	4692      	mov	sl, r2
10001134:	464a      	mov	r2, r9
10001136:	4651      	mov	r1, sl
10001138:	5099      	str	r1, [r3, r2]
1000113a:	3204      	adds	r2, #4
1000113c:	509d      	str	r5, [r3, r2]
1000113e:	4aea      	ldr	r2, [pc, #936]	; (100014e8 <setup_rom_contents+0x10d0>)
10001140:	4691      	mov	r9, r2
10001142:	4aea      	ldr	r2, [pc, #936]	; (100014ec <setup_rom_contents+0x10d4>)
10001144:	4692      	mov	sl, r2
10001146:	464a      	mov	r2, r9
10001148:	4651      	mov	r1, sl
1000114a:	5099      	str	r1, [r3, r2]
1000114c:	3204      	adds	r2, #4
1000114e:	509c      	str	r4, [r3, r2]
10001150:	4ae7      	ldr	r2, [pc, #924]	; (100014f0 <setup_rom_contents+0x10d8>)
10001152:	5098      	str	r0, [r3, r2]
10001154:	3204      	adds	r2, #4
10001156:	4691      	mov	r9, r2
10001158:	4ae6      	ldr	r2, [pc, #920]	; (100014f4 <setup_rom_contents+0x10dc>)
1000115a:	4692      	mov	sl, r2
1000115c:	464a      	mov	r2, r9
1000115e:	4651      	mov	r1, sl
10001160:	5099      	str	r1, [r3, r2]
10001162:	4ae5      	ldr	r2, [pc, #916]	; (100014f8 <setup_rom_contents+0x10e0>)
10001164:	49d0      	ldr	r1, [pc, #832]	; (100014a8 <setup_rom_contents+0x1090>)
10001166:	5099      	str	r1, [r3, r2]
10001168:	3204      	adds	r2, #4
1000116a:	4691      	mov	r9, r2
1000116c:	4ae3      	ldr	r2, [pc, #908]	; (100014fc <setup_rom_contents+0x10e4>)
1000116e:	4692      	mov	sl, r2
10001170:	464a      	mov	r2, r9
10001172:	4651      	mov	r1, sl
10001174:	5099      	str	r1, [r3, r2]
10001176:	4ae2      	ldr	r2, [pc, #904]	; (10001500 <setup_rom_contents+0x10e8>)
10001178:	49ce      	ldr	r1, [pc, #824]	; (100014b4 <setup_rom_contents+0x109c>)
1000117a:	5099      	str	r1, [r3, r2]
1000117c:	4659      	mov	r1, fp
1000117e:	3204      	adds	r2, #4
10001180:	5099      	str	r1, [r3, r2]
10001182:	4ae0      	ldr	r2, [pc, #896]	; (10001504 <setup_rom_contents+0x10ec>)
10001184:	4691      	mov	r9, r2
10001186:	4ae0      	ldr	r2, [pc, #896]	; (10001508 <setup_rom_contents+0x10f0>)
10001188:	4692      	mov	sl, r2
1000118a:	464a      	mov	r2, r9
1000118c:	4651      	mov	r1, sl
1000118e:	5099      	str	r1, [r3, r2]
10001190:	49cc      	ldr	r1, [pc, #816]	; (100014c4 <setup_rom_contents+0x10ac>)
10001192:	3204      	adds	r2, #4
10001194:	5099      	str	r1, [r3, r2]
10001196:	4add      	ldr	r2, [pc, #884]	; (1000150c <setup_rom_contents+0x10f4>)
10001198:	4691      	mov	r9, r2
1000119a:	4add      	ldr	r2, [pc, #884]	; (10001510 <setup_rom_contents+0x10f8>)
1000119c:	4692      	mov	sl, r2
1000119e:	464a      	mov	r2, r9
100011a0:	4651      	mov	r1, sl
100011a2:	5099      	str	r1, [r3, r2]
100011a4:	4641      	mov	r1, r8
100011a6:	3204      	adds	r2, #4
100011a8:	5099      	str	r1, [r3, r2]
100011aa:	4661      	mov	r1, ip
100011ac:	4ad9      	ldr	r2, [pc, #868]	; (10001514 <setup_rom_contents+0x10fc>)
100011ae:	5099      	str	r1, [r3, r2]
100011b0:	3204      	adds	r2, #4
100011b2:	4691      	mov	r9, r2
100011b4:	4ad8      	ldr	r2, [pc, #864]	; (10001518 <setup_rom_contents+0x1100>)
100011b6:	4692      	mov	sl, r2
100011b8:	464a      	mov	r2, r9
100011ba:	4651      	mov	r1, sl
100011bc:	5099      	str	r1, [r3, r2]
100011be:	4ad7      	ldr	r2, [pc, #860]	; (1000151c <setup_rom_contents+0x1104>)
100011c0:	509f      	str	r7, [r3, r2]
100011c2:	3204      	adds	r2, #4
100011c4:	4691      	mov	r9, r2
100011c6:	4ad6      	ldr	r2, [pc, #856]	; (10001520 <setup_rom_contents+0x1108>)
100011c8:	4692      	mov	sl, r2
100011ca:	464a      	mov	r2, r9
100011cc:	4651      	mov	r1, sl
100011ce:	5299      	strh	r1, [r3, r2]
100011d0:	22f0      	movs	r2, #240	; 0xf0
100011d2:	4692      	mov	sl, r2
100011d4:	4651      	mov	r1, sl
100011d6:	4ad3      	ldr	r2, [pc, #844]	; (10001524 <setup_rom_contents+0x110c>)
100011d8:	5499      	strb	r1, [r3, r2]
100011da:	4ad3      	ldr	r2, [pc, #844]	; (10001528 <setup_rom_contents+0x1110>)
100011dc:	4691      	mov	r9, r2
100011de:	227f      	movs	r2, #127	; 0x7f
100011e0:	4692      	mov	sl, r2
100011e2:	464a      	mov	r2, r9
100011e4:	4651      	mov	r1, sl
100011e6:	5499      	strb	r1, [r3, r2]
100011e8:	4ad0      	ldr	r2, [pc, #832]	; (1000152c <setup_rom_contents+0x1114>)
100011ea:	509e      	str	r6, [r3, r2]
100011ec:	3204      	adds	r2, #4
100011ee:	4691      	mov	r9, r2
100011f0:	4acf      	ldr	r2, [pc, #828]	; (10001530 <setup_rom_contents+0x1118>)
100011f2:	4692      	mov	sl, r2
100011f4:	464a      	mov	r2, r9
100011f6:	4651      	mov	r1, sl
100011f8:	5099      	str	r1, [r3, r2]
100011fa:	4ace      	ldr	r2, [pc, #824]	; (10001534 <setup_rom_contents+0x111c>)
100011fc:	509d      	str	r5, [r3, r2]
100011fe:	3204      	adds	r2, #4
10001200:	4691      	mov	r9, r2
10001202:	4acd      	ldr	r2, [pc, #820]	; (10001538 <setup_rom_contents+0x1120>)
10001204:	4692      	mov	sl, r2
10001206:	464a      	mov	r2, r9
10001208:	4651      	mov	r1, sl
1000120a:	5099      	str	r1, [r3, r2]
1000120c:	4acb      	ldr	r2, [pc, #812]	; (1000153c <setup_rom_contents+0x1124>)
1000120e:	509c      	str	r4, [r3, r2]
10001210:	3204      	adds	r2, #4
10001212:	5098      	str	r0, [r3, r2]
10001214:	4aca      	ldr	r2, [pc, #808]	; (10001540 <setup_rom_contents+0x1128>)
10001216:	4691      	mov	r9, r2
10001218:	4aca      	ldr	r2, [pc, #808]	; (10001544 <setup_rom_contents+0x112c>)
1000121a:	4692      	mov	sl, r2
1000121c:	464a      	mov	r2, r9
1000121e:	4651      	mov	r1, sl
10001220:	5099      	str	r1, [r3, r2]
10001222:	49a1      	ldr	r1, [pc, #644]	; (100014a8 <setup_rom_contents+0x1090>)
10001224:	3204      	adds	r2, #4
10001226:	5099      	str	r1, [r3, r2]
10001228:	4ac7      	ldr	r2, [pc, #796]	; (10001548 <setup_rom_contents+0x1130>)
1000122a:	4691      	mov	r9, r2
1000122c:	4ac7      	ldr	r2, [pc, #796]	; (1000154c <setup_rom_contents+0x1134>)
1000122e:	4692      	mov	sl, r2
10001230:	464a      	mov	r2, r9
10001232:	4651      	mov	r1, sl
10001234:	5099      	str	r1, [r3, r2]
10001236:	499f      	ldr	r1, [pc, #636]	; (100014b4 <setup_rom_contents+0x109c>)
10001238:	3204      	adds	r2, #4
1000123a:	5099      	str	r1, [r3, r2]
1000123c:	4659      	mov	r1, fp
1000123e:	4ac4      	ldr	r2, [pc, #784]	; (10001550 <setup_rom_contents+0x1138>)
10001240:	5099      	str	r1, [r3, r2]
10001242:	3204      	adds	r2, #4
10001244:	4691      	mov	r9, r2
10001246:	4ac3      	ldr	r2, [pc, #780]	; (10001554 <setup_rom_contents+0x113c>)
10001248:	4692      	mov	sl, r2
1000124a:	464a      	mov	r2, r9
1000124c:	4651      	mov	r1, sl
1000124e:	5099      	str	r1, [r3, r2]
10001250:	4ac1      	ldr	r2, [pc, #772]	; (10001558 <setup_rom_contents+0x1140>)
10001252:	499c      	ldr	r1, [pc, #624]	; (100014c4 <setup_rom_contents+0x10ac>)
10001254:	5099      	str	r1, [r3, r2]
10001256:	3204      	adds	r2, #4
10001258:	4691      	mov	r9, r2
1000125a:	4ac0      	ldr	r2, [pc, #768]	; (1000155c <setup_rom_contents+0x1144>)
1000125c:	4692      	mov	sl, r2
1000125e:	464a      	mov	r2, r9
10001260:	4651      	mov	r1, sl
10001262:	5099      	str	r1, [r3, r2]
10001264:	4641      	mov	r1, r8
10001266:	4abe      	ldr	r2, [pc, #760]	; (10001560 <setup_rom_contents+0x1148>)
10001268:	5099      	str	r1, [r3, r2]
1000126a:	4661      	mov	r1, ip
1000126c:	3204      	adds	r2, #4
1000126e:	5099      	str	r1, [r3, r2]
10001270:	4abc      	ldr	r2, [pc, #752]	; (10001564 <setup_rom_contents+0x114c>)
10001272:	4691      	mov	r9, r2
10001274:	4abc      	ldr	r2, [pc, #752]	; (10001568 <setup_rom_contents+0x1150>)
10001276:	4692      	mov	sl, r2
10001278:	464a      	mov	r2, r9
1000127a:	4651      	mov	r1, sl
1000127c:	5099      	str	r1, [r3, r2]
1000127e:	3204      	adds	r2, #4
10001280:	509f      	str	r7, [r3, r2]
10001282:	4aba      	ldr	r2, [pc, #744]	; (1000156c <setup_rom_contents+0x1154>)
10001284:	4691      	mov	r9, r2
10001286:	4aba      	ldr	r2, [pc, #744]	; (10001570 <setup_rom_contents+0x1158>)
10001288:	4692      	mov	sl, r2
1000128a:	464a      	mov	r2, r9
1000128c:	4651      	mov	r1, sl
1000128e:	5099      	str	r1, [r3, r2]
10001290:	3204      	adds	r2, #4
10001292:	509e      	str	r6, [r3, r2]
10001294:	4ab7      	ldr	r2, [pc, #732]	; (10001574 <setup_rom_contents+0x115c>)
10001296:	4691      	mov	r9, r2
10001298:	4ab7      	ldr	r2, [pc, #732]	; (10001578 <setup_rom_contents+0x1160>)
1000129a:	4692      	mov	sl, r2
1000129c:	464a      	mov	r2, r9
1000129e:	4651      	mov	r1, sl
100012a0:	5099      	str	r1, [r3, r2]
100012a2:	3204      	adds	r2, #4
100012a4:	509d      	str	r5, [r3, r2]
100012a6:	4ab5      	ldr	r2, [pc, #724]	; (1000157c <setup_rom_contents+0x1164>)
100012a8:	4691      	mov	r9, r2
100012aa:	4ab5      	ldr	r2, [pc, #724]	; (10001580 <setup_rom_contents+0x1168>)
100012ac:	4692      	mov	sl, r2
100012ae:	464a      	mov	r2, r9
100012b0:	4651      	mov	r1, sl
100012b2:	5099      	str	r1, [r3, r2]
100012b4:	3204      	adds	r2, #4
100012b6:	509c      	str	r4, [r3, r2]
100012b8:	4ab2      	ldr	r2, [pc, #712]	; (10001584 <setup_rom_contents+0x116c>)
100012ba:	5098      	str	r0, [r3, r2]
100012bc:	3204      	adds	r2, #4
100012be:	4691      	mov	r9, r2
100012c0:	4ab1      	ldr	r2, [pc, #708]	; (10001588 <setup_rom_contents+0x1170>)
100012c2:	4692      	mov	sl, r2
100012c4:	464a      	mov	r2, r9
100012c6:	4651      	mov	r1, sl
100012c8:	5099      	str	r1, [r3, r2]
100012ca:	4ab0      	ldr	r2, [pc, #704]	; (1000158c <setup_rom_contents+0x1174>)
100012cc:	4976      	ldr	r1, [pc, #472]	; (100014a8 <setup_rom_contents+0x1090>)
100012ce:	5099      	str	r1, [r3, r2]
100012d0:	3204      	adds	r2, #4
100012d2:	4691      	mov	r9, r2
100012d4:	4aae      	ldr	r2, [pc, #696]	; (10001590 <setup_rom_contents+0x1178>)
100012d6:	4692      	mov	sl, r2
100012d8:	464a      	mov	r2, r9
100012da:	4651      	mov	r1, sl
100012dc:	5099      	str	r1, [r3, r2]
100012de:	4aad      	ldr	r2, [pc, #692]	; (10001594 <setup_rom_contents+0x117c>)
100012e0:	4974      	ldr	r1, [pc, #464]	; (100014b4 <setup_rom_contents+0x109c>)
100012e2:	5099      	str	r1, [r3, r2]
100012e4:	4659      	mov	r1, fp
100012e6:	3204      	adds	r2, #4
100012e8:	5099      	str	r1, [r3, r2]
100012ea:	4aab      	ldr	r2, [pc, #684]	; (10001598 <setup_rom_contents+0x1180>)
100012ec:	4691      	mov	r9, r2
100012ee:	4aab      	ldr	r2, [pc, #684]	; (1000159c <setup_rom_contents+0x1184>)
100012f0:	4692      	mov	sl, r2
100012f2:	464a      	mov	r2, r9
100012f4:	4651      	mov	r1, sl
100012f6:	5099      	str	r1, [r3, r2]
100012f8:	4972      	ldr	r1, [pc, #456]	; (100014c4 <setup_rom_contents+0x10ac>)
100012fa:	3204      	adds	r2, #4
100012fc:	5099      	str	r1, [r3, r2]
100012fe:	4aa8      	ldr	r2, [pc, #672]	; (100015a0 <setup_rom_contents+0x1188>)
10001300:	4691      	mov	r9, r2
10001302:	4aa8      	ldr	r2, [pc, #672]	; (100015a4 <setup_rom_contents+0x118c>)
10001304:	4692      	mov	sl, r2
10001306:	464a      	mov	r2, r9
10001308:	4651      	mov	r1, sl
1000130a:	5099      	str	r1, [r3, r2]
1000130c:	4641      	mov	r1, r8
1000130e:	3204      	adds	r2, #4
10001310:	5099      	str	r1, [r3, r2]
10001312:	4661      	mov	r1, ip
10001314:	4aa4      	ldr	r2, [pc, #656]	; (100015a8 <setup_rom_contents+0x1190>)
10001316:	5099      	str	r1, [r3, r2]
10001318:	3204      	adds	r2, #4
1000131a:	4694      	mov	ip, r2
1000131c:	4aa3      	ldr	r2, [pc, #652]	; (100015ac <setup_rom_contents+0x1194>)
1000131e:	4690      	mov	r8, r2
10001320:	4662      	mov	r2, ip
10001322:	4641      	mov	r1, r8
10001324:	5099      	str	r1, [r3, r2]
10001326:	4aa2      	ldr	r2, [pc, #648]	; (100015b0 <setup_rom_contents+0x1198>)
10001328:	49a2      	ldr	r1, [pc, #648]	; (100015b4 <setup_rom_contents+0x119c>)
1000132a:	509f      	str	r7, [r3, r2]
1000132c:	27cd      	movs	r7, #205	; 0xcd
1000132e:	4aa2      	ldr	r2, [pc, #648]	; (100015b8 <setup_rom_contents+0x11a0>)
10001330:	00ff      	lsls	r7, r7, #3
10001332:	51da      	str	r2, [r3, r7]
10001334:	4fa1      	ldr	r7, [pc, #644]	; (100015bc <setup_rom_contents+0x11a4>)
10001336:	465a      	mov	r2, fp
10001338:	51de      	str	r6, [r3, r7]
1000133a:	26ce      	movs	r6, #206	; 0xce
1000133c:	4fa0      	ldr	r7, [pc, #640]	; (100015c0 <setup_rom_contents+0x11a8>)
1000133e:	00f6      	lsls	r6, r6, #3
10001340:	519f      	str	r7, [r3, r6]
10001342:	4ea0      	ldr	r6, [pc, #640]	; (100015c4 <setup_rom_contents+0x11ac>)
10001344:	519d      	str	r5, [r3, r6]
10001346:	25cf      	movs	r5, #207	; 0xcf
10001348:	4e9f      	ldr	r6, [pc, #636]	; (100015c8 <setup_rom_contents+0x11b0>)
1000134a:	00ed      	lsls	r5, r5, #3
1000134c:	515e      	str	r6, [r3, r5]
1000134e:	4d9f      	ldr	r5, [pc, #636]	; (100015cc <setup_rom_contents+0x11b4>)
10001350:	4e9f      	ldr	r6, [pc, #636]	; (100015d0 <setup_rom_contents+0x11b8>)
10001352:	515c      	str	r4, [r3, r5]
10001354:	24d0      	movs	r4, #208	; 0xd0
10001356:	00e4      	lsls	r4, r4, #3
10001358:	5118      	str	r0, [r3, r4]
1000135a:	489e      	ldr	r0, [pc, #632]	; (100015d4 <setup_rom_contents+0x11bc>)
1000135c:	4c9e      	ldr	r4, [pc, #632]	; (100015d8 <setup_rom_contents+0x11c0>)
1000135e:	4d9f      	ldr	r5, [pc, #636]	; (100015dc <setup_rom_contents+0x11c4>)
10001360:	501c      	str	r4, [r3, r0]
10001362:	4c51      	ldr	r4, [pc, #324]	; (100014a8 <setup_rom_contents+0x1090>)
10001364:	3004      	adds	r0, #4
10001366:	501c      	str	r4, [r3, r0]
10001368:	489d      	ldr	r0, [pc, #628]	; (100015e0 <setup_rom_contents+0x11c8>)
1000136a:	4c9e      	ldr	r4, [pc, #632]	; (100015e4 <setup_rom_contents+0x11cc>)
1000136c:	5058      	str	r0, [r3, r1]
1000136e:	4851      	ldr	r0, [pc, #324]	; (100014b4 <setup_rom_contents+0x109c>)
10001370:	3104      	adds	r1, #4
10001372:	5058      	str	r0, [r3, r1]
10001374:	499c      	ldr	r1, [pc, #624]	; (100015e8 <setup_rom_contents+0x11d0>)
10001376:	489d      	ldr	r0, [pc, #628]	; (100015ec <setup_rom_contents+0x11d4>)
10001378:	505a      	str	r2, [r3, r1]
1000137a:	3104      	adds	r1, #4
1000137c:	5058      	str	r0, [r3, r1]
1000137e:	4a51      	ldr	r2, [pc, #324]	; (100014c4 <setup_rom_contents+0x10ac>)
10001380:	499b      	ldr	r1, [pc, #620]	; (100015f0 <setup_rom_contents+0x11d8>)
10001382:	20e3      	movs	r0, #227	; 0xe3
10001384:	505a      	str	r2, [r3, r1]
10001386:	22d4      	movs	r2, #212	; 0xd4
10001388:	499a      	ldr	r1, [pc, #616]	; (100015f4 <setup_rom_contents+0x11dc>)
1000138a:	00d2      	lsls	r2, r2, #3
1000138c:	5099      	str	r1, [r3, r2]
1000138e:	4a9a      	ldr	r2, [pc, #616]	; (100015f8 <setup_rom_contents+0x11e0>)
10001390:	499a      	ldr	r1, [pc, #616]	; (100015fc <setup_rom_contents+0x11e4>)
10001392:	00c0      	lsls	r0, r0, #3
10001394:	5099      	str	r1, [r3, r2]
10001396:	499a      	ldr	r1, [pc, #616]	; (10001600 <setup_rom_contents+0x11e8>)
10001398:	3204      	adds	r2, #4
1000139a:	5099      	str	r1, [r3, r2]
1000139c:	4a99      	ldr	r2, [pc, #612]	; (10001604 <setup_rom_contents+0x11ec>)
1000139e:	499a      	ldr	r1, [pc, #616]	; (10001608 <setup_rom_contents+0x11f0>)
100013a0:	5099      	str	r1, [r3, r2]
100013a2:	499a      	ldr	r1, [pc, #616]	; (1000160c <setup_rom_contents+0x11f4>)
100013a4:	3204      	adds	r2, #4
100013a6:	5099      	str	r1, [r3, r2]
100013a8:	4a99      	ldr	r2, [pc, #612]	; (10001610 <setup_rom_contents+0x11f8>)
100013aa:	499a      	ldr	r1, [pc, #616]	; (10001614 <setup_rom_contents+0x11fc>)
100013ac:	5099      	str	r1, [r3, r2]
100013ae:	499a      	ldr	r1, [pc, #616]	; (10001618 <setup_rom_contents+0x1200>)
100013b0:	3204      	adds	r2, #4
100013b2:	5099      	str	r1, [r3, r2]
100013b4:	4a99      	ldr	r2, [pc, #612]	; (1000161c <setup_rom_contents+0x1204>)
100013b6:	499a      	ldr	r1, [pc, #616]	; (10001620 <setup_rom_contents+0x1208>)
100013b8:	5099      	str	r1, [r3, r2]
100013ba:	499a      	ldr	r1, [pc, #616]	; (10001624 <setup_rom_contents+0x120c>)
100013bc:	3204      	adds	r2, #4
100013be:	5099      	str	r1, [r3, r2]
100013c0:	4a99      	ldr	r2, [pc, #612]	; (10001628 <setup_rom_contents+0x1210>)
100013c2:	499a      	ldr	r1, [pc, #616]	; (1000162c <setup_rom_contents+0x1214>)
100013c4:	5099      	str	r1, [r3, r2]
100013c6:	499a      	ldr	r1, [pc, #616]	; (10001630 <setup_rom_contents+0x1218>)
100013c8:	3204      	adds	r2, #4
100013ca:	5299      	strh	r1, [r3, r2]
100013cc:	2186      	movs	r1, #134	; 0x86
100013ce:	4a99      	ldr	r2, [pc, #612]	; (10001634 <setup_rom_contents+0x121c>)
100013d0:	5499      	strb	r1, [r3, r2]
100013d2:	4a99      	ldr	r2, [pc, #612]	; (10001638 <setup_rom_contents+0x1220>)
100013d4:	311f      	adds	r1, #31
100013d6:	5499      	strb	r1, [r3, r2]
100013d8:	4a98      	ldr	r2, [pc, #608]	; (1000163c <setup_rom_contents+0x1224>)
100013da:	4999      	ldr	r1, [pc, #612]	; (10001640 <setup_rom_contents+0x1228>)
100013dc:	5099      	str	r1, [r3, r2]
100013de:	4999      	ldr	r1, [pc, #612]	; (10001644 <setup_rom_contents+0x122c>)
100013e0:	3204      	adds	r2, #4
100013e2:	5099      	str	r1, [r3, r2]
100013e4:	4a98      	ldr	r2, [pc, #608]	; (10001648 <setup_rom_contents+0x1230>)
100013e6:	4999      	ldr	r1, [pc, #612]	; (1000164c <setup_rom_contents+0x1234>)
100013e8:	5099      	str	r1, [r3, r2]
100013ea:	4999      	ldr	r1, [pc, #612]	; (10001650 <setup_rom_contents+0x1238>)
100013ec:	3204      	adds	r2, #4
100013ee:	5099      	str	r1, [r3, r2]
100013f0:	4a98      	ldr	r2, [pc, #608]	; (10001654 <setup_rom_contents+0x123c>)
100013f2:	4999      	ldr	r1, [pc, #612]	; (10001658 <setup_rom_contents+0x1240>)
100013f4:	5099      	str	r1, [r3, r2]
100013f6:	4999      	ldr	r1, [pc, #612]	; (1000165c <setup_rom_contents+0x1244>)
100013f8:	3204      	adds	r2, #4
100013fa:	5099      	str	r1, [r3, r2]
100013fc:	4a98      	ldr	r2, [pc, #608]	; (10001660 <setup_rom_contents+0x1248>)
100013fe:	4999      	ldr	r1, [pc, #612]	; (10001664 <setup_rom_contents+0x124c>)
10001400:	5099      	str	r1, [r3, r2]
10001402:	4999      	ldr	r1, [pc, #612]	; (10001668 <setup_rom_contents+0x1250>)
10001404:	3204      	adds	r2, #4
10001406:	5099      	str	r1, [r3, r2]
10001408:	4a98      	ldr	r2, [pc, #608]	; (1000166c <setup_rom_contents+0x1254>)
1000140a:	4999      	ldr	r1, [pc, #612]	; (10001670 <setup_rom_contents+0x1258>)
1000140c:	5099      	str	r1, [r3, r2]
1000140e:	4999      	ldr	r1, [pc, #612]	; (10001674 <setup_rom_contents+0x125c>)
10001410:	3204      	adds	r2, #4
10001412:	5099      	str	r1, [r3, r2]
10001414:	4a98      	ldr	r2, [pc, #608]	; (10001678 <setup_rom_contents+0x1260>)
10001416:	4999      	ldr	r1, [pc, #612]	; (1000167c <setup_rom_contents+0x1264>)
10001418:	5099      	str	r1, [r3, r2]
1000141a:	4999      	ldr	r1, [pc, #612]	; (10001680 <setup_rom_contents+0x1268>)
1000141c:	3204      	adds	r2, #4
1000141e:	5099      	str	r1, [r3, r2]
10001420:	4a98      	ldr	r2, [pc, #608]	; (10001684 <setup_rom_contents+0x126c>)
10001422:	4999      	ldr	r1, [pc, #612]	; (10001688 <setup_rom_contents+0x1270>)
10001424:	5099      	str	r1, [r3, r2]
10001426:	4999      	ldr	r1, [pc, #612]	; (1000168c <setup_rom_contents+0x1274>)
10001428:	3204      	adds	r2, #4
1000142a:	5099      	str	r1, [r3, r2]
1000142c:	4a98      	ldr	r2, [pc, #608]	; (10001690 <setup_rom_contents+0x1278>)
1000142e:	4999      	ldr	r1, [pc, #612]	; (10001694 <setup_rom_contents+0x127c>)
10001430:	5099      	str	r1, [r3, r2]
10001432:	4999      	ldr	r1, [pc, #612]	; (10001698 <setup_rom_contents+0x1280>)
10001434:	3204      	adds	r2, #4
10001436:	5099      	str	r1, [r3, r2]
10001438:	4a98      	ldr	r2, [pc, #608]	; (1000169c <setup_rom_contents+0x1284>)
1000143a:	4999      	ldr	r1, [pc, #612]	; (100016a0 <setup_rom_contents+0x1288>)
1000143c:	5099      	str	r1, [r3, r2]
1000143e:	4999      	ldr	r1, [pc, #612]	; (100016a4 <setup_rom_contents+0x128c>)
10001440:	3204      	adds	r2, #4
10001442:	5099      	str	r1, [r3, r2]
10001444:	4998      	ldr	r1, [pc, #608]	; (100016a8 <setup_rom_contents+0x1290>)
10001446:	4a99      	ldr	r2, [pc, #612]	; (100016ac <setup_rom_contents+0x1294>)
10001448:	5099      	str	r1, [r3, r2]
1000144a:	4a99      	ldr	r2, [pc, #612]	; (100016b0 <setup_rom_contents+0x1298>)
1000144c:	501a      	str	r2, [r3, r0]
1000144e:	4899      	ldr	r0, [pc, #612]	; (100016b4 <setup_rom_contents+0x129c>)
10001450:	501c      	str	r4, [r3, r0]
10001452:	4c99      	ldr	r4, [pc, #612]	; (100016b8 <setup_rom_contents+0x12a0>)
10001454:	3004      	adds	r0, #4
10001456:	501c      	str	r4, [r3, r0]
10001458:	4898      	ldr	r0, [pc, #608]	; (100016bc <setup_rom_contents+0x12a4>)
1000145a:	4c99      	ldr	r4, [pc, #612]	; (100016c0 <setup_rom_contents+0x12a8>)
1000145c:	501c      	str	r4, [r3, r0]
1000145e:	4c99      	ldr	r4, [pc, #612]	; (100016c4 <setup_rom_contents+0x12ac>)
10001460:	3004      	adds	r0, #4
10001462:	501c      	str	r4, [r3, r0]
10001464:	4898      	ldr	r0, [pc, #608]	; (100016c8 <setup_rom_contents+0x12b0>)
10001466:	4c99      	ldr	r4, [pc, #612]	; (100016cc <setup_rom_contents+0x12b4>)
10001468:	501a      	str	r2, [r3, r0]
1000146a:	3004      	adds	r0, #4
1000146c:	501c      	str	r4, [r3, r0]
1000146e:	4898      	ldr	r0, [pc, #608]	; (100016d0 <setup_rom_contents+0x12b8>)
10001470:	4c98      	ldr	r4, [pc, #608]	; (100016d4 <setup_rom_contents+0x12bc>)
10001472:	501c      	str	r4, [r3, r0]
10001474:	4c98      	ldr	r4, [pc, #608]	; (100016d8 <setup_rom_contents+0x12c0>)
10001476:	3004      	adds	r0, #4
10001478:	501c      	str	r4, [r3, r0]
1000147a:	4898      	ldr	r0, [pc, #608]	; (100016dc <setup_rom_contents+0x12c4>)
1000147c:	4c98      	ldr	r4, [pc, #608]	; (100016e0 <setup_rom_contents+0x12c8>)
1000147e:	501c      	str	r4, [r3, r0]
10001480:	4c98      	ldr	r4, [pc, #608]	; (100016e4 <setup_rom_contents+0x12cc>)
10001482:	3004      	adds	r0, #4
10001484:	501c      	str	r4, [r3, r0]
10001486:	4898      	ldr	r0, [pc, #608]	; (100016e8 <setup_rom_contents+0x12d0>)
10001488:	4c98      	ldr	r4, [pc, #608]	; (100016ec <setup_rom_contents+0x12d4>)
1000148a:	501c      	str	r4, [r3, r0]
1000148c:	4c98      	ldr	r4, [pc, #608]	; (100016f0 <setup_rom_contents+0x12d8>)
1000148e:	3004      	adds	r0, #4
10001490:	501c      	str	r4, [r3, r0]
10001492:	4898      	ldr	r0, [pc, #608]	; (100016f4 <setup_rom_contents+0x12dc>)
10001494:	4c98      	ldr	r4, [pc, #608]	; (100016f8 <setup_rom_contents+0x12e0>)
10001496:	501c      	str	r4, [r3, r0]
10001498:	e130      	b.n	100016fc <setup_rom_contents+0x12e4>
1000149a:	46c0      	nop			; (mov r8, r8)
1000149c:	0000054c 	.word	0x0000054c
100014a0:	00000554 	.word	0x00000554
100014a4:	8d5b00bd 	.word	0x8d5b00bd
100014a8:	d0ca7f00 	.word	0xd0ca7f00
100014ac:	0000055c 	.word	0x0000055c
100014b0:	8d0ca9f4 	.word	0x8d0ca9f4
100014b4:	30a27ff0 	.word	0x30a27ff0
100014b8:	00000564 	.word	0x00000564
100014bc:	008d5c00 	.word	0x008d5c00
100014c0:	0000056c 	.word	0x0000056c
100014c4:	f4d0ca7f 	.word	0xf4d0ca7f
100014c8:	f08d0da9 	.word	0xf08d0da9
100014cc:	00000574 	.word	0x00000574
100014d0:	0000057c 	.word	0x0000057c
100014d4:	7f008d5d 	.word	0x7f008d5d
100014d8:	00000584 	.word	0x00000584
100014dc:	7ff08d0e 	.word	0x7ff08d0e
100014e0:	0000058c 	.word	0x0000058c
100014e4:	5e00bd7f 	.word	0x5e00bd7f
100014e8:	00000594 	.word	0x00000594
100014ec:	0fa9f4d0 	.word	0x0fa9f4d0
100014f0:	0000059c 	.word	0x0000059c
100014f4:	8d5f00bd 	.word	0x8d5f00bd
100014f8:	000005a4 	.word	0x000005a4
100014fc:	8d10a9f4 	.word	0x8d10a9f4
10001500:	000005ac 	.word	0x000005ac
10001504:	000005b4 	.word	0x000005b4
10001508:	008d6000 	.word	0x008d6000
1000150c:	000005bc 	.word	0x000005bc
10001510:	f08d11a9 	.word	0xf08d11a9
10001514:	000005c4 	.word	0x000005c4
10001518:	7f008d61 	.word	0x7f008d61
1000151c:	000005cc 	.word	0x000005cc
10001520:	ffff8d12 	.word	0xffff8d12
10001524:	000005d2 	.word	0x000005d2
10001528:	000005d3 	.word	0x000005d3
1000152c:	000005d4 	.word	0x000005d4
10001530:	6200bd7f 	.word	0x6200bd7f
10001534:	000005dc 	.word	0x000005dc
10001538:	13a9f4d0 	.word	0x13a9f4d0
1000153c:	000005e4 	.word	0x000005e4
10001540:	000005ec 	.word	0x000005ec
10001544:	8d6300bd 	.word	0x8d6300bd
10001548:	000005f4 	.word	0x000005f4
1000154c:	8d14a9f4 	.word	0x8d14a9f4
10001550:	000005fc 	.word	0x000005fc
10001554:	008d6400 	.word	0x008d6400
10001558:	00000604 	.word	0x00000604
1000155c:	f08d15a9 	.word	0xf08d15a9
10001560:	0000060c 	.word	0x0000060c
10001564:	00000614 	.word	0x00000614
10001568:	7f008d65 	.word	0x7f008d65
1000156c:	0000061c 	.word	0x0000061c
10001570:	7ff08d16 	.word	0x7ff08d16
10001574:	00000624 	.word	0x00000624
10001578:	6600bd7f 	.word	0x6600bd7f
1000157c:	0000062c 	.word	0x0000062c
10001580:	17a9f4d0 	.word	0x17a9f4d0
10001584:	00000634 	.word	0x00000634
10001588:	8d6700bd 	.word	0x8d6700bd
1000158c:	0000063c 	.word	0x0000063c
10001590:	8d18a9f4 	.word	0x8d18a9f4
10001594:	00000644 	.word	0x00000644
10001598:	0000064c 	.word	0x0000064c
1000159c:	008d6800 	.word	0x008d6800
100015a0:	00000654 	.word	0x00000654
100015a4:	f08d19a9 	.word	0xf08d19a9
100015a8:	0000065c 	.word	0x0000065c
100015ac:	7f008d69 	.word	0x7f008d69
100015b0:	00000664 	.word	0x00000664
100015b4:	0000068c 	.word	0x0000068c
100015b8:	7ff08d1a 	.word	0x7ff08d1a
100015bc:	0000066c 	.word	0x0000066c
100015c0:	6a00bd7f 	.word	0x6a00bd7f
100015c4:	00000674 	.word	0x00000674
100015c8:	1ba9f4d0 	.word	0x1ba9f4d0
100015cc:	0000067c 	.word	0x0000067c
100015d0:	20c87fe0 	.word	0x20c87fe0
100015d4:	00000684 	.word	0x00000684
100015d8:	8d6b00bd 	.word	0x8d6b00bd
100015dc:	c912f012 	.word	0xc912f012
100015e0:	8d1ca9f4 	.word	0x8d1ca9f4
100015e4:	02850249 	.word	0x02850249
100015e8:	00000694 	.word	0x00000694
100015ec:	008d6c00 	.word	0x008d6c00
100015f0:	0000069c 	.word	0x0000069c
100015f4:	88f32060 	.word	0x88f32060
100015f8:	000006a4 	.word	0x000006a4
100015fc:	d0878e20 	.word	0xd0878e20
10001600:	889220fb 	.word	0x889220fb
10001604:	000006ac 	.word	0x000006ac
10001608:	f087a720 	.word	0xf087a720
1000160c:	78c9aaf8 	.word	0x78c9aaf8
10001610:	000006b4 	.word	0x000006b4
10001614:	69c915f0 	.word	0x69c915f0
10001618:	7ec91130 	.word	0x7ec91130
1000161c:	000006bc 	.word	0x000006bc
10001620:	02a50d10 	.word	0x02a50d10
10001624:	0df00289 	.word	0x0df00289
10001628:	000006c4 	.word	0x000006c4
1000162c:	aa7f298a 	.word	0xaa7f298a
10001630:	ffffd54c 	.word	0xffffd54c
10001634:	000006ca 	.word	0x000006ca
10001638:	000006cb 	.word	0x000006cb
1000163c:	000006cc 	.word	0x000006cc
10001640:	f0108902 	.word	0xf0108902
10001644:	80098a04 	.word	0x80098a04
10001648:	000006d4 	.word	0x000006d4
1000164c:	8902a5aa 	.word	0x8902a5aa
10001650:	bd0ff008 	.word	0xbd0ff008
10001654:	000006dc 	.word	0x000006dc
10001658:	8fc98930 	.word	0x8fc98930
1000165c:	1f29bff0 	.word	0x1f29bff0
10001660:	000006e4 	.word	0x000006e4
10001664:	4caac3f0 	.word	0x4caac3f0
10001668:	30bd8703 	.word	0x30bd8703
1000166c:	000006ec 	.word	0x000006ec
10001670:	aabaf089 	.word	0xaabaf089
10001674:	048902a5 	.word	0x048902a5
10001678:	000006f4 	.word	0x000006f4
1000167c:	c98a0df0 	.word	0xc98a0df0
10001680:	c9089061 	.word	0xc9089061
10001684:	000006fc 	.word	0x000006fc
10001688:	3804b07b 	.word	0x3804b07b
1000168c:	daaa20e9 	.word	0xdaaa20e9
10001690:	00000704 	.word	0x00000704
10001694:	f0878e20 	.word	0xf0878e20
10001698:	a96068fb 	.word	0xa96068fb
1000169c:	0000070c 	.word	0x0000070c
100016a0:	10a96002 	.word	0x10a96002
100016a4:	0508a92c 	.word	0x0508a92c
100016a8:	4c028502 	.word	0x4c028502
100016ac:	00000714 	.word	0x00000714
100016b0:	02a58737 	.word	0x02a58737
100016b4:	0000071c 	.word	0x0000071c
100016b8:	4c890a20 	.word	0x4c890a20
100016bc:	00000724 	.word	0x00000724
100016c0:	03a58737 	.word	0x03a58737
100016c4:	4c880720 	.word	0x4c880720
100016c8:	0000072c 	.word	0x0000072c
100016cc:	02850449 	.word	0x02850449
100016d0:	00000734 	.word	0x00000734
100016d4:	a9890a20 	.word	0xa9890a20
100016d8:	92206000 	.word	0x92206000
100016dc:	0000073c 	.word	0x0000073c
100016e0:	f0f0c988 	.word	0xf0f0c988
100016e4:	f014c921 	.word	0xf014c921
100016e8:	00000744 	.word	0x00000744
100016ec:	dd03a2cc 	.word	0xdd03a2cc
100016f0:	0af0875a 	.word	0x0af0875a
100016f4:	0000074c 	.word	0x0000074c
100016f8:	c9f810ca 	.word	0xc9f810ca
100016fc:	4ceb      	ldr	r4, [pc, #940]	; (10001aac <setup_rom_contents+0x1694>)
100016fe:	3004      	adds	r0, #4
10001700:	501c      	str	r4, [r3, r0]
10001702:	48eb      	ldr	r0, [pc, #940]	; (10001ab0 <setup_rom_contents+0x1698>)
10001704:	4ceb      	ldr	r4, [pc, #940]	; (10001ab4 <setup_rom_contents+0x169c>)
10001706:	501c      	str	r4, [r3, r0]
10001708:	4ceb      	ldr	r4, [pc, #940]	; (10001ab8 <setup_rom_contents+0x16a0>)
1000170a:	3004      	adds	r0, #4
1000170c:	501c      	str	r4, [r3, r0]
1000170e:	48eb      	ldr	r0, [pc, #940]	; (10001abc <setup_rom_contents+0x16a4>)
10001710:	4ceb      	ldr	r4, [pc, #940]	; (10001ac0 <setup_rom_contents+0x16a8>)
10001712:	501c      	str	r4, [r3, r0]
10001714:	4ceb      	ldr	r4, [pc, #940]	; (10001ac4 <setup_rom_contents+0x16ac>)
10001716:	3004      	adds	r0, #4
10001718:	501c      	str	r4, [r3, r0]
1000171a:	48eb      	ldr	r0, [pc, #940]	; (10001ac8 <setup_rom_contents+0x16b0>)
1000171c:	4ceb      	ldr	r4, [pc, #940]	; (10001acc <setup_rom_contents+0x16b4>)
1000171e:	501c      	str	r4, [r3, r0]
10001720:	4ceb      	ldr	r4, [pc, #940]	; (10001ad0 <setup_rom_contents+0x16b8>)
10001722:	3004      	adds	r0, #4
10001724:	501c      	str	r4, [r3, r0]
10001726:	48eb      	ldr	r0, [pc, #940]	; (10001ad4 <setup_rom_contents+0x16bc>)
10001728:	4ceb      	ldr	r4, [pc, #940]	; (10001ad8 <setup_rom_contents+0x16c0>)
1000172a:	5118      	str	r0, [r3, r4]
1000172c:	3404      	adds	r4, #4
1000172e:	511d      	str	r5, [r3, r4]
10001730:	4cea      	ldr	r4, [pc, #936]	; (10001adc <setup_rom_contents+0x16c4>)
10001732:	4deb      	ldr	r5, [pc, #940]	; (10001ae0 <setup_rom_contents+0x16c8>)
10001734:	511d      	str	r5, [r3, r4]
10001736:	4deb      	ldr	r5, [pc, #940]	; (10001ae4 <setup_rom_contents+0x16cc>)
10001738:	3404      	adds	r4, #4
1000173a:	511d      	str	r5, [r3, r4]
1000173c:	4cea      	ldr	r4, [pc, #936]	; (10001ae8 <setup_rom_contents+0x16d0>)
1000173e:	4deb      	ldr	r5, [pc, #940]	; (10001aec <setup_rom_contents+0x16d4>)
10001740:	511d      	str	r5, [r3, r4]
10001742:	4deb      	ldr	r5, [pc, #940]	; (10001af0 <setup_rom_contents+0x16d8>)
10001744:	3404      	adds	r4, #4
10001746:	511d      	str	r5, [r3, r4]
10001748:	4cea      	ldr	r4, [pc, #936]	; (10001af4 <setup_rom_contents+0x16dc>)
1000174a:	4deb      	ldr	r5, [pc, #940]	; (10001af8 <setup_rom_contents+0x16e0>)
1000174c:	511d      	str	r5, [r3, r4]
1000174e:	3404      	adds	r4, #4
10001750:	5119      	str	r1, [r3, r4]
10001752:	49ea      	ldr	r1, [pc, #936]	; (10001afc <setup_rom_contents+0x16e4>)
10001754:	4cea      	ldr	r4, [pc, #936]	; (10001b00 <setup_rom_contents+0x16e8>)
10001756:	505a      	str	r2, [r3, r1]
10001758:	22f2      	movs	r2, #242	; 0xf2
1000175a:	49ea      	ldr	r1, [pc, #936]	; (10001b04 <setup_rom_contents+0x16ec>)
1000175c:	00d2      	lsls	r2, r2, #3
1000175e:	5099      	str	r1, [r3, r2]
10001760:	4ae9      	ldr	r2, [pc, #932]	; (10001b08 <setup_rom_contents+0x16f0>)
10001762:	49ea      	ldr	r1, [pc, #936]	; (10001b0c <setup_rom_contents+0x16f4>)
10001764:	4dea      	ldr	r5, [pc, #936]	; (10001b10 <setup_rom_contents+0x16f8>)
10001766:	5099      	str	r1, [r3, r2]
10001768:	49ea      	ldr	r1, [pc, #936]	; (10001b14 <setup_rom_contents+0x16fc>)
1000176a:	3204      	adds	r2, #4
1000176c:	5099      	str	r1, [r3, r2]
1000176e:	4aea      	ldr	r2, [pc, #936]	; (10001b18 <setup_rom_contents+0x1700>)
10001770:	49ea      	ldr	r1, [pc, #936]	; (10001b1c <setup_rom_contents+0x1704>)
10001772:	5099      	str	r1, [r3, r2]
10001774:	49ea      	ldr	r1, [pc, #936]	; (10001b20 <setup_rom_contents+0x1708>)
10001776:	3204      	adds	r2, #4
10001778:	5099      	str	r1, [r3, r2]
1000177a:	4aea      	ldr	r2, [pc, #936]	; (10001b24 <setup_rom_contents+0x170c>)
1000177c:	49ea      	ldr	r1, [pc, #936]	; (10001b28 <setup_rom_contents+0x1710>)
1000177e:	5099      	str	r1, [r3, r2]
10001780:	49ea      	ldr	r1, [pc, #936]	; (10001b2c <setup_rom_contents+0x1714>)
10001782:	3204      	adds	r2, #4
10001784:	5099      	str	r1, [r3, r2]
10001786:	4aea      	ldr	r2, [pc, #936]	; (10001b30 <setup_rom_contents+0x1718>)
10001788:	49ea      	ldr	r1, [pc, #936]	; (10001b34 <setup_rom_contents+0x171c>)
1000178a:	5099      	str	r1, [r3, r2]
1000178c:	49ea      	ldr	r1, [pc, #936]	; (10001b38 <setup_rom_contents+0x1720>)
1000178e:	3204      	adds	r2, #4
10001790:	5099      	str	r1, [r3, r2]
10001792:	4aea      	ldr	r2, [pc, #936]	; (10001b3c <setup_rom_contents+0x1724>)
10001794:	49ea      	ldr	r1, [pc, #936]	; (10001b40 <setup_rom_contents+0x1728>)
10001796:	5099      	str	r1, [r3, r2]
10001798:	49ea      	ldr	r1, [pc, #936]	; (10001b44 <setup_rom_contents+0x172c>)
1000179a:	3204      	adds	r2, #4
1000179c:	5099      	str	r1, [r3, r2]
1000179e:	4aea      	ldr	r2, [pc, #936]	; (10001b48 <setup_rom_contents+0x1730>)
100017a0:	49ea      	ldr	r1, [pc, #936]	; (10001b4c <setup_rom_contents+0x1734>)
100017a2:	5099      	str	r1, [r3, r2]
100017a4:	49ea      	ldr	r1, [pc, #936]	; (10001b50 <setup_rom_contents+0x1738>)
100017a6:	3204      	adds	r2, #4
100017a8:	5299      	strh	r1, [r3, r2]
100017aa:	21f0      	movs	r1, #240	; 0xf0
100017ac:	4ae9      	ldr	r2, [pc, #932]	; (10001b54 <setup_rom_contents+0x173c>)
100017ae:	5499      	strb	r1, [r3, r2]
100017b0:	4ae9      	ldr	r2, [pc, #932]	; (10001b58 <setup_rom_contents+0x1740>)
100017b2:	310a      	adds	r1, #10
100017b4:	5499      	strb	r1, [r3, r2]
100017b6:	4ae9      	ldr	r2, [pc, #932]	; (10001b5c <setup_rom_contents+0x1744>)
100017b8:	49e9      	ldr	r1, [pc, #932]	; (10001b60 <setup_rom_contents+0x1748>)
100017ba:	5099      	str	r1, [r3, r2]
100017bc:	49e9      	ldr	r1, [pc, #932]	; (10001b64 <setup_rom_contents+0x174c>)
100017be:	3204      	adds	r2, #4
100017c0:	5099      	str	r1, [r3, r2]
100017c2:	4ae9      	ldr	r2, [pc, #932]	; (10001b68 <setup_rom_contents+0x1750>)
100017c4:	49e9      	ldr	r1, [pc, #932]	; (10001b6c <setup_rom_contents+0x1754>)
100017c6:	5099      	str	r1, [r3, r2]
100017c8:	49e9      	ldr	r1, [pc, #932]	; (10001b70 <setup_rom_contents+0x1758>)
100017ca:	3204      	adds	r2, #4
100017cc:	5099      	str	r1, [r3, r2]
100017ce:	4ae9      	ldr	r2, [pc, #932]	; (10001b74 <setup_rom_contents+0x175c>)
100017d0:	49e9      	ldr	r1, [pc, #932]	; (10001b78 <setup_rom_contents+0x1760>)
100017d2:	5099      	str	r1, [r3, r2]
100017d4:	49e9      	ldr	r1, [pc, #932]	; (10001b7c <setup_rom_contents+0x1764>)
100017d6:	3204      	adds	r2, #4
100017d8:	5099      	str	r1, [r3, r2]
100017da:	4ae9      	ldr	r2, [pc, #932]	; (10001b80 <setup_rom_contents+0x1768>)
100017dc:	49e9      	ldr	r1, [pc, #932]	; (10001b84 <setup_rom_contents+0x176c>)
100017de:	5099      	str	r1, [r3, r2]
100017e0:	49e9      	ldr	r1, [pc, #932]	; (10001b88 <setup_rom_contents+0x1770>)
100017e2:	3204      	adds	r2, #4
100017e4:	5099      	str	r1, [r3, r2]
100017e6:	4ae9      	ldr	r2, [pc, #932]	; (10001b8c <setup_rom_contents+0x1774>)
100017e8:	49e9      	ldr	r1, [pc, #932]	; (10001b90 <setup_rom_contents+0x1778>)
100017ea:	5099      	str	r1, [r3, r2]
100017ec:	49e9      	ldr	r1, [pc, #932]	; (10001b94 <setup_rom_contents+0x177c>)
100017ee:	3204      	adds	r2, #4
100017f0:	5099      	str	r1, [r3, r2]
100017f2:	4ae9      	ldr	r2, [pc, #932]	; (10001b98 <setup_rom_contents+0x1780>)
100017f4:	49e9      	ldr	r1, [pc, #932]	; (10001b9c <setup_rom_contents+0x1784>)
100017f6:	5099      	str	r1, [r3, r2]
100017f8:	49e9      	ldr	r1, [pc, #932]	; (10001ba0 <setup_rom_contents+0x1788>)
100017fa:	3204      	adds	r2, #4
100017fc:	5099      	str	r1, [r3, r2]
100017fe:	4ae9      	ldr	r2, [pc, #932]	; (10001ba4 <setup_rom_contents+0x178c>)
10001800:	49e9      	ldr	r1, [pc, #932]	; (10001ba8 <setup_rom_contents+0x1790>)
10001802:	5099      	str	r1, [r3, r2]
10001804:	49e9      	ldr	r1, [pc, #932]	; (10001bac <setup_rom_contents+0x1794>)
10001806:	3204      	adds	r2, #4
10001808:	5099      	str	r1, [r3, r2]
1000180a:	4ae9      	ldr	r2, [pc, #932]	; (10001bb0 <setup_rom_contents+0x1798>)
1000180c:	49e9      	ldr	r1, [pc, #932]	; (10001bb4 <setup_rom_contents+0x179c>)
1000180e:	5099      	str	r1, [r3, r2]
10001810:	49e9      	ldr	r1, [pc, #932]	; (10001bb8 <setup_rom_contents+0x17a0>)
10001812:	3204      	adds	r2, #4
10001814:	5099      	str	r1, [r3, r2]
10001816:	4ae9      	ldr	r2, [pc, #932]	; (10001bbc <setup_rom_contents+0x17a4>)
10001818:	49e9      	ldr	r1, [pc, #932]	; (10001bc0 <setup_rom_contents+0x17a8>)
1000181a:	5099      	str	r1, [r3, r2]
1000181c:	4ae9      	ldr	r2, [pc, #932]	; (10001bc4 <setup_rom_contents+0x17ac>)
1000181e:	49ea      	ldr	r1, [pc, #936]	; (10001bc8 <setup_rom_contents+0x17b0>)
10001820:	5099      	str	r1, [r3, r2]
10001822:	4aea      	ldr	r2, [pc, #936]	; (10001bcc <setup_rom_contents+0x17b4>)
10001824:	49ea      	ldr	r1, [pc, #936]	; (10001bd0 <setup_rom_contents+0x17b8>)
10001826:	5099      	str	r1, [r3, r2]
10001828:	49ea      	ldr	r1, [pc, #936]	; (10001bd4 <setup_rom_contents+0x17bc>)
1000182a:	3204      	adds	r2, #4
1000182c:	5099      	str	r1, [r3, r2]
1000182e:	4aea      	ldr	r2, [pc, #936]	; (10001bd8 <setup_rom_contents+0x17c0>)
10001830:	49ea      	ldr	r1, [pc, #936]	; (10001bdc <setup_rom_contents+0x17c4>)
10001832:	5099      	str	r1, [r3, r2]
10001834:	4aea      	ldr	r2, [pc, #936]	; (10001be0 <setup_rom_contents+0x17c8>)
10001836:	49eb      	ldr	r1, [pc, #940]	; (10001be4 <setup_rom_contents+0x17cc>)
10001838:	5099      	str	r1, [r3, r2]
1000183a:	4aeb      	ldr	r2, [pc, #940]	; (10001be8 <setup_rom_contents+0x17d0>)
1000183c:	49eb      	ldr	r1, [pc, #940]	; (10001bec <setup_rom_contents+0x17d4>)
1000183e:	5099      	str	r1, [r3, r2]
10001840:	49eb      	ldr	r1, [pc, #940]	; (10001bf0 <setup_rom_contents+0x17d8>)
10001842:	3204      	adds	r2, #4
10001844:	5099      	str	r1, [r3, r2]
10001846:	4aeb      	ldr	r2, [pc, #940]	; (10001bf4 <setup_rom_contents+0x17dc>)
10001848:	49eb      	ldr	r1, [pc, #940]	; (10001bf8 <setup_rom_contents+0x17e0>)
1000184a:	5099      	str	r1, [r3, r2]
1000184c:	4aeb      	ldr	r2, [pc, #940]	; (10001bfc <setup_rom_contents+0x17e4>)
1000184e:	49ec      	ldr	r1, [pc, #944]	; (10001c00 <setup_rom_contents+0x17e8>)
10001850:	509c      	str	r4, [r3, r2]
10001852:	4aec      	ldr	r2, [pc, #944]	; (10001c04 <setup_rom_contents+0x17ec>)
10001854:	5099      	str	r1, [r3, r2]
10001856:	49ec      	ldr	r1, [pc, #944]	; (10001c08 <setup_rom_contents+0x17f0>)
10001858:	3204      	adds	r2, #4
1000185a:	5099      	str	r1, [r3, r2]
1000185c:	4aeb      	ldr	r2, [pc, #940]	; (10001c0c <setup_rom_contents+0x17f4>)
1000185e:	509d      	str	r5, [r3, r2]
10001860:	4aeb      	ldr	r2, [pc, #940]	; (10001c10 <setup_rom_contents+0x17f8>)
10001862:	4dec      	ldr	r5, [pc, #944]	; (10001c14 <setup_rom_contents+0x17fc>)
10001864:	509d      	str	r5, [r3, r2]
10001866:	4aec      	ldr	r2, [pc, #944]	; (10001c18 <setup_rom_contents+0x1800>)
10001868:	4dec      	ldr	r5, [pc, #944]	; (10001c1c <setup_rom_contents+0x1804>)
1000186a:	509d      	str	r5, [r3, r2]
1000186c:	4dec      	ldr	r5, [pc, #944]	; (10001c20 <setup_rom_contents+0x1808>)
1000186e:	3204      	adds	r2, #4
10001870:	509d      	str	r5, [r3, r2]
10001872:	4aec      	ldr	r2, [pc, #944]	; (10001c24 <setup_rom_contents+0x180c>)
10001874:	4dec      	ldr	r5, [pc, #944]	; (10001c28 <setup_rom_contents+0x1810>)
10001876:	509d      	str	r5, [r3, r2]
10001878:	4aec      	ldr	r2, [pc, #944]	; (10001c2c <setup_rom_contents+0x1814>)
1000187a:	4ded      	ldr	r5, [pc, #948]	; (10001c30 <setup_rom_contents+0x1818>)
1000187c:	509d      	str	r5, [r3, r2]
1000187e:	4aed      	ldr	r2, [pc, #948]	; (10001c34 <setup_rom_contents+0x181c>)
10001880:	4ded      	ldr	r5, [pc, #948]	; (10001c38 <setup_rom_contents+0x1820>)
10001882:	515a      	str	r2, [r3, r5]
10001884:	3504      	adds	r5, #4
10001886:	515e      	str	r6, [r3, r5]
10001888:	4dec      	ldr	r5, [pc, #944]	; (10001c3c <setup_rom_contents+0x1824>)
1000188a:	4eed      	ldr	r6, [pc, #948]	; (10001c40 <setup_rom_contents+0x1828>)
1000188c:	515e      	str	r6, [r3, r5]
1000188e:	4ded      	ldr	r5, [pc, #948]	; (10001c44 <setup_rom_contents+0x182c>)
10001890:	4eed      	ldr	r6, [pc, #948]	; (10001c48 <setup_rom_contents+0x1830>)
10001892:	515e      	str	r6, [r3, r5]
10001894:	4ded      	ldr	r5, [pc, #948]	; (10001c4c <setup_rom_contents+0x1834>)
10001896:	4eee      	ldr	r6, [pc, #952]	; (10001c50 <setup_rom_contents+0x1838>)
10001898:	515e      	str	r6, [r3, r5]
1000189a:	3504      	adds	r5, #4
1000189c:	515a      	str	r2, [r3, r5]
1000189e:	4aed      	ldr	r2, [pc, #948]	; (10001c54 <setup_rom_contents+0x183c>)
100018a0:	4ded      	ldr	r5, [pc, #948]	; (10001c58 <setup_rom_contents+0x1840>)
100018a2:	2610      	movs	r6, #16
100018a4:	509d      	str	r5, [r3, r2]
100018a6:	4aed      	ldr	r2, [pc, #948]	; (10001c5c <setup_rom_contents+0x1844>)
100018a8:	4ded      	ldr	r5, [pc, #948]	; (10001c60 <setup_rom_contents+0x1848>)
100018aa:	509d      	str	r5, [r3, r2]
100018ac:	4aed      	ldr	r2, [pc, #948]	; (10001c64 <setup_rom_contents+0x184c>)
100018ae:	4dee      	ldr	r5, [pc, #952]	; (10001c68 <setup_rom_contents+0x1850>)
100018b0:	509d      	str	r5, [r3, r2]
100018b2:	4dee      	ldr	r5, [pc, #952]	; (10001c6c <setup_rom_contents+0x1854>)
100018b4:	3204      	adds	r2, #4
100018b6:	509d      	str	r5, [r3, r2]
100018b8:	4aed      	ldr	r2, [pc, #948]	; (10001c70 <setup_rom_contents+0x1858>)
100018ba:	4dee      	ldr	r5, [pc, #952]	; (10001c74 <setup_rom_contents+0x185c>)
100018bc:	5099      	str	r1, [r3, r2]
100018be:	4aee      	ldr	r2, [pc, #952]	; (10001c78 <setup_rom_contents+0x1860>)
100018c0:	509d      	str	r5, [r3, r2]
100018c2:	4aee      	ldr	r2, [pc, #952]	; (10001c7c <setup_rom_contents+0x1864>)
100018c4:	4dee      	ldr	r5, [pc, #952]	; (10001c80 <setup_rom_contents+0x1868>)
100018c6:	509d      	str	r5, [r3, r2]
100018c8:	4dee      	ldr	r5, [pc, #952]	; (10001c84 <setup_rom_contents+0x186c>)
100018ca:	3204      	adds	r2, #4
100018cc:	509d      	str	r5, [r3, r2]
100018ce:	4aee      	ldr	r2, [pc, #952]	; (10001c88 <setup_rom_contents+0x1870>)
100018d0:	4dee      	ldr	r5, [pc, #952]	; (10001c8c <setup_rom_contents+0x1874>)
100018d2:	509d      	str	r5, [r3, r2]
100018d4:	4aee      	ldr	r2, [pc, #952]	; (10001c90 <setup_rom_contents+0x1878>)
100018d6:	4def      	ldr	r5, [pc, #956]	; (10001c94 <setup_rom_contents+0x187c>)
100018d8:	509d      	str	r5, [r3, r2]
100018da:	4aef      	ldr	r2, [pc, #956]	; (10001c98 <setup_rom_contents+0x1880>)
100018dc:	4def      	ldr	r5, [pc, #956]	; (10001c9c <setup_rom_contents+0x1884>)
100018de:	509d      	str	r5, [r3, r2]
100018e0:	4def      	ldr	r5, [pc, #956]	; (10001ca0 <setup_rom_contents+0x1888>)
100018e2:	3204      	adds	r2, #4
100018e4:	509d      	str	r5, [r3, r2]
100018e6:	4aef      	ldr	r2, [pc, #956]	; (10001ca4 <setup_rom_contents+0x188c>)
100018e8:	4def      	ldr	r5, [pc, #956]	; (10001ca8 <setup_rom_contents+0x1890>)
100018ea:	509d      	str	r5, [r3, r2]
100018ec:	4aef      	ldr	r2, [pc, #956]	; (10001cac <setup_rom_contents+0x1894>)
100018ee:	4df0      	ldr	r5, [pc, #960]	; (10001cb0 <setup_rom_contents+0x1898>)
100018f0:	509d      	str	r5, [r3, r2]
100018f2:	4af0      	ldr	r2, [pc, #960]	; (10001cb4 <setup_rom_contents+0x189c>)
100018f4:	4df0      	ldr	r5, [pc, #960]	; (10001cb8 <setup_rom_contents+0x18a0>)
100018f6:	509d      	str	r5, [r3, r2]
100018f8:	4df0      	ldr	r5, [pc, #960]	; (10001cbc <setup_rom_contents+0x18a4>)
100018fa:	3204      	adds	r2, #4
100018fc:	509d      	str	r5, [r3, r2]
100018fe:	4af0      	ldr	r2, [pc, #960]	; (10001cc0 <setup_rom_contents+0x18a8>)
10001900:	4df0      	ldr	r5, [pc, #960]	; (10001cc4 <setup_rom_contents+0x18ac>)
10001902:	509d      	str	r5, [r3, r2]
10001904:	4af0      	ldr	r2, [pc, #960]	; (10001cc8 <setup_rom_contents+0x18b0>)
10001906:	4df1      	ldr	r5, [pc, #964]	; (10001ccc <setup_rom_contents+0x18b4>)
10001908:	509d      	str	r5, [r3, r2]
1000190a:	4af1      	ldr	r2, [pc, #964]	; (10001cd0 <setup_rom_contents+0x18b8>)
1000190c:	4df1      	ldr	r5, [pc, #964]	; (10001cd4 <setup_rom_contents+0x18bc>)
1000190e:	509d      	str	r5, [r3, r2]
10001910:	4df1      	ldr	r5, [pc, #964]	; (10001cd8 <setup_rom_contents+0x18c0>)
10001912:	3204      	adds	r2, #4
10001914:	509d      	str	r5, [r3, r2]
10001916:	4af1      	ldr	r2, [pc, #964]	; (10001cdc <setup_rom_contents+0x18c4>)
10001918:	4df1      	ldr	r5, [pc, #964]	; (10001ce0 <setup_rom_contents+0x18c8>)
1000191a:	509d      	str	r5, [r3, r2]
1000191c:	4af1      	ldr	r2, [pc, #964]	; (10001ce4 <setup_rom_contents+0x18cc>)
1000191e:	4df2      	ldr	r5, [pc, #968]	; (10001ce8 <setup_rom_contents+0x18d0>)
10001920:	529d      	strh	r5, [r3, r2]
10001922:	2200      	movs	r2, #0
10001924:	4df1      	ldr	r5, [pc, #964]	; (10001cec <setup_rom_contents+0x18d4>)
10001926:	555a      	strb	r2, [r3, r5]
10001928:	4df1      	ldr	r5, [pc, #964]	; (10001cf0 <setup_rom_contents+0x18d8>)
1000192a:	555e      	strb	r6, [r3, r5]
1000192c:	4df1      	ldr	r5, [pc, #964]	; (10001cf4 <setup_rom_contents+0x18dc>)
1000192e:	4ef2      	ldr	r6, [pc, #968]	; (10001cf8 <setup_rom_contents+0x18e0>)
10001930:	515e      	str	r6, [r3, r5]
10001932:	4ef2      	ldr	r6, [pc, #968]	; (10001cfc <setup_rom_contents+0x18e4>)
10001934:	3504      	adds	r5, #4
10001936:	515e      	str	r6, [r3, r5]
10001938:	4df1      	ldr	r5, [pc, #964]	; (10001d00 <setup_rom_contents+0x18e8>)
1000193a:	4ef2      	ldr	r6, [pc, #968]	; (10001d04 <setup_rom_contents+0x18ec>)
1000193c:	515e      	str	r6, [r3, r5]
1000193e:	4df2      	ldr	r5, [pc, #968]	; (10001d08 <setup_rom_contents+0x18f0>)
10001940:	4ef2      	ldr	r6, [pc, #968]	; (10001d0c <setup_rom_contents+0x18f4>)
10001942:	515e      	str	r6, [r3, r5]
10001944:	4df2      	ldr	r5, [pc, #968]	; (10001d10 <setup_rom_contents+0x18f8>)
10001946:	4ef3      	ldr	r6, [pc, #972]	; (10001d14 <setup_rom_contents+0x18fc>)
10001948:	515e      	str	r6, [r3, r5]
1000194a:	4ef3      	ldr	r6, [pc, #972]	; (10001d18 <setup_rom_contents+0x1900>)
1000194c:	3504      	adds	r5, #4
1000194e:	515e      	str	r6, [r3, r5]
10001950:	4df2      	ldr	r5, [pc, #968]	; (10001d1c <setup_rom_contents+0x1904>)
10001952:	4ef3      	ldr	r6, [pc, #972]	; (10001d20 <setup_rom_contents+0x1908>)
10001954:	515e      	str	r6, [r3, r5]
10001956:	4df3      	ldr	r5, [pc, #972]	; (10001d24 <setup_rom_contents+0x190c>)
10001958:	4ef3      	ldr	r6, [pc, #972]	; (10001d28 <setup_rom_contents+0x1910>)
1000195a:	515e      	str	r6, [r3, r5]
1000195c:	4ef3      	ldr	r6, [pc, #972]	; (10001d2c <setup_rom_contents+0x1914>)
1000195e:	4df4      	ldr	r5, [pc, #976]	; (10001d30 <setup_rom_contents+0x1918>)
10001960:	515e      	str	r6, [r3, r5]
10001962:	3504      	adds	r5, #4
10001964:	515c      	str	r4, [r3, r5]
10001966:	4cf3      	ldr	r4, [pc, #972]	; (10001d34 <setup_rom_contents+0x191c>)
10001968:	4df3      	ldr	r5, [pc, #972]	; (10001d38 <setup_rom_contents+0x1920>)
1000196a:	511d      	str	r5, [r3, r4]
1000196c:	4cf3      	ldr	r4, [pc, #972]	; (10001d3c <setup_rom_contents+0x1924>)
1000196e:	4df4      	ldr	r5, [pc, #976]	; (10001d40 <setup_rom_contents+0x1928>)
10001970:	5119      	str	r1, [r3, r4]
10001972:	49f4      	ldr	r1, [pc, #976]	; (10001d44 <setup_rom_contents+0x192c>)
10001974:	4cf4      	ldr	r4, [pc, #976]	; (10001d48 <setup_rom_contents+0x1930>)
10001976:	505c      	str	r4, [r3, r1]
10001978:	4cf4      	ldr	r4, [pc, #976]	; (10001d4c <setup_rom_contents+0x1934>)
1000197a:	3104      	adds	r1, #4
1000197c:	505c      	str	r4, [r3, r1]
1000197e:	49f4      	ldr	r1, [pc, #976]	; (10001d50 <setup_rom_contents+0x1938>)
10001980:	4cf4      	ldr	r4, [pc, #976]	; (10001d54 <setup_rom_contents+0x193c>)
10001982:	505c      	str	r4, [r3, r1]
10001984:	49f4      	ldr	r1, [pc, #976]	; (10001d58 <setup_rom_contents+0x1940>)
10001986:	4cf5      	ldr	r4, [pc, #980]	; (10001d5c <setup_rom_contents+0x1944>)
10001988:	505c      	str	r4, [r3, r1]
1000198a:	49f5      	ldr	r1, [pc, #980]	; (10001d60 <setup_rom_contents+0x1948>)
1000198c:	4cf5      	ldr	r4, [pc, #980]	; (10001d64 <setup_rom_contents+0x194c>)
1000198e:	5058      	str	r0, [r3, r1]
10001990:	48f5      	ldr	r0, [pc, #980]	; (10001d68 <setup_rom_contents+0x1950>)
10001992:	3104      	adds	r1, #4
10001994:	5058      	str	r0, [r3, r1]
10001996:	49f5      	ldr	r1, [pc, #980]	; (10001d6c <setup_rom_contents+0x1954>)
10001998:	48f5      	ldr	r0, [pc, #980]	; (10001d70 <setup_rom_contents+0x1958>)
1000199a:	5058      	str	r0, [r3, r1]
1000199c:	49f5      	ldr	r1, [pc, #980]	; (10001d74 <setup_rom_contents+0x195c>)
1000199e:	48f6      	ldr	r0, [pc, #984]	; (10001d78 <setup_rom_contents+0x1960>)
100019a0:	5058      	str	r0, [r3, r1]
100019a2:	49f6      	ldr	r1, [pc, #984]	; (10001d7c <setup_rom_contents+0x1964>)
100019a4:	48f6      	ldr	r0, [pc, #984]	; (10001d80 <setup_rom_contents+0x1968>)
100019a6:	5058      	str	r0, [r3, r1]
100019a8:	48f6      	ldr	r0, [pc, #984]	; (10001d84 <setup_rom_contents+0x196c>)
100019aa:	3104      	adds	r1, #4
100019ac:	5058      	str	r0, [r3, r1]
100019ae:	49f6      	ldr	r1, [pc, #984]	; (10001d88 <setup_rom_contents+0x1970>)
100019b0:	48f6      	ldr	r0, [pc, #984]	; (10001d8c <setup_rom_contents+0x1974>)
100019b2:	5058      	str	r0, [r3, r1]
100019b4:	49f6      	ldr	r1, [pc, #984]	; (10001d90 <setup_rom_contents+0x1978>)
100019b6:	48f7      	ldr	r0, [pc, #988]	; (10001d94 <setup_rom_contents+0x197c>)
100019b8:	5058      	str	r0, [r3, r1]
100019ba:	49f7      	ldr	r1, [pc, #988]	; (10001d98 <setup_rom_contents+0x1980>)
100019bc:	48f7      	ldr	r0, [pc, #988]	; (10001d9c <setup_rom_contents+0x1984>)
100019be:	5058      	str	r0, [r3, r1]
100019c0:	48f7      	ldr	r0, [pc, #988]	; (10001da0 <setup_rom_contents+0x1988>)
100019c2:	3104      	adds	r1, #4
100019c4:	5058      	str	r0, [r3, r1]
100019c6:	49f7      	ldr	r1, [pc, #988]	; (10001da4 <setup_rom_contents+0x198c>)
100019c8:	48f7      	ldr	r0, [pc, #988]	; (10001da8 <setup_rom_contents+0x1990>)
100019ca:	5058      	str	r0, [r3, r1]
100019cc:	49f7      	ldr	r1, [pc, #988]	; (10001dac <setup_rom_contents+0x1994>)
100019ce:	48f8      	ldr	r0, [pc, #992]	; (10001db0 <setup_rom_contents+0x1998>)
100019d0:	5058      	str	r0, [r3, r1]
100019d2:	49f8      	ldr	r1, [pc, #992]	; (10001db4 <setup_rom_contents+0x199c>)
100019d4:	48f8      	ldr	r0, [pc, #992]	; (10001db8 <setup_rom_contents+0x19a0>)
100019d6:	5058      	str	r0, [r3, r1]
100019d8:	48f8      	ldr	r0, [pc, #992]	; (10001dbc <setup_rom_contents+0x19a4>)
100019da:	3104      	adds	r1, #4
100019dc:	5058      	str	r0, [r3, r1]
100019de:	49f8      	ldr	r1, [pc, #992]	; (10001dc0 <setup_rom_contents+0x19a8>)
100019e0:	48f8      	ldr	r0, [pc, #992]	; (10001dc4 <setup_rom_contents+0x19ac>)
100019e2:	5058      	str	r0, [r3, r1]
100019e4:	49f8      	ldr	r1, [pc, #992]	; (10001dc8 <setup_rom_contents+0x19b0>)
100019e6:	48f9      	ldr	r0, [pc, #996]	; (10001dcc <setup_rom_contents+0x19b4>)
100019e8:	5058      	str	r0, [r3, r1]
100019ea:	49f9      	ldr	r1, [pc, #996]	; (10001dd0 <setup_rom_contents+0x19b8>)
100019ec:	48f9      	ldr	r0, [pc, #996]	; (10001dd4 <setup_rom_contents+0x19bc>)
100019ee:	5058      	str	r0, [r3, r1]
100019f0:	48f9      	ldr	r0, [pc, #996]	; (10001dd8 <setup_rom_contents+0x19c0>)
100019f2:	3104      	adds	r1, #4
100019f4:	5058      	str	r0, [r3, r1]
100019f6:	49f9      	ldr	r1, [pc, #996]	; (10001ddc <setup_rom_contents+0x19c4>)
100019f8:	505c      	str	r4, [r3, r1]
100019fa:	49f9      	ldr	r1, [pc, #996]	; (10001de0 <setup_rom_contents+0x19c8>)
100019fc:	4cf9      	ldr	r4, [pc, #996]	; (10001de4 <setup_rom_contents+0x19cc>)
100019fe:	505c      	str	r4, [r3, r1]
10001a00:	49f9      	ldr	r1, [pc, #996]	; (10001de8 <setup_rom_contents+0x19d0>)
10001a02:	4cfa      	ldr	r4, [pc, #1000]	; (10001dec <setup_rom_contents+0x19d4>)
10001a04:	505c      	str	r4, [r3, r1]
10001a06:	4cfa      	ldr	r4, [pc, #1000]	; (10001df0 <setup_rom_contents+0x19d8>)
10001a08:	3104      	adds	r1, #4
10001a0a:	505c      	str	r4, [r3, r1]
10001a0c:	49f9      	ldr	r1, [pc, #996]	; (10001df4 <setup_rom_contents+0x19dc>)
10001a0e:	4cfa      	ldr	r4, [pc, #1000]	; (10001df8 <setup_rom_contents+0x19e0>)
10001a10:	505c      	str	r4, [r3, r1]
10001a12:	49fa      	ldr	r1, [pc, #1000]	; (10001dfc <setup_rom_contents+0x19e4>)
10001a14:	4cfa      	ldr	r4, [pc, #1000]	; (10001e00 <setup_rom_contents+0x19e8>)
10001a16:	505c      	str	r4, [r3, r1]
10001a18:	49fa      	ldr	r1, [pc, #1000]	; (10001e04 <setup_rom_contents+0x19ec>)
10001a1a:	4cfb      	ldr	r4, [pc, #1004]	; (10001e08 <setup_rom_contents+0x19f0>)
10001a1c:	505c      	str	r4, [r3, r1]
10001a1e:	4cfb      	ldr	r4, [pc, #1004]	; (10001e0c <setup_rom_contents+0x19f4>)
10001a20:	3104      	adds	r1, #4
10001a22:	505c      	str	r4, [r3, r1]
10001a24:	49fa      	ldr	r1, [pc, #1000]	; (10001e10 <setup_rom_contents+0x19f8>)
10001a26:	4cfb      	ldr	r4, [pc, #1004]	; (10001e14 <setup_rom_contents+0x19fc>)
10001a28:	505c      	str	r4, [r3, r1]
10001a2a:	49fb      	ldr	r1, [pc, #1004]	; (10001e18 <setup_rom_contents+0x1a00>)
10001a2c:	4cfb      	ldr	r4, [pc, #1004]	; (10001e1c <setup_rom_contents+0x1a04>)
10001a2e:	505c      	str	r4, [r3, r1]
10001a30:	49fb      	ldr	r1, [pc, #1004]	; (10001e20 <setup_rom_contents+0x1a08>)
10001a32:	4cfc      	ldr	r4, [pc, #1008]	; (10001e24 <setup_rom_contents+0x1a0c>)
10001a34:	505c      	str	r4, [r3, r1]
10001a36:	4cfc      	ldr	r4, [pc, #1008]	; (10001e28 <setup_rom_contents+0x1a10>)
10001a38:	3104      	adds	r1, #4
10001a3a:	505c      	str	r4, [r3, r1]
10001a3c:	49fb      	ldr	r1, [pc, #1004]	; (10001e2c <setup_rom_contents+0x1a14>)
10001a3e:	4cfc      	ldr	r4, [pc, #1008]	; (10001e30 <setup_rom_contents+0x1a18>)
10001a40:	505c      	str	r4, [r3, r1]
10001a42:	49fc      	ldr	r1, [pc, #1008]	; (10001e34 <setup_rom_contents+0x1a1c>)
10001a44:	4cfc      	ldr	r4, [pc, #1008]	; (10001e38 <setup_rom_contents+0x1a20>)
10001a46:	505c      	str	r4, [r3, r1]
10001a48:	49fc      	ldr	r1, [pc, #1008]	; (10001e3c <setup_rom_contents+0x1a24>)
10001a4a:	4cfd      	ldr	r4, [pc, #1012]	; (10001e40 <setup_rom_contents+0x1a28>)
10001a4c:	505c      	str	r4, [r3, r1]
10001a4e:	249c      	movs	r4, #156	; 0x9c
10001a50:	3104      	adds	r1, #4
10001a52:	03a4      	lsls	r4, r4, #14
10001a54:	505c      	str	r4, [r3, r1]
10001a56:	49fb      	ldr	r1, [pc, #1004]	; (10001e44 <setup_rom_contents+0x1a2c>)
10001a58:	4cfb      	ldr	r4, [pc, #1004]	; (10001e48 <setup_rom_contents+0x1a30>)
10001a5a:	505c      	str	r4, [r3, r1]
10001a5c:	49fb      	ldr	r1, [pc, #1004]	; (10001e4c <setup_rom_contents+0x1a34>)
10001a5e:	4cfc      	ldr	r4, [pc, #1008]	; (10001e50 <setup_rom_contents+0x1a38>)
10001a60:	505c      	str	r4, [r3, r1]
10001a62:	24b8      	movs	r4, #184	; 0xb8
10001a64:	49fb      	ldr	r1, [pc, #1004]	; (10001e54 <setup_rom_contents+0x1a3c>)
10001a66:	01e4      	lsls	r4, r4, #7
10001a68:	505c      	str	r4, [r3, r1]
10001a6a:	3104      	adds	r1, #4
10001a6c:	505a      	str	r2, [r3, r1]
10001a6e:	2180      	movs	r1, #128	; 0x80
10001a70:	4cf9      	ldr	r4, [pc, #996]	; (10001e58 <setup_rom_contents+0x1a40>)
10001a72:	0309      	lsls	r1, r1, #12
10001a74:	5119      	str	r1, [r3, r4]
10001a76:	4cf9      	ldr	r4, [pc, #996]	; (10001e5c <setup_rom_contents+0x1a44>)
10001a78:	511d      	str	r5, [r3, r4]
10001a7a:	2537      	movs	r5, #55	; 0x37
10001a7c:	4cf8      	ldr	r4, [pc, #992]	; (10001e60 <setup_rom_contents+0x1a48>)
10001a7e:	511d      	str	r5, [r3, r4]
10001a80:	4df8      	ldr	r5, [pc, #992]	; (10001e64 <setup_rom_contents+0x1a4c>)
10001a82:	3404      	adds	r4, #4
10001a84:	511d      	str	r5, [r3, r4]
10001a86:	4cf8      	ldr	r4, [pc, #992]	; (10001e68 <setup_rom_contents+0x1a50>)
10001a88:	4df8      	ldr	r5, [pc, #992]	; (10001e6c <setup_rom_contents+0x1a54>)
10001a8a:	511d      	str	r5, [r3, r4]
10001a8c:	4cf8      	ldr	r4, [pc, #992]	; (10001e70 <setup_rom_contents+0x1a58>)
10001a8e:	4df9      	ldr	r5, [pc, #996]	; (10001e74 <setup_rom_contents+0x1a5c>)
10001a90:	511d      	str	r5, [r3, r4]
10001a92:	4cf9      	ldr	r4, [pc, #996]	; (10001e78 <setup_rom_contents+0x1a60>)
10001a94:	4df9      	ldr	r5, [pc, #996]	; (10001e7c <setup_rom_contents+0x1a64>)
10001a96:	511d      	str	r5, [r3, r4]
10001a98:	4df9      	ldr	r5, [pc, #996]	; (10001e80 <setup_rom_contents+0x1a68>)
10001a9a:	3404      	adds	r4, #4
10001a9c:	531d      	strh	r5, [r3, r4]
10001a9e:	25c7      	movs	r5, #199	; 0xc7
10001aa0:	4cf8      	ldr	r4, [pc, #992]	; (10001e84 <setup_rom_contents+0x1a6c>)
10001aa2:	551d      	strb	r5, [r3, r4]
10001aa4:	4cf8      	ldr	r4, [pc, #992]	; (10001e88 <setup_rom_contents+0x1a70>)
10001aa6:	3d02      	subs	r5, #2
10001aa8:	551d      	strb	r5, [r3, r4]
10001aaa:	e1ef      	b.n	10001e8c <setup_rom_contents+0x1a74>
10001aac:	0902303f 	.word	0x0902303f
10001ab0:	00000754 	.word	0x00000754
10001ab4:	5ebd6080 	.word	0x5ebd6080
10001ab8:	4a7e6087 	.word	0x4a7e6087
10001abc:	0000075c 	.word	0x0000075c
10001ac0:	6a207c12 	.word	0x6a207c12
10001ac4:	92200f00 	.word	0x92200f00
10001ac8:	00000764 	.word	0x00000764
10001acc:	d012c988 	.word	0xd012c988
10001ad0:	87374c0e 	.word	0x87374c0e
10001ad4:	c9889220 	.word	0xc9889220
10001ad8:	0000076c 	.word	0x0000076c
10001adc:	00000774 	.word	0x00000774
10001ae0:	c90ef059 	.word	0xc90ef059
10001ae4:	c907f014 	.word	0xc907f014
10001ae8:	0000077c 	.word	0x0000077c
10001aec:	a9b8d011 	.word	0xa9b8d011
10001af0:	f7a96013 	.word	0xf7a96013
10001af4:	00000784 	.word	0x00000784
10001af8:	25efa92c 	.word	0x25efa92c
10001afc:	0000078c 	.word	0x0000078c
10001b00:	297fe0ad 	.word	0x297fe0ad
10001b04:	02850149 	.word	0x02850149
10001b08:	00000794 	.word	0x00000794
10001b0c:	a5890a20 	.word	0xa5890a20
10001b10:	7fe28def 	.word	0x7fe28def
10001b14:	60018902 	.word	0x60018902
10001b18:	0000079c 	.word	0x0000079c
10001b1c:	922007a2 	.word	0x922007a2
10001b20:	fad0ca88 	.word	0xfad0ca88
10001b24:	000007a4 	.word	0x000007a4
10001b28:	a26010a9 	.word	0xa26010a9
10001b2c:	87badd0e 	.word	0x87badd0e
10001b30:	000007ac 	.word	0x000007ac
10001b34:	10ca04f0 	.word	0x10ca04f0
10001b38:	0a8a60f8 	.word	0x0a8a60f8
10001b3c:	000007b4 	.word	0x000007b4
10001b40:	7c00a5aa 	.word	0x7c00a5aa
10001b44:	588387c9 	.word	0x588387c9
10001b48:	000007bc 	.word	0x000007bc
10001b4c:	77145912 	.word	0x77145912
10001b50:	ffffe0e1 	.word	0xffffe0e1
10001b54:	000007c2 	.word	0x000007c2
10001b58:	000007c3 	.word	0x000007c3
10001b5c:	000007c4 	.word	0x000007c4
10001b60:	fffeeeaa 	.word	0xfffeeeaa
10001b64:	2e870b00 	.word	0x2e870b00
10001b68:	000007cc 	.word	0x000007cc
10001b6c:	0e870e87 	.word	0x0e870e87
10001b70:	1a871187 	.word	0x1a871187
10001b74:	000007d4 	.word	0x000007d4
10001b78:	3a879c87 	.word	0x3a879c87
10001b7c:	37876c87 	.word	0x37876c87
10001b80:	000007dc 	.word	0x000007dc
10001b84:	37873787 	.word	0x37873787
10001b88:	05872687 	.word	0x05872687
10001b8c:	000007e4 	.word	0x000007e4
10001b90:	a2880588 	.word	0xa2880588
10001b94:	7fe2ad05 	.word	0x7fe2ad05
10001b98:	000007ec 	.word	0x000007ec
10001b9c:	e28dcf29 	.word	0xe28dcf29
10001ba0:	2c10a97f 	.word	0x2c10a97f
10001ba4:	000007f4 	.word	0x000007f4
10001ba8:	09f07fe0 	.word	0x09f07fe0
10001bac:	20f6d0ca 	.word	0x20f6d0ca
10001bb0:	000007fc 	.word	0x000007fc
10001bb4:	00a988e0 	.word	0x00a988e0
10001bb8:	88e02060 	.word	0x88e02060
10001bbc:	00000804 	.word	0x00000804
10001bc0:	85f4a960 	.word	0x85f4a960
10001bc4:	00000808 	.word	0x00000808
10001bc8:	855ada00 	.word	0x855ada00
10001bcc:	0000080c 	.word	0x0000080c
10001bd0:	7fe0ad03 	.word	0x7fe0ad03
10001bd4:	2009ef29 	.word	0x2009ef29
10001bd8:	00000814 	.word	0x00000814
10001bdc:	ad7fe08d 	.word	0xad7fe08d
10001be0:	00000818 	.word	0x00000818
10001be4:	30097fe2 	.word	0x30097fe2
10001be8:	0000081c 	.word	0x0000081c
10001bec:	a97fe28d 	.word	0xa97fe28d
10001bf0:	fdd03a10 	.word	0xfdd03a10
10001bf4:	00000824 	.word	0x00000824
10001bf8:	08a200a0 	.word	0x08a200a0
10001bfc:	00000828 	.word	0x00000828
10001c00:	7fe08dcf 	.word	0x7fe08dcf
10001c04:	0000082c 	.word	0x0000082c
10001c08:	297fe2ad 	.word	0x297fe2ad
10001c0c:	00000834 	.word	0x00000834
10001c10:	00000838 	.word	0x00000838
10001c14:	66891e20 	.word	0x66891e20
10001c18:	0000083c 	.word	0x0000083c
10001c1c:	ad0bb000 	.word	0xad0bb000
10001c20:	df297fe0 	.word	0xdf297fe0
10001c24:	00000844 	.word	0x00000844
10001c28:	4c7fe08d 	.word	0x4c7fe08d
10001c2c:	00000848 	.word	0x00000848
10001c30:	e0ad8853 	.word	0xe0ad8853
10001c34:	8d20097f 	.word	0x8d20097f
10001c38:	0000084c 	.word	0x0000084c
10001c3c:	00000854 	.word	0x00000854
10001c40:	d0ca891e 	.word	0xd0ca891e
10001c44:	00000858 	.word	0x00000858
10001c48:	012998e2 	.word	0x012998e2
10001c4c:	0000085c 	.word	0x0000085c
10001c50:	e0ad0bd0 	.word	0xe0ad0bd0
10001c54:	00000864 	.word	0x00000864
10001c58:	714c7fe0 	.word	0x714c7fe0
10001c5c:	00000868 	.word	0x00000868
10001c60:	7fe0ad88 	.word	0x7fe0ad88
10001c64:	0000086c 	.word	0x0000086c
10001c68:	e08ddf29 	.word	0xe08ddf29
10001c6c:	891e207f 	.word	0x891e207f
10001c70:	00000874 	.word	0x00000874
10001c74:	7fe28dcf 	.word	0x7fe28dcf
10001c78:	00000878 	.word	0x00000878
10001c7c:	0000087c 	.word	0x0000087c
10001c80:	1e20fa7a 	.word	0x1e20fa7a
10001c84:	ad70d089 	.word	0xad70d089
10001c88:	00000884 	.word	0x00000884
10001c8c:	10297fe0 	.word	0x10297fe0
10001c90:	00000888 	.word	0x00000888
10001c94:	e04cf9f0 	.word	0xe04cf9f0
10001c98:	0000088c 	.word	0x0000088c
10001c9c:	20fea988 	.word	0x20fea988
10001ca0:	5ada8807 	.word	0x5ada8807
10001ca4:	00000894 	.word	0x00000894
10001ca8:	008500a9 	.word	0x008500a9
10001cac:	00000898 	.word	0x00000898
10001cb0:	00a00185 	.word	0x00a00185
10001cb4:	0000089c 	.word	0x0000089c
10001cb8:	e2ad08a2 	.word	0xe2ad08a2
10001cbc:	8dcf297f 	.word	0x8dcf297f
10001cc0:	000008a4 	.word	0x000008a4
10001cc4:	10a97fe2 	.word	0x10a97fe2
10001cc8:	000008a8 	.word	0x000008a8
10001ccc:	d07fe02c 	.word	0xd07fe02c
10001cd0:	000008ac 	.word	0x000008ac
10001cd4:	7fe0adf9 	.word	0x7fe0adf9
10001cd8:	f2d02029 	.word	0xf2d02029
10001cdc:	000008b4 	.word	0x000008b4
10001ce0:	c9891e20 	.word	0xc9891e20
10001ce4:	000008b8 	.word	0x000008b8
10001ce8:	00006601 	.word	0x00006601
10001cec:	000008ba 	.word	0x000008ba
10001cf0:	000008bb 	.word	0x000008bb
10001cf4:	000008bc 	.word	0x000008bc
10001cf8:	d0cac801 	.word	0xd0cac801
10001cfc:	891e20f3 	.word	0x891e20f3
10001d00:	000008c4 	.word	0x000008c4
10001d04:	01e602f0 	.word	0x01e602f0
10001d08:	000008c8 	.word	0x000008c8
10001d0c:	45fa7a98 	.word	0x45fa7a98
10001d10:	000008cc 	.word	0x000008cc
10001d14:	f0012901 	.word	0xf0012901
10001d18:	891e20bc 	.word	0x891e20bc
10001d1c:	000008d4 	.word	0x000008d4
10001d20:	00a5b7f0 	.word	0x00a5b7f0
10001d24:	000008d8 	.word	0x000008d8
10001d28:	e020b8f0 	.word	0xe020b8f0
10001d2c:	6000a588 	.word	0x6000a588
10001d30:	000008dc 	.word	0x000008dc
10001d34:	000008e4 	.word	0x000008e4
10001d38:	7fe08def 	.word	0x7fe08def
10001d3c:	000008e8 	.word	0x000008e8
10001d40:	342f3100 	.word	0x342f3100
10001d44:	000008ec 	.word	0x000008ec
10001d48:	8d1009cf 	.word	0x8d1009cf
10001d4c:	a9607fe2 	.word	0xa9607fe2
10001d50:	000008f4 	.word	0x000008f4
10001d54:	a9028502 	.word	0xa9028502
10001d58:	000008f8 	.word	0x000008f8
10001d5c:	880720ff 	.word	0x880720ff
10001d60:	000008fc 	.word	0x000008fc
10001d64:	00317100 	.word	0x00317100
10001d68:	20f4d0fa 	.word	0x20f4d0fa
10001d6c:	00000904 	.word	0x00000904
10001d70:	aac98892 	.word	0xaac98892
10001d74:	00000908 	.word	0x00000908
10001d78:	eda9edd0 	.word	0xeda9edd0
10001d7c:	0000090c 	.word	0x0000090c
10001d80:	20880720 	.word	0x20880720
10001d84:	fac98892 	.word	0xfac98892
10001d88:	00000914 	.word	0x00000914
10001d8c:	02a5f4d0 	.word	0x02a5f4d0
10001d90:	00000918 	.word	0x00000918
10001d94:	07200729 	.word	0x07200729
10001d98:	0000091c 	.word	0x0000091c
10001d9c:	10a96088 	.word	0x10a96088
10001da0:	f07fe02c 	.word	0xf07fe02c
10001da4:	00000924 	.word	0x00000924
10001da8:	7fe02cf9 	.word	0x7fe02cf9
10001dac:	00000928 	.word	0x00000928
10001db0:	e0adfbd0 	.word	0xe0adfbd0
10001db4:	0000092c 	.word	0x0000092c
10001db8:	6020297f 	.word	0x6020297f
10001dbc:	85878900 	.word	0x85878900
10001dc0:	00000934 	.word	0x00000934
10001dc4:	8c828183 	.word	0x8c828183
10001dc8:	00000938 	.word	0x00000938
10001dcc:	86888a00 	.word	0x86888a00
10001dd0:	0000093c 	.word	0x0000093c
10001dd4:	8f600984 	.word	0x8f600984
10001dd8:	e000a003 	.word	0xe000a003
10001ddc:	00000944 	.word	0x00000944
10001de0:	00000948 	.word	0x00000948
10001de4:	737a0000 	.word	0x737a0000
10001de8:	0000094c 	.word	0x0000094c
10001dec:	a1327761 	.word	0xa1327761
10001df0:	64786302 	.word	0x64786302
10001df4:	00000954 	.word	0x00000954
10001df8:	a2333465 	.word	0xa2333465
10001dfc:	00000958 	.word	0x00000958
10001e00:	66762000 	.word	0x66762000
10001e04:	0000095c 	.word	0x0000095c
10001e08:	a3357274 	.word	0xa3357274
10001e0c:	68626e00 	.word	0x68626e00
10001e10:	00000964 	.word	0x00000964
10001e14:	00367967 	.word	0x00367967
10001e18:	00000968 	.word	0x00000968
10001e1c:	6a6d0000 	.word	0x6a6d0000
10001e20:	0000096c 	.word	0x0000096c
10001e24:	00383775 	.word	0x00383775
10001e28:	696b2c00 	.word	0x696b2c00
10001e2c:	00000974 	.word	0x00000974
10001e30:	0039306f 	.word	0x0039306f
10001e34:	00000978 	.word	0x00000978
10001e38:	6c2f2e00 	.word	0x6c2f2e00
10001e3c:	0000097c 	.word	0x0000097c
10001e40:	002d703b 	.word	0x002d703b
10001e44:	00000984 	.word	0x00000984
10001e48:	00003d5b 	.word	0x00003d5b
10001e4c:	00000988 	.word	0x00000988
10001e50:	5d0d0000 	.word	0x5d0d0000
10001e54:	0000098c 	.word	0x0000098c
10001e58:	00000994 	.word	0x00000994
10001e5c:	00000998 	.word	0x00000998
10001e60:	0000099c 	.word	0x0000099c
10001e64:	35322e30 	.word	0x35322e30
10001e68:	000009a4 	.word	0x000009a4
10001e6c:	001b3836 	.word	0x001b3836
10001e70:	000009a8 	.word	0x000009a8
10001e74:	2d332b8b 	.word	0x2d332b8b
10001e78:	000009ac 	.word	0x000009ac
10001e7c:	008d392a 	.word	0x008d392a
10001e80:	ffffc900 	.word	0xffffc900
10001e84:	000009b2 	.word	0x000009b2
10001e88:	000009b3 	.word	0x000009b3
10001e8c:	4cdf      	ldr	r4, [pc, #892]	; (1000220c <setup_rom_contents+0x1df4>)
10001e8e:	4de0      	ldr	r5, [pc, #896]	; (10002210 <setup_rom_contents+0x1df8>)
10001e90:	511d      	str	r5, [r3, r4]
10001e92:	4ce0      	ldr	r4, [pc, #896]	; (10002214 <setup_rom_contents+0x1dfc>)
10001e94:	4de0      	ldr	r5, [pc, #896]	; (10002218 <setup_rom_contents+0x1e00>)
10001e96:	511d      	str	r5, [r3, r4]
10001e98:	4ce0      	ldr	r4, [pc, #896]	; (1000221c <setup_rom_contents+0x1e04>)
10001e9a:	4de1      	ldr	r5, [pc, #900]	; (10002220 <setup_rom_contents+0x1e08>)
10001e9c:	511d      	str	r5, [r3, r4]
10001e9e:	3404      	adds	r4, #4
10001ea0:	5118      	str	r0, [r3, r4]
10001ea2:	48e0      	ldr	r0, [pc, #896]	; (10002224 <setup_rom_contents+0x1e0c>)
10001ea4:	4ce0      	ldr	r4, [pc, #896]	; (10002228 <setup_rom_contents+0x1e10>)
10001ea6:	4de1      	ldr	r5, [pc, #900]	; (1000222c <setup_rom_contents+0x1e14>)
10001ea8:	501c      	str	r4, [r3, r0]
10001eaa:	48e1      	ldr	r0, [pc, #900]	; (10002230 <setup_rom_contents+0x1e18>)
10001eac:	4ce1      	ldr	r4, [pc, #900]	; (10002234 <setup_rom_contents+0x1e1c>)
10001eae:	501c      	str	r4, [r3, r0]
10001eb0:	48e1      	ldr	r0, [pc, #900]	; (10002238 <setup_rom_contents+0x1e20>)
10001eb2:	4ce2      	ldr	r4, [pc, #904]	; (1000223c <setup_rom_contents+0x1e24>)
10001eb4:	501c      	str	r4, [r3, r0]
10001eb6:	4ce2      	ldr	r4, [pc, #904]	; (10002240 <setup_rom_contents+0x1e28>)
10001eb8:	3004      	adds	r0, #4
10001eba:	501c      	str	r4, [r3, r0]
10001ebc:	48e1      	ldr	r0, [pc, #900]	; (10002244 <setup_rom_contents+0x1e2c>)
10001ebe:	4ce2      	ldr	r4, [pc, #904]	; (10002248 <setup_rom_contents+0x1e30>)
10001ec0:	501c      	str	r4, [r3, r0]
10001ec2:	48e2      	ldr	r0, [pc, #904]	; (1000224c <setup_rom_contents+0x1e34>)
10001ec4:	4ce2      	ldr	r4, [pc, #904]	; (10002250 <setup_rom_contents+0x1e38>)
10001ec6:	501c      	str	r4, [r3, r0]
10001ec8:	48e2      	ldr	r0, [pc, #904]	; (10002254 <setup_rom_contents+0x1e3c>)
10001eca:	4ce3      	ldr	r4, [pc, #908]	; (10002258 <setup_rom_contents+0x1e40>)
10001ecc:	501c      	str	r4, [r3, r0]
10001ece:	4ce3      	ldr	r4, [pc, #908]	; (1000225c <setup_rom_contents+0x1e44>)
10001ed0:	3004      	adds	r0, #4
10001ed2:	501c      	str	r4, [r3, r0]
10001ed4:	48e2      	ldr	r0, [pc, #904]	; (10002260 <setup_rom_contents+0x1e48>)
10001ed6:	4ce3      	ldr	r4, [pc, #908]	; (10002264 <setup_rom_contents+0x1e4c>)
10001ed8:	501c      	str	r4, [r3, r0]
10001eda:	48e3      	ldr	r0, [pc, #908]	; (10002268 <setup_rom_contents+0x1e50>)
10001edc:	4ce3      	ldr	r4, [pc, #908]	; (1000226c <setup_rom_contents+0x1e54>)
10001ede:	501c      	str	r4, [r3, r0]
10001ee0:	48e3      	ldr	r0, [pc, #908]	; (10002270 <setup_rom_contents+0x1e58>)
10001ee2:	4ce4      	ldr	r4, [pc, #912]	; (10002274 <setup_rom_contents+0x1e5c>)
10001ee4:	501c      	str	r4, [r3, r0]
10001ee6:	4ce4      	ldr	r4, [pc, #912]	; (10002278 <setup_rom_contents+0x1e60>)
10001ee8:	3004      	adds	r0, #4
10001eea:	501c      	str	r4, [r3, r0]
10001eec:	48e3      	ldr	r0, [pc, #908]	; (1000227c <setup_rom_contents+0x1e64>)
10001eee:	4ce4      	ldr	r4, [pc, #912]	; (10002280 <setup_rom_contents+0x1e68>)
10001ef0:	501c      	str	r4, [r3, r0]
10001ef2:	48e4      	ldr	r0, [pc, #912]	; (10002284 <setup_rom_contents+0x1e6c>)
10001ef4:	4ce4      	ldr	r4, [pc, #912]	; (10002288 <setup_rom_contents+0x1e70>)
10001ef6:	501c      	str	r4, [r3, r0]
10001ef8:	48e4      	ldr	r0, [pc, #912]	; (1000228c <setup_rom_contents+0x1e74>)
10001efa:	4ce5      	ldr	r4, [pc, #916]	; (10002290 <setup_rom_contents+0x1e78>)
10001efc:	501c      	str	r4, [r3, r0]
10001efe:	2488      	movs	r4, #136	; 0x88
10001f00:	3004      	adds	r0, #4
10001f02:	03a4      	lsls	r4, r4, #14
10001f04:	501c      	str	r4, [r3, r0]
10001f06:	48e3      	ldr	r0, [pc, #908]	; (10002294 <setup_rom_contents+0x1e7c>)
10001f08:	4ce3      	ldr	r4, [pc, #908]	; (10002298 <setup_rom_contents+0x1e80>)
10001f0a:	501c      	str	r4, [r3, r0]
10001f0c:	48e3      	ldr	r0, [pc, #908]	; (1000229c <setup_rom_contents+0x1e84>)
10001f0e:	4ce4      	ldr	r4, [pc, #912]	; (100022a0 <setup_rom_contents+0x1e88>)
10001f10:	501c      	str	r4, [r3, r0]
10001f12:	24f8      	movs	r4, #248	; 0xf8
10001f14:	48e3      	ldr	r0, [pc, #908]	; (100022a4 <setup_rom_contents+0x1e8c>)
10001f16:	01e4      	lsls	r4, r4, #7
10001f18:	501c      	str	r4, [r3, r0]
10001f1a:	3004      	adds	r0, #4
10001f1c:	501a      	str	r2, [r3, r0]
10001f1e:	4ae2      	ldr	r2, [pc, #904]	; (100022a8 <setup_rom_contents+0x1e90>)
10001f20:	48e2      	ldr	r0, [pc, #904]	; (100022ac <setup_rom_contents+0x1e94>)
10001f22:	5099      	str	r1, [r3, r2]
10001f24:	4ae2      	ldr	r2, [pc, #904]	; (100022b0 <setup_rom_contents+0x1e98>)
10001f26:	49e3      	ldr	r1, [pc, #908]	; (100022b4 <setup_rom_contents+0x1e9c>)
10001f28:	24bc      	movs	r4, #188	; 0xbc
10001f2a:	5099      	str	r1, [r3, r2]
10001f2c:	2197      	movs	r1, #151	; 0x97
10001f2e:	4ae2      	ldr	r2, [pc, #904]	; (100022b8 <setup_rom_contents+0x1ea0>)
10001f30:	5099      	str	r1, [r3, r2]
10001f32:	49e2      	ldr	r1, [pc, #904]	; (100022bc <setup_rom_contents+0x1ea4>)
10001f34:	3204      	adds	r2, #4
10001f36:	5099      	str	r1, [r3, r2]
10001f38:	4ae1      	ldr	r2, [pc, #900]	; (100022c0 <setup_rom_contents+0x1ea8>)
10001f3a:	49e2      	ldr	r1, [pc, #904]	; (100022c4 <setup_rom_contents+0x1eac>)
10001f3c:	5099      	str	r1, [r3, r2]
10001f3e:	4ae2      	ldr	r2, [pc, #904]	; (100022c8 <setup_rom_contents+0x1eb0>)
10001f40:	49e2      	ldr	r1, [pc, #904]	; (100022cc <setup_rom_contents+0x1eb4>)
10001f42:	5099      	str	r1, [r3, r2]
10001f44:	4ae2      	ldr	r2, [pc, #904]	; (100022d0 <setup_rom_contents+0x1eb8>)
10001f46:	49e3      	ldr	r1, [pc, #908]	; (100022d4 <setup_rom_contents+0x1ebc>)
10001f48:	5099      	str	r1, [r3, r2]
10001f4a:	49e3      	ldr	r1, [pc, #908]	; (100022d8 <setup_rom_contents+0x1ec0>)
10001f4c:	3204      	adds	r2, #4
10001f4e:	5099      	str	r1, [r3, r2]
10001f50:	4ae2      	ldr	r2, [pc, #904]	; (100022dc <setup_rom_contents+0x1ec4>)
10001f52:	49e3      	ldr	r1, [pc, #908]	; (100022e0 <setup_rom_contents+0x1ec8>)
10001f54:	5099      	str	r1, [r3, r2]
10001f56:	4ae3      	ldr	r2, [pc, #908]	; (100022e4 <setup_rom_contents+0x1ecc>)
10001f58:	49e3      	ldr	r1, [pc, #908]	; (100022e8 <setup_rom_contents+0x1ed0>)
10001f5a:	5099      	str	r1, [r3, r2]
10001f5c:	4ae3      	ldr	r2, [pc, #908]	; (100022ec <setup_rom_contents+0x1ed4>)
10001f5e:	49e4      	ldr	r1, [pc, #912]	; (100022f0 <setup_rom_contents+0x1ed8>)
10001f60:	5099      	str	r1, [r3, r2]
10001f62:	49e4      	ldr	r1, [pc, #912]	; (100022f4 <setup_rom_contents+0x1edc>)
10001f64:	3204      	adds	r2, #4
10001f66:	5099      	str	r1, [r3, r2]
10001f68:	4ae3      	ldr	r2, [pc, #908]	; (100022f8 <setup_rom_contents+0x1ee0>)
10001f6a:	49e4      	ldr	r1, [pc, #912]	; (100022fc <setup_rom_contents+0x1ee4>)
10001f6c:	5099      	str	r1, [r3, r2]
10001f6e:	4ae4      	ldr	r2, [pc, #912]	; (10002300 <setup_rom_contents+0x1ee8>)
10001f70:	49e4      	ldr	r1, [pc, #912]	; (10002304 <setup_rom_contents+0x1eec>)
10001f72:	5099      	str	r1, [r3, r2]
10001f74:	4ae4      	ldr	r2, [pc, #912]	; (10002308 <setup_rom_contents+0x1ef0>)
10001f76:	49e5      	ldr	r1, [pc, #916]	; (1000230c <setup_rom_contents+0x1ef4>)
10001f78:	5099      	str	r1, [r3, r2]
10001f7a:	49e5      	ldr	r1, [pc, #916]	; (10002310 <setup_rom_contents+0x1ef8>)
10001f7c:	3204      	adds	r2, #4
10001f7e:	5099      	str	r1, [r3, r2]
10001f80:	4ae4      	ldr	r2, [pc, #912]	; (10002314 <setup_rom_contents+0x1efc>)
10001f82:	49e5      	ldr	r1, [pc, #916]	; (10002318 <setup_rom_contents+0x1f00>)
10001f84:	5099      	str	r1, [r3, r2]
10001f86:	4ae5      	ldr	r2, [pc, #916]	; (1000231c <setup_rom_contents+0x1f04>)
10001f88:	49e5      	ldr	r1, [pc, #916]	; (10002320 <setup_rom_contents+0x1f08>)
10001f8a:	5099      	str	r1, [r3, r2]
10001f8c:	4ae5      	ldr	r2, [pc, #916]	; (10002324 <setup_rom_contents+0x1f0c>)
10001f8e:	49e6      	ldr	r1, [pc, #920]	; (10002328 <setup_rom_contents+0x1f10>)
10001f90:	5099      	str	r1, [r3, r2]
10001f92:	49e6      	ldr	r1, [pc, #920]	; (1000232c <setup_rom_contents+0x1f14>)
10001f94:	3204      	adds	r2, #4
10001f96:	5099      	str	r1, [r3, r2]
10001f98:	4ae5      	ldr	r2, [pc, #916]	; (10002330 <setup_rom_contents+0x1f18>)
10001f9a:	49e6      	ldr	r1, [pc, #920]	; (10002334 <setup_rom_contents+0x1f1c>)
10001f9c:	5099      	str	r1, [r3, r2]
10001f9e:	4ae6      	ldr	r2, [pc, #920]	; (10002338 <setup_rom_contents+0x1f20>)
10001fa0:	49e6      	ldr	r1, [pc, #920]	; (1000233c <setup_rom_contents+0x1f24>)
10001fa2:	5099      	str	r1, [r3, r2]
10001fa4:	4ae6      	ldr	r2, [pc, #920]	; (10002340 <setup_rom_contents+0x1f28>)
10001fa6:	49e7      	ldr	r1, [pc, #924]	; (10002344 <setup_rom_contents+0x1f2c>)
10001fa8:	5099      	str	r1, [r3, r2]
10001faa:	49e7      	ldr	r1, [pc, #924]	; (10002348 <setup_rom_contents+0x1f30>)
10001fac:	3204      	adds	r2, #4
10001fae:	5099      	str	r1, [r3, r2]
10001fb0:	4ae6      	ldr	r2, [pc, #920]	; (1000234c <setup_rom_contents+0x1f34>)
10001fb2:	49e7      	ldr	r1, [pc, #924]	; (10002350 <setup_rom_contents+0x1f38>)
10001fb4:	5099      	str	r1, [r3, r2]
10001fb6:	4ae7      	ldr	r2, [pc, #924]	; (10002354 <setup_rom_contents+0x1f3c>)
10001fb8:	49e7      	ldr	r1, [pc, #924]	; (10002358 <setup_rom_contents+0x1f40>)
10001fba:	5099      	str	r1, [r3, r2]
10001fbc:	4ae7      	ldr	r2, [pc, #924]	; (1000235c <setup_rom_contents+0x1f44>)
10001fbe:	49e8      	ldr	r1, [pc, #928]	; (10002360 <setup_rom_contents+0x1f48>)
10001fc0:	5099      	str	r1, [r3, r2]
10001fc2:	49e8      	ldr	r1, [pc, #928]	; (10002364 <setup_rom_contents+0x1f4c>)
10001fc4:	3204      	adds	r2, #4
10001fc6:	5099      	str	r1, [r3, r2]
10001fc8:	4ae7      	ldr	r2, [pc, #924]	; (10002368 <setup_rom_contents+0x1f50>)
10001fca:	49e8      	ldr	r1, [pc, #928]	; (1000236c <setup_rom_contents+0x1f54>)
10001fcc:	5099      	str	r1, [r3, r2]
10001fce:	4ae8      	ldr	r2, [pc, #928]	; (10002370 <setup_rom_contents+0x1f58>)
10001fd0:	49e8      	ldr	r1, [pc, #928]	; (10002374 <setup_rom_contents+0x1f5c>)
10001fd2:	5099      	str	r1, [r3, r2]
10001fd4:	4ae8      	ldr	r2, [pc, #928]	; (10002378 <setup_rom_contents+0x1f60>)
10001fd6:	49e9      	ldr	r1, [pc, #932]	; (1000237c <setup_rom_contents+0x1f64>)
10001fd8:	5099      	str	r1, [r3, r2]
10001fda:	49e9      	ldr	r1, [pc, #932]	; (10002380 <setup_rom_contents+0x1f68>)
10001fdc:	3204      	adds	r2, #4
10001fde:	5099      	str	r1, [r3, r2]
10001fe0:	4ae8      	ldr	r2, [pc, #928]	; (10002384 <setup_rom_contents+0x1f6c>)
10001fe2:	49e9      	ldr	r1, [pc, #932]	; (10002388 <setup_rom_contents+0x1f70>)
10001fe4:	5099      	str	r1, [r3, r2]
10001fe6:	4ae9      	ldr	r2, [pc, #932]	; (1000238c <setup_rom_contents+0x1f74>)
10001fe8:	49e9      	ldr	r1, [pc, #932]	; (10002390 <setup_rom_contents+0x1f78>)
10001fea:	5099      	str	r1, [r3, r2]
10001fec:	4ae9      	ldr	r2, [pc, #932]	; (10002394 <setup_rom_contents+0x1f7c>)
10001fee:	49ea      	ldr	r1, [pc, #936]	; (10002398 <setup_rom_contents+0x1f80>)
10001ff0:	5099      	str	r1, [r3, r2]
10001ff2:	49ea      	ldr	r1, [pc, #936]	; (1000239c <setup_rom_contents+0x1f84>)
10001ff4:	3204      	adds	r2, #4
10001ff6:	5099      	str	r1, [r3, r2]
10001ff8:	4ae9      	ldr	r2, [pc, #932]	; (100023a0 <setup_rom_contents+0x1f88>)
10001ffa:	49ea      	ldr	r1, [pc, #936]	; (100023a4 <setup_rom_contents+0x1f8c>)
10001ffc:	5099      	str	r1, [r3, r2]
10001ffe:	4aea      	ldr	r2, [pc, #936]	; (100023a8 <setup_rom_contents+0x1f90>)
10002000:	49ea      	ldr	r1, [pc, #936]	; (100023ac <setup_rom_contents+0x1f94>)
10002002:	5299      	strh	r1, [r3, r2]
10002004:	21fb      	movs	r1, #251	; 0xfb
10002006:	4aea      	ldr	r2, [pc, #936]	; (100023b0 <setup_rom_contents+0x1f98>)
10002008:	5499      	strb	r1, [r3, r2]
1000200a:	4aea      	ldr	r2, [pc, #936]	; (100023b4 <setup_rom_contents+0x1f9c>)
1000200c:	3971      	subs	r1, #113	; 0x71
1000200e:	5499      	strb	r1, [r3, r2]
10002010:	4ae9      	ldr	r2, [pc, #932]	; (100023b8 <setup_rom_contents+0x1fa0>)
10002012:	49ea      	ldr	r1, [pc, #936]	; (100023bc <setup_rom_contents+0x1fa4>)
10002014:	5099      	str	r1, [r3, r2]
10002016:	49ea      	ldr	r1, [pc, #936]	; (100023c0 <setup_rom_contents+0x1fa8>)
10002018:	3204      	adds	r2, #4
1000201a:	5099      	str	r1, [r3, r2]
1000201c:	4ae9      	ldr	r2, [pc, #932]	; (100023c4 <setup_rom_contents+0x1fac>)
1000201e:	49ea      	ldr	r1, [pc, #936]	; (100023c8 <setup_rom_contents+0x1fb0>)
10002020:	5099      	str	r1, [r3, r2]
10002022:	4aea      	ldr	r2, [pc, #936]	; (100023cc <setup_rom_contents+0x1fb4>)
10002024:	49ea      	ldr	r1, [pc, #936]	; (100023d0 <setup_rom_contents+0x1fb8>)
10002026:	5099      	str	r1, [r3, r2]
10002028:	4aea      	ldr	r2, [pc, #936]	; (100023d4 <setup_rom_contents+0x1fbc>)
1000202a:	49eb      	ldr	r1, [pc, #940]	; (100023d8 <setup_rom_contents+0x1fc0>)
1000202c:	5099      	str	r1, [r3, r2]
1000202e:	49eb      	ldr	r1, [pc, #940]	; (100023dc <setup_rom_contents+0x1fc4>)
10002030:	3204      	adds	r2, #4
10002032:	5099      	str	r1, [r3, r2]
10002034:	4aea      	ldr	r2, [pc, #936]	; (100023e0 <setup_rom_contents+0x1fc8>)
10002036:	49eb      	ldr	r1, [pc, #940]	; (100023e4 <setup_rom_contents+0x1fcc>)
10002038:	5099      	str	r1, [r3, r2]
1000203a:	4aeb      	ldr	r2, [pc, #940]	; (100023e8 <setup_rom_contents+0x1fd0>)
1000203c:	49eb      	ldr	r1, [pc, #940]	; (100023ec <setup_rom_contents+0x1fd4>)
1000203e:	5099      	str	r1, [r3, r2]
10002040:	4aeb      	ldr	r2, [pc, #940]	; (100023f0 <setup_rom_contents+0x1fd8>)
10002042:	49ec      	ldr	r1, [pc, #944]	; (100023f4 <setup_rom_contents+0x1fdc>)
10002044:	5099      	str	r1, [r3, r2]
10002046:	49ec      	ldr	r1, [pc, #944]	; (100023f8 <setup_rom_contents+0x1fe0>)
10002048:	3204      	adds	r2, #4
1000204a:	5099      	str	r1, [r3, r2]
1000204c:	4aeb      	ldr	r2, [pc, #940]	; (100023fc <setup_rom_contents+0x1fe4>)
1000204e:	49ec      	ldr	r1, [pc, #944]	; (10002400 <setup_rom_contents+0x1fe8>)
10002050:	5099      	str	r1, [r3, r2]
10002052:	4aec      	ldr	r2, [pc, #944]	; (10002404 <setup_rom_contents+0x1fec>)
10002054:	49ec      	ldr	r1, [pc, #944]	; (10002408 <setup_rom_contents+0x1ff0>)
10002056:	5099      	str	r1, [r3, r2]
10002058:	4aec      	ldr	r2, [pc, #944]	; (1000240c <setup_rom_contents+0x1ff4>)
1000205a:	49ed      	ldr	r1, [pc, #948]	; (10002410 <setup_rom_contents+0x1ff8>)
1000205c:	5099      	str	r1, [r3, r2]
1000205e:	49ed      	ldr	r1, [pc, #948]	; (10002414 <setup_rom_contents+0x1ffc>)
10002060:	3204      	adds	r2, #4
10002062:	5099      	str	r1, [r3, r2]
10002064:	4aec      	ldr	r2, [pc, #944]	; (10002418 <setup_rom_contents+0x2000>)
10002066:	49ed      	ldr	r1, [pc, #948]	; (1000241c <setup_rom_contents+0x2004>)
10002068:	5099      	str	r1, [r3, r2]
1000206a:	4aed      	ldr	r2, [pc, #948]	; (10002420 <setup_rom_contents+0x2008>)
1000206c:	49ed      	ldr	r1, [pc, #948]	; (10002424 <setup_rom_contents+0x200c>)
1000206e:	5099      	str	r1, [r3, r2]
10002070:	4aed      	ldr	r2, [pc, #948]	; (10002428 <setup_rom_contents+0x2010>)
10002072:	49ee      	ldr	r1, [pc, #952]	; (1000242c <setup_rom_contents+0x2014>)
10002074:	5099      	str	r1, [r3, r2]
10002076:	49ee      	ldr	r1, [pc, #952]	; (10002430 <setup_rom_contents+0x2018>)
10002078:	3204      	adds	r2, #4
1000207a:	5099      	str	r1, [r3, r2]
1000207c:	4aed      	ldr	r2, [pc, #948]	; (10002434 <setup_rom_contents+0x201c>)
1000207e:	49ee      	ldr	r1, [pc, #952]	; (10002438 <setup_rom_contents+0x2020>)
10002080:	5099      	str	r1, [r3, r2]
10002082:	4aee      	ldr	r2, [pc, #952]	; (1000243c <setup_rom_contents+0x2024>)
10002084:	49ee      	ldr	r1, [pc, #952]	; (10002440 <setup_rom_contents+0x2028>)
10002086:	5099      	str	r1, [r3, r2]
10002088:	4aee      	ldr	r2, [pc, #952]	; (10002444 <setup_rom_contents+0x202c>)
1000208a:	49ef      	ldr	r1, [pc, #956]	; (10002448 <setup_rom_contents+0x2030>)
1000208c:	5099      	str	r1, [r3, r2]
1000208e:	49ef      	ldr	r1, [pc, #956]	; (1000244c <setup_rom_contents+0x2034>)
10002090:	3204      	adds	r2, #4
10002092:	5099      	str	r1, [r3, r2]
10002094:	4aee      	ldr	r2, [pc, #952]	; (10002450 <setup_rom_contents+0x2038>)
10002096:	49ef      	ldr	r1, [pc, #956]	; (10002454 <setup_rom_contents+0x203c>)
10002098:	5099      	str	r1, [r3, r2]
1000209a:	4aef      	ldr	r2, [pc, #956]	; (10002458 <setup_rom_contents+0x2040>)
1000209c:	49ef      	ldr	r1, [pc, #956]	; (1000245c <setup_rom_contents+0x2044>)
1000209e:	5099      	str	r1, [r3, r2]
100020a0:	4aef      	ldr	r2, [pc, #956]	; (10002460 <setup_rom_contents+0x2048>)
100020a2:	49f0      	ldr	r1, [pc, #960]	; (10002464 <setup_rom_contents+0x204c>)
100020a4:	5099      	str	r1, [r3, r2]
100020a6:	49f0      	ldr	r1, [pc, #960]	; (10002468 <setup_rom_contents+0x2050>)
100020a8:	3204      	adds	r2, #4
100020aa:	5099      	str	r1, [r3, r2]
100020ac:	4aef      	ldr	r2, [pc, #956]	; (1000246c <setup_rom_contents+0x2054>)
100020ae:	49f0      	ldr	r1, [pc, #960]	; (10002470 <setup_rom_contents+0x2058>)
100020b0:	5099      	str	r1, [r3, r2]
100020b2:	4af0      	ldr	r2, [pc, #960]	; (10002474 <setup_rom_contents+0x205c>)
100020b4:	49f0      	ldr	r1, [pc, #960]	; (10002478 <setup_rom_contents+0x2060>)
100020b6:	5099      	str	r1, [r3, r2]
100020b8:	4af0      	ldr	r2, [pc, #960]	; (1000247c <setup_rom_contents+0x2064>)
100020ba:	49f1      	ldr	r1, [pc, #964]	; (10002480 <setup_rom_contents+0x2068>)
100020bc:	5099      	str	r1, [r3, r2]
100020be:	49f1      	ldr	r1, [pc, #964]	; (10002484 <setup_rom_contents+0x206c>)
100020c0:	3204      	adds	r2, #4
100020c2:	5099      	str	r1, [r3, r2]
100020c4:	4af0      	ldr	r2, [pc, #960]	; (10002488 <setup_rom_contents+0x2070>)
100020c6:	49f1      	ldr	r1, [pc, #964]	; (1000248c <setup_rom_contents+0x2074>)
100020c8:	5099      	str	r1, [r3, r2]
100020ca:	4af1      	ldr	r2, [pc, #964]	; (10002490 <setup_rom_contents+0x2078>)
100020cc:	49f1      	ldr	r1, [pc, #964]	; (10002494 <setup_rom_contents+0x207c>)
100020ce:	5099      	str	r1, [r3, r2]
100020d0:	4af1      	ldr	r2, [pc, #964]	; (10002498 <setup_rom_contents+0x2080>)
100020d2:	49f2      	ldr	r1, [pc, #968]	; (1000249c <setup_rom_contents+0x2084>)
100020d4:	5099      	str	r1, [r3, r2]
100020d6:	49f2      	ldr	r1, [pc, #968]	; (100024a0 <setup_rom_contents+0x2088>)
100020d8:	3204      	adds	r2, #4
100020da:	5099      	str	r1, [r3, r2]
100020dc:	4af1      	ldr	r2, [pc, #964]	; (100024a4 <setup_rom_contents+0x208c>)
100020de:	49f2      	ldr	r1, [pc, #968]	; (100024a8 <setup_rom_contents+0x2090>)
100020e0:	5099      	str	r1, [r3, r2]
100020e2:	4af2      	ldr	r2, [pc, #968]	; (100024ac <setup_rom_contents+0x2094>)
100020e4:	49f2      	ldr	r1, [pc, #968]	; (100024b0 <setup_rom_contents+0x2098>)
100020e6:	5099      	str	r1, [r3, r2]
100020e8:	4af2      	ldr	r2, [pc, #968]	; (100024b4 <setup_rom_contents+0x209c>)
100020ea:	49f3      	ldr	r1, [pc, #972]	; (100024b8 <setup_rom_contents+0x20a0>)
100020ec:	5099      	str	r1, [r3, r2]
100020ee:	49f3      	ldr	r1, [pc, #972]	; (100024bc <setup_rom_contents+0x20a4>)
100020f0:	3204      	adds	r2, #4
100020f2:	5099      	str	r1, [r3, r2]
100020f4:	4af2      	ldr	r2, [pc, #968]	; (100024c0 <setup_rom_contents+0x20a8>)
100020f6:	49f3      	ldr	r1, [pc, #972]	; (100024c4 <setup_rom_contents+0x20ac>)
100020f8:	5099      	str	r1, [r3, r2]
100020fa:	4af3      	ldr	r2, [pc, #972]	; (100024c8 <setup_rom_contents+0x20b0>)
100020fc:	49f3      	ldr	r1, [pc, #972]	; (100024cc <setup_rom_contents+0x20b4>)
100020fe:	5099      	str	r1, [r3, r2]
10002100:	4af3      	ldr	r2, [pc, #972]	; (100024d0 <setup_rom_contents+0x20b8>)
10002102:	49f4      	ldr	r1, [pc, #976]	; (100024d4 <setup_rom_contents+0x20bc>)
10002104:	5099      	str	r1, [r3, r2]
10002106:	49f4      	ldr	r1, [pc, #976]	; (100024d8 <setup_rom_contents+0x20c0>)
10002108:	3204      	adds	r2, #4
1000210a:	5099      	str	r1, [r3, r2]
1000210c:	4af3      	ldr	r2, [pc, #972]	; (100024dc <setup_rom_contents+0x20c4>)
1000210e:	49f4      	ldr	r1, [pc, #976]	; (100024e0 <setup_rom_contents+0x20c8>)
10002110:	5099      	str	r1, [r3, r2]
10002112:	4af4      	ldr	r2, [pc, #976]	; (100024e4 <setup_rom_contents+0x20cc>)
10002114:	49f4      	ldr	r1, [pc, #976]	; (100024e8 <setup_rom_contents+0x20d0>)
10002116:	5099      	str	r1, [r3, r2]
10002118:	4bf4      	ldr	r3, [pc, #976]	; (100024ec <setup_rom_contents+0x20d4>)
1000211a:	4af5      	ldr	r2, [pc, #980]	; (100024f0 <setup_rom_contents+0x20d8>)
1000211c:	49f5      	ldr	r1, [pc, #980]	; (100024f4 <setup_rom_contents+0x20dc>)
1000211e:	5099      	str	r1, [r3, r2]
10002120:	49f5      	ldr	r1, [pc, #980]	; (100024f8 <setup_rom_contents+0x20e0>)
10002122:	3204      	adds	r2, #4
10002124:	5099      	str	r1, [r3, r2]
10002126:	4af5      	ldr	r2, [pc, #980]	; (100024fc <setup_rom_contents+0x20e4>)
10002128:	49f5      	ldr	r1, [pc, #980]	; (10002500 <setup_rom_contents+0x20e8>)
1000212a:	5099      	str	r1, [r3, r2]
1000212c:	4af5      	ldr	r2, [pc, #980]	; (10002504 <setup_rom_contents+0x20ec>)
1000212e:	49f6      	ldr	r1, [pc, #984]	; (10002508 <setup_rom_contents+0x20f0>)
10002130:	5099      	str	r1, [r3, r2]
10002132:	4af6      	ldr	r2, [pc, #984]	; (1000250c <setup_rom_contents+0x20f4>)
10002134:	49f6      	ldr	r1, [pc, #984]	; (10002510 <setup_rom_contents+0x20f8>)
10002136:	5099      	str	r1, [r3, r2]
10002138:	49f6      	ldr	r1, [pc, #984]	; (10002514 <setup_rom_contents+0x20fc>)
1000213a:	3204      	adds	r2, #4
1000213c:	5099      	str	r1, [r3, r2]
1000213e:	4af6      	ldr	r2, [pc, #984]	; (10002518 <setup_rom_contents+0x2100>)
10002140:	49f6      	ldr	r1, [pc, #984]	; (1000251c <setup_rom_contents+0x2104>)
10002142:	5099      	str	r1, [r3, r2]
10002144:	4af6      	ldr	r2, [pc, #984]	; (10002520 <setup_rom_contents+0x2108>)
10002146:	49f7      	ldr	r1, [pc, #988]	; (10002524 <setup_rom_contents+0x210c>)
10002148:	5099      	str	r1, [r3, r2]
1000214a:	4af7      	ldr	r2, [pc, #988]	; (10002528 <setup_rom_contents+0x2110>)
1000214c:	49f7      	ldr	r1, [pc, #988]	; (1000252c <setup_rom_contents+0x2114>)
1000214e:	5099      	str	r1, [r3, r2]
10002150:	49f7      	ldr	r1, [pc, #988]	; (10002530 <setup_rom_contents+0x2118>)
10002152:	3204      	adds	r2, #4
10002154:	5099      	str	r1, [r3, r2]
10002156:	4af7      	ldr	r2, [pc, #988]	; (10002534 <setup_rom_contents+0x211c>)
10002158:	49f7      	ldr	r1, [pc, #988]	; (10002538 <setup_rom_contents+0x2120>)
1000215a:	5099      	str	r1, [r3, r2]
1000215c:	4af7      	ldr	r2, [pc, #988]	; (1000253c <setup_rom_contents+0x2124>)
1000215e:	49f8      	ldr	r1, [pc, #992]	; (10002540 <setup_rom_contents+0x2128>)
10002160:	5099      	str	r1, [r3, r2]
10002162:	4af8      	ldr	r2, [pc, #992]	; (10002544 <setup_rom_contents+0x212c>)
10002164:	49f8      	ldr	r1, [pc, #992]	; (10002548 <setup_rom_contents+0x2130>)
10002166:	5099      	str	r1, [r3, r2]
10002168:	49f8      	ldr	r1, [pc, #992]	; (1000254c <setup_rom_contents+0x2134>)
1000216a:	3204      	adds	r2, #4
1000216c:	5099      	str	r1, [r3, r2]
1000216e:	4af8      	ldr	r2, [pc, #992]	; (10002550 <setup_rom_contents+0x2138>)
10002170:	49f8      	ldr	r1, [pc, #992]	; (10002554 <setup_rom_contents+0x213c>)
10002172:	5099      	str	r1, [r3, r2]
10002174:	4af8      	ldr	r2, [pc, #992]	; (10002558 <setup_rom_contents+0x2140>)
10002176:	49f9      	ldr	r1, [pc, #996]	; (1000255c <setup_rom_contents+0x2144>)
10002178:	5099      	str	r1, [r3, r2]
1000217a:	4af9      	ldr	r2, [pc, #996]	; (10002560 <setup_rom_contents+0x2148>)
1000217c:	49f9      	ldr	r1, [pc, #996]	; (10002564 <setup_rom_contents+0x214c>)
1000217e:	5099      	str	r1, [r3, r2]
10002180:	49f9      	ldr	r1, [pc, #996]	; (10002568 <setup_rom_contents+0x2150>)
10002182:	3204      	adds	r2, #4
10002184:	5299      	strh	r1, [r3, r2]
10002186:	21a5      	movs	r1, #165	; 0xa5
10002188:	4af8      	ldr	r2, [pc, #992]	; (1000256c <setup_rom_contents+0x2154>)
1000218a:	5499      	strb	r1, [r3, r2]
1000218c:	4af8      	ldr	r2, [pc, #992]	; (10002570 <setup_rom_contents+0x2158>)
1000218e:	3118      	adds	r1, #24
10002190:	5499      	strb	r1, [r3, r2]
10002192:	4af8      	ldr	r2, [pc, #992]	; (10002574 <setup_rom_contents+0x215c>)
10002194:	49f8      	ldr	r1, [pc, #992]	; (10002578 <setup_rom_contents+0x2160>)
10002196:	5099      	str	r1, [r3, r2]
10002198:	4af8      	ldr	r2, [pc, #992]	; (1000257c <setup_rom_contents+0x2164>)
1000219a:	49f9      	ldr	r1, [pc, #996]	; (10002580 <setup_rom_contents+0x2168>)
1000219c:	5099      	str	r1, [r3, r2]
1000219e:	4af9      	ldr	r2, [pc, #996]	; (10002584 <setup_rom_contents+0x216c>)
100021a0:	49f9      	ldr	r1, [pc, #996]	; (10002588 <setup_rom_contents+0x2170>)
100021a2:	5099      	str	r1, [r3, r2]
100021a4:	49f9      	ldr	r1, [pc, #996]	; (1000258c <setup_rom_contents+0x2174>)
100021a6:	3204      	adds	r2, #4
100021a8:	5099      	str	r1, [r3, r2]
100021aa:	4af9      	ldr	r2, [pc, #996]	; (10002590 <setup_rom_contents+0x2178>)
100021ac:	49f9      	ldr	r1, [pc, #996]	; (10002594 <setup_rom_contents+0x217c>)
100021ae:	5099      	str	r1, [r3, r2]
100021b0:	4af9      	ldr	r2, [pc, #996]	; (10002598 <setup_rom_contents+0x2180>)
100021b2:	49fa      	ldr	r1, [pc, #1000]	; (1000259c <setup_rom_contents+0x2184>)
100021b4:	5099      	str	r1, [r3, r2]
100021b6:	4afa      	ldr	r2, [pc, #1000]	; (100025a0 <setup_rom_contents+0x2188>)
100021b8:	49fa      	ldr	r1, [pc, #1000]	; (100025a4 <setup_rom_contents+0x218c>)
100021ba:	5099      	str	r1, [r3, r2]
100021bc:	49fa      	ldr	r1, [pc, #1000]	; (100025a8 <setup_rom_contents+0x2190>)
100021be:	3204      	adds	r2, #4
100021c0:	5099      	str	r1, [r3, r2]
100021c2:	4afa      	ldr	r2, [pc, #1000]	; (100025ac <setup_rom_contents+0x2194>)
100021c4:	49fa      	ldr	r1, [pc, #1000]	; (100025b0 <setup_rom_contents+0x2198>)
100021c6:	5099      	str	r1, [r3, r2]
100021c8:	4afa      	ldr	r2, [pc, #1000]	; (100025b4 <setup_rom_contents+0x219c>)
100021ca:	49fb      	ldr	r1, [pc, #1004]	; (100025b8 <setup_rom_contents+0x21a0>)
100021cc:	5099      	str	r1, [r3, r2]
100021ce:	4afb      	ldr	r2, [pc, #1004]	; (100025bc <setup_rom_contents+0x21a4>)
100021d0:	49fb      	ldr	r1, [pc, #1004]	; (100025c0 <setup_rom_contents+0x21a8>)
100021d2:	5099      	str	r1, [r3, r2]
100021d4:	49fb      	ldr	r1, [pc, #1004]	; (100025c4 <setup_rom_contents+0x21ac>)
100021d6:	3204      	adds	r2, #4
100021d8:	5099      	str	r1, [r3, r2]
100021da:	4afb      	ldr	r2, [pc, #1004]	; (100025c8 <setup_rom_contents+0x21b0>)
100021dc:	49fb      	ldr	r1, [pc, #1004]	; (100025cc <setup_rom_contents+0x21b4>)
100021de:	5099      	str	r1, [r3, r2]
100021e0:	4afb      	ldr	r2, [pc, #1004]	; (100025d0 <setup_rom_contents+0x21b8>)
100021e2:	49fc      	ldr	r1, [pc, #1008]	; (100025d4 <setup_rom_contents+0x21bc>)
100021e4:	5099      	str	r1, [r3, r2]
100021e6:	4afc      	ldr	r2, [pc, #1008]	; (100025d8 <setup_rom_contents+0x21c0>)
100021e8:	49fc      	ldr	r1, [pc, #1008]	; (100025dc <setup_rom_contents+0x21c4>)
100021ea:	5099      	str	r1, [r3, r2]
100021ec:	49fc      	ldr	r1, [pc, #1008]	; (100025e0 <setup_rom_contents+0x21c8>)
100021ee:	3204      	adds	r2, #4
100021f0:	5099      	str	r1, [r3, r2]
100021f2:	4afc      	ldr	r2, [pc, #1008]	; (100025e4 <setup_rom_contents+0x21cc>)
100021f4:	49fc      	ldr	r1, [pc, #1008]	; (100025e8 <setup_rom_contents+0x21d0>)
100021f6:	5099      	str	r1, [r3, r2]
100021f8:	4afc      	ldr	r2, [pc, #1008]	; (100025ec <setup_rom_contents+0x21d4>)
100021fa:	49fd      	ldr	r1, [pc, #1012]	; (100025f0 <setup_rom_contents+0x21d8>)
100021fc:	5099      	str	r1, [r3, r2]
100021fe:	4afd      	ldr	r2, [pc, #1012]	; (100025f4 <setup_rom_contents+0x21dc>)
10002200:	49fd      	ldr	r1, [pc, #1012]	; (100025f8 <setup_rom_contents+0x21e0>)
10002202:	5099      	str	r1, [r3, r2]
10002204:	49fd      	ldr	r1, [pc, #1012]	; (100025fc <setup_rom_contents+0x21e4>)
10002206:	3204      	adds	r2, #4
10002208:	5099      	str	r1, [r3, r2]
1000220a:	e1f9      	b.n	10002600 <setup_rom_contents+0x21e8>
1000220c:	000009b4 	.word	0x000009b4
10002210:	ccc2c1c3 	.word	0xccc2c1c3
10002214:	000009b8 	.word	0x000009b8
10002218:	c6c8ca00 	.word	0xc6c8ca00
1000221c:	000009bc 	.word	0x000009bc
10002220:	cf7e09c4 	.word	0xcf7e09c4
10002224:	000009c4 	.word	0x000009c4
10002228:	00215100 	.word	0x00215100
1000222c:	f8108d37 	.word	0xf8108d37
10002230:	000009c8 	.word	0x000009c8
10002234:	535a0000 	.word	0x535a0000
10002238:	000009cc 	.word	0x000009cc
1000223c:	e1405741 	.word	0xe1405741
10002240:	44584302 	.word	0x44584302
10002244:	000009d4 	.word	0x000009d4
10002248:	e2232445 	.word	0xe2232445
1000224c:	000009d8 	.word	0x000009d8
10002250:	46562000 	.word	0x46562000
10002254:	000009dc 	.word	0x000009dc
10002258:	e3255254 	.word	0xe3255254
1000225c:	48424e00 	.word	0x48424e00
10002260:	000009e4 	.word	0x000009e4
10002264:	005e5947 	.word	0x005e5947
10002268:	000009e8 	.word	0x000009e8
1000226c:	4a4d0000 	.word	0x4a4d0000
10002270:	000009ec 	.word	0x000009ec
10002274:	002a2655 	.word	0x002a2655
10002278:	494b3c00 	.word	0x494b3c00
1000227c:	000009f4 	.word	0x000009f4
10002280:	0028294f 	.word	0x0028294f
10002284:	000009f8 	.word	0x000009f8
10002288:	4c3f3e00 	.word	0x4c3f3e00
1000228c:	000009fc 	.word	0x000009fc
10002290:	005f503a 	.word	0x005f503a
10002294:	00000a04 	.word	0x00000a04
10002298:	00002b7b 	.word	0x00002b7b
1000229c:	00000a08 	.word	0x00000a08
100022a0:	7d0d0000 	.word	0x7d0d0000
100022a4:	00000a0c 	.word	0x00000a0c
100022a8:	00000a14 	.word	0x00000a14
100022ac:	20aa2a51 	.word	0x20aa2a51
100022b0:	00000a18 	.word	0x00000a18
100022b4:	942f9100 	.word	0x942f9100
100022b8:	00000a1c 	.word	0x00000a1c
100022bc:	95927f90 	.word	0x95927f90
100022c0:	00000a24 	.word	0x00000a24
100022c4:	001b9896 	.word	0x001b9896
100022c8:	00000a28 	.word	0x00000a28
100022cc:	2d932bcb 	.word	0x2d932bcb
100022d0:	00000a2c 	.word	0x00000a2c
100022d4:	4ccd992a 	.word	0x4ccd992a
100022d8:	b74c8042 	.word	0xb74c8042
100022dc:	00000a34 	.word	0x00000a34
100022e0:	8afb4c8a 	.word	0x8afb4c8a
100022e4:	00000a38 	.word	0x00000a38
100022e8:	4c80594c 	.word	0x4c80594c
100022ec:	00000a3c 	.word	0x00000a3c
100022f0:	124c8064 	.word	0x124c8064
100022f4:	001b0881 	.word	0x001b0881
100022f8:	00000a44 	.word	0x00000a44
100022fc:	c3862000 	.word	0xc3862000
10002300:	00000a48 	.word	0x00000a48
10002304:	c3860590 	.word	0xc3860590
10002308:	00000a4c 	.word	0x00000a4c
1000230c:	b160c291 	.word	0xb160c291
10002310:	6000a0c2 	.word	0x6000a0c2
10002314:	00000a54 	.word	0x00000a54
10002318:	8ba28ba0 	.word	0x8ba28ba0
1000231c:	00000a58 	.word	0x00000a58
10002320:	8c438c16 	.word	0x8c438c16
10002324:	00000a5c 	.word	0x00000a5c
10002328:	8c3b8c71 	.word	0x8c3b8c71
1000232c:	91808ddd 	.word	0x91808ddd
10002330:	00000a64 	.word	0x00000a64
10002334:	8db8917d 	.word	0x8db8917d
10002338:	00000a68 	.word	0x00000a68
1000233c:	8ddd8f3a 	.word	0x8ddd8f3a
10002340:	00000a6c 	.word	0x00000a6c
10002344:	8ddd8ddd 	.word	0x8ddd8ddd
10002348:	90ff90fb 	.word	0x90ff90fb
1000234c:	00000a74 	.word	0x00000a74
10002350:	90d990c8 	.word	0x90d990c8
10002354:	00000a78 	.word	0x00000a78
10002358:	8d9f9127 	.word	0x8d9f9127
1000235c:	00000a7c 	.word	0x00000a7c
10002360:	907f8d8f 	.word	0x907f8d8f
10002364:	908d9090 	.word	0x908d9090
10002368:	00000a84 	.word	0x00000a84
1000236c:	902590a0 	.word	0x902590a0
10002370:	00000a88 	.word	0x00000a88
10002374:	8d448d0b 	.word	0x8d448d0b
10002378:	00000a8c 	.word	0x00000a8c
1000237c:	8e538ddd 	.word	0x8e538ddd
10002380:	8cf58de5 	.word	0x8cf58de5
10002384:	00000a94 	.word	0x00000a94
10002388:	8ec18cfd 	.word	0x8ec18cfd
1000238c:	00000a98 	.word	0x00000a98
10002390:	8ddd8cdf 	.word	0x8ddd8cdf
10002394:	00000a9c 	.word	0x00000a9c
10002398:	8ee68ddd 	.word	0x8ee68ddd
1000239c:	918b918d 	.word	0x918b918d
100023a0:	00000aa4 	.word	0x00000aa4
100023a4:	8ae88f45 	.word	0x8ae88f45
100023a8:	00000aa8 	.word	0x00000aa8
100023ac:	ffff8d75 	.word	0xffff8d75
100023b0:	00000aaa 	.word	0x00000aaa
100023b4:	00000aab 	.word	0x00000aab
100023b8:	00000aac 	.word	0x00000aac
100023bc:	90ef9159 	.word	0x90ef9159
100023c0:	20544120 	.word	0x20544120
100023c4:	00000ab4 	.word	0x00000ab4
100023c8:	a991ae80 	.word	0xa991ae80
100023cc:	00000ab8 	.word	0x00000ab8
100023d0:	85208500 	.word	0x85208500
100023d4:	00000abc 	.word	0x00000abc
100023d8:	8502a922 	.word	0x8502a922
100023dc:	a0238521 	.word	0xa0238521
100023e0:	00000ac4 	.word	0x00000ac4
100023e4:	aa22b101 	.word	0xaa22b101
100023e8:	00000ac8 	.word	0x00000ac8
100023ec:	2291ff49 	.word	0x2291ff49
100023f0:	00000acc 	.word	0x00000acc
100023f4:	8a0822d1 	.word	0x8a0822d1
100023f8:	22e62291 	.word	0x22e62291
100023fc:	00000ad4 	.word	0x00000ad4
10002400:	23e602d0 	.word	0x23e602d0
10002404:	00000ad8 	.word	0x00000ad8
10002408:	8ac923a5 	.word	0x8ac923a5
1000240c:	00000adc 	.word	0x00000adc
10002410:	22a506d0 	.word	0x22a506d0
10002414:	03f02fc9 	.word	0x03f02fc9
10002418:	00000ae4 	.word	0x00000ae4
1000241c:	88def028 	.word	0x88def028
10002420:	00000ae8 	.word	0x00000ae8
10002424:	6d20a5d8 	.word	0x6d20a5d8
10002428:	00000aec 	.word	0x00000aec
1000242c:	24858a45 	.word	0x24858a45
10002430:	85216598 	.word	0x85216598
10002434:	00000af4 	.word	0x00000af4
10002438:	20919825 	.word	0x20919825
1000243c:	00000af8 	.word	0x00000af8
10002440:	a52091c8 	.word	0xa52091c8
10002444:	00000afc 	.word	0x00000afc
10002448:	85c68522 	.word	0x85c68522
1000244c:	8523a526 	.word	0x8523a526
10002450:	00000b04 	.word	0x00000b04
10002454:	202785c7 	.word	0x202785c7
10002458:	00000b08 	.word	0x00000b08
1000245c:	b5ad8ec5 	.word	0xb5ad8ec5
10002460:	00000b0c 	.word	0x00000b0c
10002464:	ad2a858a 	.word	0xad2a858a
10002468:	2b858ab6 	.word	0x2b858ab6
1000246c:	00000b14 	.word	0x00000b14
10002470:	c18580a9 	.word	0xc18580a9
10002474:	00000b18 	.word	0x00000b18
10002478:	c08530a9 	.word	0xc08530a9
1000247c:	00000b1c 	.word	0x00000b1c
10002480:	be8600a2 	.word	0xbe8600a2
10002484:	9acac286 	.word	0x9acac286
10002488:	00000b24 	.word	0x00000b24
1000248c:	8d3720d8 	.word	0x8d3720d8
10002490:	00000b28 	.word	0x00000b28
10002494:	4c8b3020 	.word	0x4c8b3020
10002498:	00000b2c 	.word	0x00000b2c
1000249c:	65838b24 	.word	0x65838b24
100024a0:	7bb030c9 	.word	0x7bb030c9
100024a4:	00000b34 	.word	0x00000b34
100024a8:	0c9008c9 	.word	0x0c9008c9
100024ac:	00000b38 	.word	0x00000b38
100024b0:	51bdaa0a 	.word	0x51bdaa0a
100024b4:	00000b3c 	.word	0x00000b3c
100024b8:	50bd488a 	.word	0x50bd488a
100024bc:	4008488a 	.word	0x4008488a
100024c0:	00000b44 	.word	0x00000b44
100024c4:	b1aac165 	.word	0xb1aac165
100024c8:	00000b48 	.word	0x00000b48
100024cc:	00b548c1 	.word	0x00b548c1
100024d0:	00000b4c 	.word	0x00000b4c
100024d4:	9568c191 	.word	0x9568c191
100024d8:	c5206000 	.word	0xc5206000
100024dc:	00000b54 	.word	0x00000b54
100024e0:	2021a98e 	.word	0x2021a98e
100024e4:	00000b58 	.word	0x00000b58
100024e8:	2aa58a3b 	.word	0x2aa58a3b
100024ec:	200003f0 	.word	0x200003f0
100024f0:	00000b5c 	.word	0x00000b5c
100024f4:	8ab5ed38 	.word	0x8ab5ed38
100024f8:	ed2ba5aa 	.word	0xed2ba5aa
100024fc:	00000b64 	.word	0x00000b64
10002500:	de208ab6 	.word	0xde208ab6
10002504:	00000b68 	.word	0x00000b68
10002508:	f0bea58d 	.word	0xf0bea58d
1000250c:	00000b6c 	.word	0x00000b6c
10002510:	85b0a912 	.word	0x85b0a912
10002514:	858aa92a 	.word	0x858aa92a
10002518:	00000b74 	.word	0x00000b74
1000251c:	8cdf202b 	.word	0x8cdf202b
10002520:	00000b78 	.word	0x00000b78
10002524:	29a528a6 	.word	0x29a528a6
10002528:	00000b7c 	.word	0x00000b7c
1000252c:	a98dde20 	.word	0xa98dde20
10002530:	8a3b2007 	.word	0x8a3b2007
10002534:	00000b84 	.word	0x00000b84
10002538:	a58ec520 	.word	0xa58ec520
1000253c:	00000b88 	.word	0x00000b88
10002540:	a5c68526 	.word	0xa5c68526
10002544:	00000b8c 	.word	0x00000b8c
10002548:	4cc78527 	.word	0x4cc78527
1000254c:	7ca28b0a 	.word	0x7ca28b0a
10002550:	00000b94 	.word	0x00000b94
10002554:	ba90c1e4 	.word	0xba90c1e4
10002558:	00000b98 	.word	0x00000b98
1000255c:	c1e6c1a6 	.word	0xc1e6c1a6
10002560:	00000b9c 	.word	0x00000b9c
10002564:	6018c1e6 	.word	0x6018c1e6
10002568:	ffffbdc6 	.word	0xffffbdc6
1000256c:	00000ba2 	.word	0x00000ba2
10002570:	00000ba3 	.word	0x00000ba3
10002574:	00000ba4 	.word	0x00000ba4
10002578:	bca5acf0 	.word	0xbca5acf0
1000257c:	00000ba8 	.word	0x00000ba8
10002580:	bda52a85 	.word	0xbda52a85
10002584:	00000bac 	.word	0x00000bac
10002588:	c9602b85 	.word	0xc9602b85
1000258c:	4843b040 	.word	0x4843b040
10002590:	00000bb4 	.word	0x00000bb4
10002594:	6d8d3720 	.word	0x6d8d3720
10002598:	00000bb8 	.word	0x00000bb8
1000259c:	bc858ab5 	.word	0xbc858ab5
100025a0:	00000bbc 	.word	0x00000bbc
100025a4:	07294868 	.word	0x07294868
100025a8:	858ab66d 	.word	0x858ab66d
100025ac:	00000bc4 	.word	0x00000bc4
100025b0:	082968bd 	.word	0x082968bd
100025b4:	00000bc8 	.word	0x00000bc8
100025b8:	bca5dcd0 	.word	0xbca5dcd0
100025bc:	00000bcc 	.word	0x00000bcc
100025c0:	2a852aa6 	.word	0x2a852aa6
100025c4:	bda5bc86 	.word	0xbda5bc86
100025c8:	00000bd4 	.word	0x00000bd4
100025cc:	2b852ba6 	.word	0x2b852ba6
100025d0:	00000bd8 	.word	0x00000bd8
100025d4:	c6a5bd86 	.word	0xc6a5bd86
100025d8:	00000bdc 	.word	0x00000bdc
100025dc:	c68501e9 	.word	0xc68501e9
100025e0:	c7c602b0 	.word	0xc7c602b0
100025e4:	00000be4 	.word	0x00000be4
100025e8:	c7a524c5 	.word	0xc7a524c5
100025ec:	00000be8 	.word	0x00000be8
100025f0:	aa9025e5 	.word	0xaa9025e5
100025f4:	00000bec 	.word	0x00000bec
100025f8:	c691bca5 	.word	0xc691bca5
100025fc:	91bda5c8 	.word	0x91bda5c8
10002600:	4adc      	ldr	r2, [pc, #880]	; (10002974 <setup_rom_contents+0x255c>)
10002602:	49dd      	ldr	r1, [pc, #884]	; (10002978 <setup_rom_contents+0x2560>)
10002604:	5099      	str	r1, [r3, r2]
10002606:	4add      	ldr	r2, [pc, #884]	; (1000297c <setup_rom_contents+0x2564>)
10002608:	49dd      	ldr	r1, [pc, #884]	; (10002980 <setup_rom_contents+0x2568>)
1000260a:	5099      	str	r1, [r3, r2]
1000260c:	4add      	ldr	r2, [pc, #884]	; (10002984 <setup_rom_contents+0x256c>)
1000260e:	49de      	ldr	r1, [pc, #888]	; (10002988 <setup_rom_contents+0x2570>)
10002610:	5099      	str	r1, [r3, r2]
10002612:	49de      	ldr	r1, [pc, #888]	; (1000298c <setup_rom_contents+0x2574>)
10002614:	3204      	adds	r2, #4
10002616:	5099      	str	r1, [r3, r2]
10002618:	4add      	ldr	r2, [pc, #884]	; (10002990 <setup_rom_contents+0x2578>)
1000261a:	49de      	ldr	r1, [pc, #888]	; (10002994 <setup_rom_contents+0x257c>)
1000261c:	5099      	str	r1, [r3, r2]
1000261e:	4ade      	ldr	r2, [pc, #888]	; (10002998 <setup_rom_contents+0x2580>)
10002620:	49de      	ldr	r1, [pc, #888]	; (1000299c <setup_rom_contents+0x2584>)
10002622:	5099      	str	r1, [r3, r2]
10002624:	4ade      	ldr	r2, [pc, #888]	; (100029a0 <setup_rom_contents+0x2588>)
10002626:	49df      	ldr	r1, [pc, #892]	; (100029a4 <setup_rom_contents+0x258c>)
10002628:	5099      	str	r1, [r3, r2]
1000262a:	49df      	ldr	r1, [pc, #892]	; (100029a8 <setup_rom_contents+0x2590>)
1000262c:	3204      	adds	r2, #4
1000262e:	5099      	str	r1, [r3, r2]
10002630:	4ade      	ldr	r2, [pc, #888]	; (100029ac <setup_rom_contents+0x2594>)
10002632:	49df      	ldr	r1, [pc, #892]	; (100029b0 <setup_rom_contents+0x2598>)
10002634:	5099      	str	r1, [r3, r2]
10002636:	4adf      	ldr	r2, [pc, #892]	; (100029b4 <setup_rom_contents+0x259c>)
10002638:	49df      	ldr	r1, [pc, #892]	; (100029b8 <setup_rom_contents+0x25a0>)
1000263a:	5099      	str	r1, [r3, r2]
1000263c:	4adf      	ldr	r2, [pc, #892]	; (100029bc <setup_rom_contents+0x25a4>)
1000263e:	49e0      	ldr	r1, [pc, #896]	; (100029c0 <setup_rom_contents+0x25a8>)
10002640:	5099      	str	r1, [r3, r2]
10002642:	49e0      	ldr	r1, [pc, #896]	; (100029c4 <setup_rom_contents+0x25ac>)
10002644:	3204      	adds	r2, #4
10002646:	5099      	str	r1, [r3, r2]
10002648:	4adf      	ldr	r2, [pc, #892]	; (100029c8 <setup_rom_contents+0x25b0>)
1000264a:	5098      	str	r0, [r3, r2]
1000264c:	4adf      	ldr	r2, [pc, #892]	; (100029cc <setup_rom_contents+0x25b4>)
1000264e:	48e0      	ldr	r0, [pc, #896]	; (100029d0 <setup_rom_contents+0x25b8>)
10002650:	5098      	str	r0, [r3, r2]
10002652:	4ae0      	ldr	r2, [pc, #896]	; (100029d4 <setup_rom_contents+0x25bc>)
10002654:	48e0      	ldr	r0, [pc, #896]	; (100029d8 <setup_rom_contents+0x25c0>)
10002656:	5098      	str	r0, [r3, r2]
10002658:	48e0      	ldr	r0, [pc, #896]	; (100029dc <setup_rom_contents+0x25c4>)
1000265a:	3204      	adds	r2, #4
1000265c:	5098      	str	r0, [r3, r2]
1000265e:	4ae0      	ldr	r2, [pc, #896]	; (100029e0 <setup_rom_contents+0x25c8>)
10002660:	48e0      	ldr	r0, [pc, #896]	; (100029e4 <setup_rom_contents+0x25cc>)
10002662:	5098      	str	r0, [r3, r2]
10002664:	4ae0      	ldr	r2, [pc, #896]	; (100029e8 <setup_rom_contents+0x25d0>)
10002666:	48e1      	ldr	r0, [pc, #900]	; (100029ec <setup_rom_contents+0x25d4>)
10002668:	5098      	str	r0, [r3, r2]
1000266a:	4ae1      	ldr	r2, [pc, #900]	; (100029f0 <setup_rom_contents+0x25d8>)
1000266c:	48e1      	ldr	r0, [pc, #900]	; (100029f4 <setup_rom_contents+0x25dc>)
1000266e:	5098      	str	r0, [r3, r2]
10002670:	48e1      	ldr	r0, [pc, #900]	; (100029f8 <setup_rom_contents+0x25e0>)
10002672:	3204      	adds	r2, #4
10002674:	5098      	str	r0, [r3, r2]
10002676:	4ae1      	ldr	r2, [pc, #900]	; (100029fc <setup_rom_contents+0x25e4>)
10002678:	48e1      	ldr	r0, [pc, #900]	; (10002a00 <setup_rom_contents+0x25e8>)
1000267a:	5098      	str	r0, [r3, r2]
1000267c:	4ae1      	ldr	r2, [pc, #900]	; (10002a04 <setup_rom_contents+0x25ec>)
1000267e:	48e2      	ldr	r0, [pc, #904]	; (10002a08 <setup_rom_contents+0x25f0>)
10002680:	5098      	str	r0, [r3, r2]
10002682:	4ae2      	ldr	r2, [pc, #904]	; (10002a0c <setup_rom_contents+0x25f4>)
10002684:	48e2      	ldr	r0, [pc, #904]	; (10002a10 <setup_rom_contents+0x25f8>)
10002686:	5098      	str	r0, [r3, r2]
10002688:	48e2      	ldr	r0, [pc, #904]	; (10002a14 <setup_rom_contents+0x25fc>)
1000268a:	3204      	adds	r2, #4
1000268c:	5098      	str	r0, [r3, r2]
1000268e:	4ae2      	ldr	r2, [pc, #904]	; (10002a18 <setup_rom_contents+0x2600>)
10002690:	48e2      	ldr	r0, [pc, #904]	; (10002a1c <setup_rom_contents+0x2604>)
10002692:	5098      	str	r0, [r3, r2]
10002694:	4ae2      	ldr	r2, [pc, #904]	; (10002a20 <setup_rom_contents+0x2608>)
10002696:	48e3      	ldr	r0, [pc, #908]	; (10002a24 <setup_rom_contents+0x260c>)
10002698:	5098      	str	r0, [r3, r2]
1000269a:	4ae3      	ldr	r2, [pc, #908]	; (10002a28 <setup_rom_contents+0x2610>)
1000269c:	48e3      	ldr	r0, [pc, #908]	; (10002a2c <setup_rom_contents+0x2614>)
1000269e:	5098      	str	r0, [r3, r2]
100026a0:	48e3      	ldr	r0, [pc, #908]	; (10002a30 <setup_rom_contents+0x2618>)
100026a2:	3204      	adds	r2, #4
100026a4:	5098      	str	r0, [r3, r2]
100026a6:	4ae3      	ldr	r2, [pc, #908]	; (10002a34 <setup_rom_contents+0x261c>)
100026a8:	48e3      	ldr	r0, [pc, #908]	; (10002a38 <setup_rom_contents+0x2620>)
100026aa:	5098      	str	r0, [r3, r2]
100026ac:	4ae3      	ldr	r2, [pc, #908]	; (10002a3c <setup_rom_contents+0x2624>)
100026ae:	48e4      	ldr	r0, [pc, #912]	; (10002a40 <setup_rom_contents+0x2628>)
100026b0:	5098      	str	r0, [r3, r2]
100026b2:	4ae4      	ldr	r2, [pc, #912]	; (10002a44 <setup_rom_contents+0x262c>)
100026b4:	48e4      	ldr	r0, [pc, #912]	; (10002a48 <setup_rom_contents+0x2630>)
100026b6:	5098      	str	r0, [r3, r2]
100026b8:	48e4      	ldr	r0, [pc, #912]	; (10002a4c <setup_rom_contents+0x2634>)
100026ba:	3204      	adds	r2, #4
100026bc:	5098      	str	r0, [r3, r2]
100026be:	4ae4      	ldr	r2, [pc, #912]	; (10002a50 <setup_rom_contents+0x2638>)
100026c0:	48e4      	ldr	r0, [pc, #912]	; (10002a54 <setup_rom_contents+0x263c>)
100026c2:	5098      	str	r0, [r3, r2]
100026c4:	4ae4      	ldr	r2, [pc, #912]	; (10002a58 <setup_rom_contents+0x2640>)
100026c6:	48e5      	ldr	r0, [pc, #916]	; (10002a5c <setup_rom_contents+0x2644>)
100026c8:	5098      	str	r0, [r3, r2]
100026ca:	4ae5      	ldr	r2, [pc, #916]	; (10002a60 <setup_rom_contents+0x2648>)
100026cc:	48e5      	ldr	r0, [pc, #916]	; (10002a64 <setup_rom_contents+0x264c>)
100026ce:	5098      	str	r0, [r3, r2]
100026d0:	48e5      	ldr	r0, [pc, #916]	; (10002a68 <setup_rom_contents+0x2650>)
100026d2:	3204      	adds	r2, #4
100026d4:	5098      	str	r0, [r3, r2]
100026d6:	4ae5      	ldr	r2, [pc, #916]	; (10002a6c <setup_rom_contents+0x2654>)
100026d8:	48e5      	ldr	r0, [pc, #916]	; (10002a70 <setup_rom_contents+0x2658>)
100026da:	5098      	str	r0, [r3, r2]
100026dc:	4ae5      	ldr	r2, [pc, #916]	; (10002a74 <setup_rom_contents+0x265c>)
100026de:	48e6      	ldr	r0, [pc, #920]	; (10002a78 <setup_rom_contents+0x2660>)
100026e0:	5098      	str	r0, [r3, r2]
100026e2:	4ae6      	ldr	r2, [pc, #920]	; (10002a7c <setup_rom_contents+0x2664>)
100026e4:	48e6      	ldr	r0, [pc, #920]	; (10002a80 <setup_rom_contents+0x2668>)
100026e6:	5098      	str	r0, [r3, r2]
100026e8:	48e6      	ldr	r0, [pc, #920]	; (10002a84 <setup_rom_contents+0x266c>)
100026ea:	3204      	adds	r2, #4
100026ec:	5098      	str	r0, [r3, r2]
100026ee:	4ae6      	ldr	r2, [pc, #920]	; (10002a88 <setup_rom_contents+0x2670>)
100026f0:	48e6      	ldr	r0, [pc, #920]	; (10002a8c <setup_rom_contents+0x2674>)
100026f2:	5098      	str	r0, [r3, r2]
100026f4:	4ae6      	ldr	r2, [pc, #920]	; (10002a90 <setup_rom_contents+0x2678>)
100026f6:	48e7      	ldr	r0, [pc, #924]	; (10002a94 <setup_rom_contents+0x267c>)
100026f8:	5298      	strh	r0, [r3, r2]
100026fa:	2285      	movs	r2, #133	; 0x85
100026fc:	48e6      	ldr	r0, [pc, #920]	; (10002a98 <setup_rom_contents+0x2680>)
100026fe:	541a      	strb	r2, [r3, r0]
10002700:	48e6      	ldr	r0, [pc, #920]	; (10002a9c <setup_rom_contents+0x2684>)
10002702:	541c      	strb	r4, [r3, r0]
10002704:	48e6      	ldr	r0, [pc, #920]	; (10002aa0 <setup_rom_contents+0x2688>)
10002706:	4ce7      	ldr	r4, [pc, #924]	; (10002aa4 <setup_rom_contents+0x268c>)
10002708:	501c      	str	r4, [r3, r0]
1000270a:	4ce7      	ldr	r4, [pc, #924]	; (10002aa8 <setup_rom_contents+0x2690>)
1000270c:	3004      	adds	r0, #4
1000270e:	501c      	str	r4, [r3, r0]
10002710:	48e6      	ldr	r0, [pc, #920]	; (10002aac <setup_rom_contents+0x2694>)
10002712:	4ce7      	ldr	r4, [pc, #924]	; (10002ab0 <setup_rom_contents+0x2698>)
10002714:	501c      	str	r4, [r3, r0]
10002716:	48e7      	ldr	r0, [pc, #924]	; (10002ab4 <setup_rom_contents+0x269c>)
10002718:	4ce7      	ldr	r4, [pc, #924]	; (10002ab8 <setup_rom_contents+0x26a0>)
1000271a:	501c      	str	r4, [r3, r0]
1000271c:	48e7      	ldr	r0, [pc, #924]	; (10002abc <setup_rom_contents+0x26a4>)
1000271e:	4ce8      	ldr	r4, [pc, #928]	; (10002ac0 <setup_rom_contents+0x26a8>)
10002720:	501c      	str	r4, [r3, r0]
10002722:	4ce8      	ldr	r4, [pc, #928]	; (10002ac4 <setup_rom_contents+0x26ac>)
10002724:	3004      	adds	r0, #4
10002726:	501c      	str	r4, [r3, r0]
10002728:	48e7      	ldr	r0, [pc, #924]	; (10002ac8 <setup_rom_contents+0x26b0>)
1000272a:	4ce8      	ldr	r4, [pc, #928]	; (10002acc <setup_rom_contents+0x26b4>)
1000272c:	501c      	str	r4, [r3, r0]
1000272e:	48e8      	ldr	r0, [pc, #928]	; (10002ad0 <setup_rom_contents+0x26b8>)
10002730:	4ce8      	ldr	r4, [pc, #928]	; (10002ad4 <setup_rom_contents+0x26bc>)
10002732:	501c      	str	r4, [r3, r0]
10002734:	48e8      	ldr	r0, [pc, #928]	; (10002ad8 <setup_rom_contents+0x26c0>)
10002736:	4ce9      	ldr	r4, [pc, #932]	; (10002adc <setup_rom_contents+0x26c4>)
10002738:	501c      	str	r4, [r3, r0]
1000273a:	4ce9      	ldr	r4, [pc, #932]	; (10002ae0 <setup_rom_contents+0x26c8>)
1000273c:	3004      	adds	r0, #4
1000273e:	501c      	str	r4, [r3, r0]
10002740:	48e8      	ldr	r0, [pc, #928]	; (10002ae4 <setup_rom_contents+0x26cc>)
10002742:	4ce9      	ldr	r4, [pc, #932]	; (10002ae8 <setup_rom_contents+0x26d0>)
10002744:	501c      	str	r4, [r3, r0]
10002746:	48e9      	ldr	r0, [pc, #932]	; (10002aec <setup_rom_contents+0x26d4>)
10002748:	4ce9      	ldr	r4, [pc, #932]	; (10002af0 <setup_rom_contents+0x26d8>)
1000274a:	501c      	str	r4, [r3, r0]
1000274c:	48e9      	ldr	r0, [pc, #932]	; (10002af4 <setup_rom_contents+0x26dc>)
1000274e:	4cea      	ldr	r4, [pc, #936]	; (10002af8 <setup_rom_contents+0x26e0>)
10002750:	501c      	str	r4, [r3, r0]
10002752:	4cea      	ldr	r4, [pc, #936]	; (10002afc <setup_rom_contents+0x26e4>)
10002754:	3004      	adds	r0, #4
10002756:	501c      	str	r4, [r3, r0]
10002758:	48e9      	ldr	r0, [pc, #932]	; (10002b00 <setup_rom_contents+0x26e8>)
1000275a:	4cea      	ldr	r4, [pc, #936]	; (10002b04 <setup_rom_contents+0x26ec>)
1000275c:	501c      	str	r4, [r3, r0]
1000275e:	48ea      	ldr	r0, [pc, #936]	; (10002b08 <setup_rom_contents+0x26f0>)
10002760:	4cea      	ldr	r4, [pc, #936]	; (10002b0c <setup_rom_contents+0x26f4>)
10002762:	501c      	str	r4, [r3, r0]
10002764:	48ea      	ldr	r0, [pc, #936]	; (10002b10 <setup_rom_contents+0x26f8>)
10002766:	4ceb      	ldr	r4, [pc, #940]	; (10002b14 <setup_rom_contents+0x26fc>)
10002768:	5118      	str	r0, [r3, r4]
1000276a:	3404      	adds	r4, #4
1000276c:	511d      	str	r5, [r3, r4]
1000276e:	4cea      	ldr	r4, [pc, #936]	; (10002b18 <setup_rom_contents+0x2700>)
10002770:	4dea      	ldr	r5, [pc, #936]	; (10002b1c <setup_rom_contents+0x2704>)
10002772:	511d      	str	r5, [r3, r4]
10002774:	4cea      	ldr	r4, [pc, #936]	; (10002b20 <setup_rom_contents+0x2708>)
10002776:	4deb      	ldr	r5, [pc, #940]	; (10002b24 <setup_rom_contents+0x270c>)
10002778:	511d      	str	r5, [r3, r4]
1000277a:	4ceb      	ldr	r4, [pc, #940]	; (10002b28 <setup_rom_contents+0x2710>)
1000277c:	4deb      	ldr	r5, [pc, #940]	; (10002b2c <setup_rom_contents+0x2714>)
1000277e:	511d      	str	r5, [r3, r4]
10002780:	4deb      	ldr	r5, [pc, #940]	; (10002b30 <setup_rom_contents+0x2718>)
10002782:	3404      	adds	r4, #4
10002784:	511d      	str	r5, [r3, r4]
10002786:	4ceb      	ldr	r4, [pc, #940]	; (10002b34 <setup_rom_contents+0x271c>)
10002788:	4deb      	ldr	r5, [pc, #940]	; (10002b38 <setup_rom_contents+0x2720>)
1000278a:	5119      	str	r1, [r3, r4]
1000278c:	49eb      	ldr	r1, [pc, #940]	; (10002b3c <setup_rom_contents+0x2724>)
1000278e:	4cec      	ldr	r4, [pc, #944]	; (10002b40 <setup_rom_contents+0x2728>)
10002790:	505c      	str	r4, [r3, r1]
10002792:	49ec      	ldr	r1, [pc, #944]	; (10002b44 <setup_rom_contents+0x272c>)
10002794:	4cec      	ldr	r4, [pc, #944]	; (10002b48 <setup_rom_contents+0x2730>)
10002796:	505c      	str	r4, [r3, r1]
10002798:	4cec      	ldr	r4, [pc, #944]	; (10002b4c <setup_rom_contents+0x2734>)
1000279a:	3104      	adds	r1, #4
1000279c:	505c      	str	r4, [r3, r1]
1000279e:	49ec      	ldr	r1, [pc, #944]	; (10002b50 <setup_rom_contents+0x2738>)
100027a0:	4cec      	ldr	r4, [pc, #944]	; (10002b54 <setup_rom_contents+0x273c>)
100027a2:	505c      	str	r4, [r3, r1]
100027a4:	49ec      	ldr	r1, [pc, #944]	; (10002b58 <setup_rom_contents+0x2740>)
100027a6:	4ced      	ldr	r4, [pc, #948]	; (10002b5c <setup_rom_contents+0x2744>)
100027a8:	505c      	str	r4, [r3, r1]
100027aa:	49ed      	ldr	r1, [pc, #948]	; (10002b60 <setup_rom_contents+0x2748>)
100027ac:	4ced      	ldr	r4, [pc, #948]	; (10002b64 <setup_rom_contents+0x274c>)
100027ae:	505c      	str	r4, [r3, r1]
100027b0:	4ced      	ldr	r4, [pc, #948]	; (10002b68 <setup_rom_contents+0x2750>)
100027b2:	3104      	adds	r1, #4
100027b4:	505c      	str	r4, [r3, r1]
100027b6:	49ed      	ldr	r1, [pc, #948]	; (10002b6c <setup_rom_contents+0x2754>)
100027b8:	4ced      	ldr	r4, [pc, #948]	; (10002b70 <setup_rom_contents+0x2758>)
100027ba:	505c      	str	r4, [r3, r1]
100027bc:	49ed      	ldr	r1, [pc, #948]	; (10002b74 <setup_rom_contents+0x275c>)
100027be:	4cee      	ldr	r4, [pc, #952]	; (10002b78 <setup_rom_contents+0x2760>)
100027c0:	505c      	str	r4, [r3, r1]
100027c2:	49ee      	ldr	r1, [pc, #952]	; (10002b7c <setup_rom_contents+0x2764>)
100027c4:	4cee      	ldr	r4, [pc, #952]	; (10002b80 <setup_rom_contents+0x2768>)
100027c6:	505c      	str	r4, [r3, r1]
100027c8:	4cee      	ldr	r4, [pc, #952]	; (10002b84 <setup_rom_contents+0x276c>)
100027ca:	3104      	adds	r1, #4
100027cc:	505c      	str	r4, [r3, r1]
100027ce:	49ee      	ldr	r1, [pc, #952]	; (10002b88 <setup_rom_contents+0x2770>)
100027d0:	4cee      	ldr	r4, [pc, #952]	; (10002b8c <setup_rom_contents+0x2774>)
100027d2:	505c      	str	r4, [r3, r1]
100027d4:	49ee      	ldr	r1, [pc, #952]	; (10002b90 <setup_rom_contents+0x2778>)
100027d6:	4cef      	ldr	r4, [pc, #956]	; (10002b94 <setup_rom_contents+0x277c>)
100027d8:	505c      	str	r4, [r3, r1]
100027da:	49ef      	ldr	r1, [pc, #956]	; (10002b98 <setup_rom_contents+0x2780>)
100027dc:	4cef      	ldr	r4, [pc, #956]	; (10002b9c <setup_rom_contents+0x2784>)
100027de:	505c      	str	r4, [r3, r1]
100027e0:	4cef      	ldr	r4, [pc, #956]	; (10002ba0 <setup_rom_contents+0x2788>)
100027e2:	3104      	adds	r1, #4
100027e4:	505c      	str	r4, [r3, r1]
100027e6:	49ef      	ldr	r1, [pc, #956]	; (10002ba4 <setup_rom_contents+0x278c>)
100027e8:	4cef      	ldr	r4, [pc, #956]	; (10002ba8 <setup_rom_contents+0x2790>)
100027ea:	505c      	str	r4, [r3, r1]
100027ec:	49ef      	ldr	r1, [pc, #956]	; (10002bac <setup_rom_contents+0x2794>)
100027ee:	4cf0      	ldr	r4, [pc, #960]	; (10002bb0 <setup_rom_contents+0x2798>)
100027f0:	505c      	str	r4, [r3, r1]
100027f2:	49f0      	ldr	r1, [pc, #960]	; (10002bb4 <setup_rom_contents+0x279c>)
100027f4:	4cf0      	ldr	r4, [pc, #960]	; (10002bb8 <setup_rom_contents+0x27a0>)
100027f6:	505c      	str	r4, [r3, r1]
100027f8:	4cf0      	ldr	r4, [pc, #960]	; (10002bbc <setup_rom_contents+0x27a4>)
100027fa:	3104      	adds	r1, #4
100027fc:	505c      	str	r4, [r3, r1]
100027fe:	49f0      	ldr	r1, [pc, #960]	; (10002bc0 <setup_rom_contents+0x27a8>)
10002800:	4cf0      	ldr	r4, [pc, #960]	; (10002bc4 <setup_rom_contents+0x27ac>)
10002802:	505c      	str	r4, [r3, r1]
10002804:	49f0      	ldr	r1, [pc, #960]	; (10002bc8 <setup_rom_contents+0x27b0>)
10002806:	4cf1      	ldr	r4, [pc, #964]	; (10002bcc <setup_rom_contents+0x27b4>)
10002808:	505c      	str	r4, [r3, r1]
1000280a:	49f1      	ldr	r1, [pc, #964]	; (10002bd0 <setup_rom_contents+0x27b8>)
1000280c:	4cf1      	ldr	r4, [pc, #964]	; (10002bd4 <setup_rom_contents+0x27bc>)
1000280e:	505c      	str	r4, [r3, r1]
10002810:	4cf1      	ldr	r4, [pc, #964]	; (10002bd8 <setup_rom_contents+0x27c0>)
10002812:	3104      	adds	r1, #4
10002814:	505c      	str	r4, [r3, r1]
10002816:	49f1      	ldr	r1, [pc, #964]	; (10002bdc <setup_rom_contents+0x27c4>)
10002818:	4cf1      	ldr	r4, [pc, #964]	; (10002be0 <setup_rom_contents+0x27c8>)
1000281a:	505c      	str	r4, [r3, r1]
1000281c:	49f1      	ldr	r1, [pc, #964]	; (10002be4 <setup_rom_contents+0x27cc>)
1000281e:	4cf2      	ldr	r4, [pc, #968]	; (10002be8 <setup_rom_contents+0x27d0>)
10002820:	505c      	str	r4, [r3, r1]
10002822:	49f2      	ldr	r1, [pc, #968]	; (10002bec <setup_rom_contents+0x27d4>)
10002824:	4cf2      	ldr	r4, [pc, #968]	; (10002bf0 <setup_rom_contents+0x27d8>)
10002826:	505c      	str	r4, [r3, r1]
10002828:	4cf2      	ldr	r4, [pc, #968]	; (10002bf4 <setup_rom_contents+0x27dc>)
1000282a:	3104      	adds	r1, #4
1000282c:	505c      	str	r4, [r3, r1]
1000282e:	49f2      	ldr	r1, [pc, #968]	; (10002bf8 <setup_rom_contents+0x27e0>)
10002830:	4cf2      	ldr	r4, [pc, #968]	; (10002bfc <setup_rom_contents+0x27e4>)
10002832:	505c      	str	r4, [r3, r1]
10002834:	49f2      	ldr	r1, [pc, #968]	; (10002c00 <setup_rom_contents+0x27e8>)
10002836:	4cf3      	ldr	r4, [pc, #972]	; (10002c04 <setup_rom_contents+0x27ec>)
10002838:	505c      	str	r4, [r3, r1]
1000283a:	49f3      	ldr	r1, [pc, #972]	; (10002c08 <setup_rom_contents+0x27f0>)
1000283c:	4cf3      	ldr	r4, [pc, #972]	; (10002c0c <setup_rom_contents+0x27f4>)
1000283e:	505c      	str	r4, [r3, r1]
10002840:	4cf3      	ldr	r4, [pc, #972]	; (10002c10 <setup_rom_contents+0x27f8>)
10002842:	3104      	adds	r1, #4
10002844:	505c      	str	r4, [r3, r1]
10002846:	49f3      	ldr	r1, [pc, #972]	; (10002c14 <setup_rom_contents+0x27fc>)
10002848:	4cf3      	ldr	r4, [pc, #972]	; (10002c18 <setup_rom_contents+0x2800>)
1000284a:	505c      	str	r4, [r3, r1]
1000284c:	49f3      	ldr	r1, [pc, #972]	; (10002c1c <setup_rom_contents+0x2804>)
1000284e:	4cf4      	ldr	r4, [pc, #976]	; (10002c20 <setup_rom_contents+0x2808>)
10002850:	5119      	str	r1, [r3, r4]
10002852:	4cf4      	ldr	r4, [pc, #976]	; (10002c24 <setup_rom_contents+0x280c>)
10002854:	511d      	str	r5, [r3, r4]
10002856:	4df4      	ldr	r5, [pc, #976]	; (10002c28 <setup_rom_contents+0x2810>)
10002858:	3404      	adds	r4, #4
1000285a:	511d      	str	r5, [r3, r4]
1000285c:	4cf3      	ldr	r4, [pc, #972]	; (10002c2c <setup_rom_contents+0x2814>)
1000285e:	4df4      	ldr	r5, [pc, #976]	; (10002c30 <setup_rom_contents+0x2818>)
10002860:	511d      	str	r5, [r3, r4]
10002862:	4cf4      	ldr	r4, [pc, #976]	; (10002c34 <setup_rom_contents+0x281c>)
10002864:	4df4      	ldr	r5, [pc, #976]	; (10002c38 <setup_rom_contents+0x2820>)
10002866:	511d      	str	r5, [r3, r4]
10002868:	4cf4      	ldr	r4, [pc, #976]	; (10002c3c <setup_rom_contents+0x2824>)
1000286a:	4df5      	ldr	r5, [pc, #980]	; (10002c40 <setup_rom_contents+0x2828>)
1000286c:	511d      	str	r5, [r3, r4]
1000286e:	4df5      	ldr	r5, [pc, #980]	; (10002c44 <setup_rom_contents+0x282c>)
10002870:	3404      	adds	r4, #4
10002872:	531d      	strh	r5, [r3, r4]
10002874:	25f0      	movs	r5, #240	; 0xf0
10002876:	4cf4      	ldr	r4, [pc, #976]	; (10002c48 <setup_rom_contents+0x2830>)
10002878:	551d      	strb	r5, [r3, r4]
1000287a:	4cf4      	ldr	r4, [pc, #976]	; (10002c4c <setup_rom_contents+0x2834>)
1000287c:	3d32      	subs	r5, #50	; 0x32
1000287e:	551d      	strb	r5, [r3, r4]
10002880:	4cf3      	ldr	r4, [pc, #972]	; (10002c50 <setup_rom_contents+0x2838>)
10002882:	4df4      	ldr	r5, [pc, #976]	; (10002c54 <setup_rom_contents+0x283c>)
10002884:	511d      	str	r5, [r3, r4]
10002886:	4cf4      	ldr	r4, [pc, #976]	; (10002c58 <setup_rom_contents+0x2840>)
10002888:	4df4      	ldr	r5, [pc, #976]	; (10002c5c <setup_rom_contents+0x2844>)
1000288a:	511d      	str	r5, [r3, r4]
1000288c:	4cf4      	ldr	r4, [pc, #976]	; (10002c60 <setup_rom_contents+0x2848>)
1000288e:	4df5      	ldr	r5, [pc, #980]	; (10002c64 <setup_rom_contents+0x284c>)
10002890:	511d      	str	r5, [r3, r4]
10002892:	4df5      	ldr	r5, [pc, #980]	; (10002c68 <setup_rom_contents+0x2850>)
10002894:	3404      	adds	r4, #4
10002896:	511d      	str	r5, [r3, r4]
10002898:	4cf4      	ldr	r4, [pc, #976]	; (10002c6c <setup_rom_contents+0x2854>)
1000289a:	4df5      	ldr	r5, [pc, #980]	; (10002c70 <setup_rom_contents+0x2858>)
1000289c:	511d      	str	r5, [r3, r4]
1000289e:	4cf5      	ldr	r4, [pc, #980]	; (10002c74 <setup_rom_contents+0x285c>)
100028a0:	4df5      	ldr	r5, [pc, #980]	; (10002c78 <setup_rom_contents+0x2860>)
100028a2:	511d      	str	r5, [r3, r4]
100028a4:	4cf5      	ldr	r4, [pc, #980]	; (10002c7c <setup_rom_contents+0x2864>)
100028a6:	4df6      	ldr	r5, [pc, #984]	; (10002c80 <setup_rom_contents+0x2868>)
100028a8:	511d      	str	r5, [r3, r4]
100028aa:	4df6      	ldr	r5, [pc, #984]	; (10002c84 <setup_rom_contents+0x286c>)
100028ac:	3404      	adds	r4, #4
100028ae:	511d      	str	r5, [r3, r4]
100028b0:	4cf5      	ldr	r4, [pc, #980]	; (10002c88 <setup_rom_contents+0x2870>)
100028b2:	4df6      	ldr	r5, [pc, #984]	; (10002c8c <setup_rom_contents+0x2874>)
100028b4:	511d      	str	r5, [r3, r4]
100028b6:	4cf6      	ldr	r4, [pc, #984]	; (10002c90 <setup_rom_contents+0x2878>)
100028b8:	4df6      	ldr	r5, [pc, #984]	; (10002c94 <setup_rom_contents+0x287c>)
100028ba:	511d      	str	r5, [r3, r4]
100028bc:	4cf6      	ldr	r4, [pc, #984]	; (10002c98 <setup_rom_contents+0x2880>)
100028be:	4df7      	ldr	r5, [pc, #988]	; (10002c9c <setup_rom_contents+0x2884>)
100028c0:	511d      	str	r5, [r3, r4]
100028c2:	4df7      	ldr	r5, [pc, #988]	; (10002ca0 <setup_rom_contents+0x2888>)
100028c4:	3404      	adds	r4, #4
100028c6:	511d      	str	r5, [r3, r4]
100028c8:	4cf6      	ldr	r4, [pc, #984]	; (10002ca4 <setup_rom_contents+0x288c>)
100028ca:	4df7      	ldr	r5, [pc, #988]	; (10002ca8 <setup_rom_contents+0x2890>)
100028cc:	511d      	str	r5, [r3, r4]
100028ce:	4cf7      	ldr	r4, [pc, #988]	; (10002cac <setup_rom_contents+0x2894>)
100028d0:	4df7      	ldr	r5, [pc, #988]	; (10002cb0 <setup_rom_contents+0x2898>)
100028d2:	511d      	str	r5, [r3, r4]
100028d4:	4cf7      	ldr	r4, [pc, #988]	; (10002cb4 <setup_rom_contents+0x289c>)
100028d6:	4df8      	ldr	r5, [pc, #992]	; (10002cb8 <setup_rom_contents+0x28a0>)
100028d8:	511d      	str	r5, [r3, r4]
100028da:	4df8      	ldr	r5, [pc, #992]	; (10002cbc <setup_rom_contents+0x28a4>)
100028dc:	3404      	adds	r4, #4
100028de:	511d      	str	r5, [r3, r4]
100028e0:	4cf7      	ldr	r4, [pc, #988]	; (10002cc0 <setup_rom_contents+0x28a8>)
100028e2:	4df8      	ldr	r5, [pc, #992]	; (10002cc4 <setup_rom_contents+0x28ac>)
100028e4:	511d      	str	r5, [r3, r4]
100028e6:	4cf8      	ldr	r4, [pc, #992]	; (10002cc8 <setup_rom_contents+0x28b0>)
100028e8:	4df8      	ldr	r5, [pc, #992]	; (10002ccc <setup_rom_contents+0x28b4>)
100028ea:	511d      	str	r5, [r3, r4]
100028ec:	4cf8      	ldr	r4, [pc, #992]	; (10002cd0 <setup_rom_contents+0x28b8>)
100028ee:	4df9      	ldr	r5, [pc, #996]	; (10002cd4 <setup_rom_contents+0x28bc>)
100028f0:	511d      	str	r5, [r3, r4]
100028f2:	4df9      	ldr	r5, [pc, #996]	; (10002cd8 <setup_rom_contents+0x28c0>)
100028f4:	3404      	adds	r4, #4
100028f6:	511d      	str	r5, [r3, r4]
100028f8:	4cf8      	ldr	r4, [pc, #992]	; (10002cdc <setup_rom_contents+0x28c4>)
100028fa:	4df9      	ldr	r5, [pc, #996]	; (10002ce0 <setup_rom_contents+0x28c8>)
100028fc:	511d      	str	r5, [r3, r4]
100028fe:	4cf9      	ldr	r4, [pc, #996]	; (10002ce4 <setup_rom_contents+0x28cc>)
10002900:	4df9      	ldr	r5, [pc, #996]	; (10002ce8 <setup_rom_contents+0x28d0>)
10002902:	511d      	str	r5, [r3, r4]
10002904:	4df9      	ldr	r5, [pc, #996]	; (10002cec <setup_rom_contents+0x28d4>)
10002906:	4cfa      	ldr	r4, [pc, #1000]	; (10002cf0 <setup_rom_contents+0x28d8>)
10002908:	511d      	str	r5, [r3, r4]
1000290a:	3404      	adds	r4, #4
1000290c:	5118      	str	r0, [r3, r4]
1000290e:	48f9      	ldr	r0, [pc, #996]	; (10002cf4 <setup_rom_contents+0x28dc>)
10002910:	4cf9      	ldr	r4, [pc, #996]	; (10002cf8 <setup_rom_contents+0x28e0>)
10002912:	501c      	str	r4, [r3, r0]
10002914:	48f9      	ldr	r0, [pc, #996]	; (10002cfc <setup_rom_contents+0x28e4>)
10002916:	4cfa      	ldr	r4, [pc, #1000]	; (10002d00 <setup_rom_contents+0x28e8>)
10002918:	501c      	str	r4, [r3, r0]
1000291a:	48fa      	ldr	r0, [pc, #1000]	; (10002d04 <setup_rom_contents+0x28ec>)
1000291c:	4cfa      	ldr	r4, [pc, #1000]	; (10002d08 <setup_rom_contents+0x28f0>)
1000291e:	501c      	str	r4, [r3, r0]
10002920:	4cfa      	ldr	r4, [pc, #1000]	; (10002d0c <setup_rom_contents+0x28f4>)
10002922:	3004      	adds	r0, #4
10002924:	501c      	str	r4, [r3, r0]
10002926:	48fa      	ldr	r0, [pc, #1000]	; (10002d10 <setup_rom_contents+0x28f8>)
10002928:	4cfa      	ldr	r4, [pc, #1000]	; (10002d14 <setup_rom_contents+0x28fc>)
1000292a:	501c      	str	r4, [r3, r0]
1000292c:	48fa      	ldr	r0, [pc, #1000]	; (10002d18 <setup_rom_contents+0x2900>)
1000292e:	4cfb      	ldr	r4, [pc, #1004]	; (10002d1c <setup_rom_contents+0x2904>)
10002930:	501c      	str	r4, [r3, r0]
10002932:	48fb      	ldr	r0, [pc, #1004]	; (10002d20 <setup_rom_contents+0x2908>)
10002934:	4cfb      	ldr	r4, [pc, #1004]	; (10002d24 <setup_rom_contents+0x290c>)
10002936:	501c      	str	r4, [r3, r0]
10002938:	4cfb      	ldr	r4, [pc, #1004]	; (10002d28 <setup_rom_contents+0x2910>)
1000293a:	3004      	adds	r0, #4
1000293c:	501c      	str	r4, [r3, r0]
1000293e:	48fb      	ldr	r0, [pc, #1004]	; (10002d2c <setup_rom_contents+0x2914>)
10002940:	4cfb      	ldr	r4, [pc, #1004]	; (10002d30 <setup_rom_contents+0x2918>)
10002942:	501c      	str	r4, [r3, r0]
10002944:	48fb      	ldr	r0, [pc, #1004]	; (10002d34 <setup_rom_contents+0x291c>)
10002946:	4cfc      	ldr	r4, [pc, #1008]	; (10002d38 <setup_rom_contents+0x2920>)
10002948:	501c      	str	r4, [r3, r0]
1000294a:	48fc      	ldr	r0, [pc, #1008]	; (10002d3c <setup_rom_contents+0x2924>)
1000294c:	4cfc      	ldr	r4, [pc, #1008]	; (10002d40 <setup_rom_contents+0x2928>)
1000294e:	501c      	str	r4, [r3, r0]
10002950:	4cfc      	ldr	r4, [pc, #1008]	; (10002d44 <setup_rom_contents+0x292c>)
10002952:	3004      	adds	r0, #4
10002954:	501c      	str	r4, [r3, r0]
10002956:	48fc      	ldr	r0, [pc, #1008]	; (10002d48 <setup_rom_contents+0x2930>)
10002958:	4cfc      	ldr	r4, [pc, #1008]	; (10002d4c <setup_rom_contents+0x2934>)
1000295a:	501c      	str	r4, [r3, r0]
1000295c:	48fc      	ldr	r0, [pc, #1008]	; (10002d50 <setup_rom_contents+0x2938>)
1000295e:	4cfd      	ldr	r4, [pc, #1012]	; (10002d54 <setup_rom_contents+0x293c>)
10002960:	501c      	str	r4, [r3, r0]
10002962:	48fd      	ldr	r0, [pc, #1012]	; (10002d58 <setup_rom_contents+0x2940>)
10002964:	4cfd      	ldr	r4, [pc, #1012]	; (10002d5c <setup_rom_contents+0x2944>)
10002966:	501c      	str	r4, [r3, r0]
10002968:	4cfd      	ldr	r4, [pc, #1012]	; (10002d60 <setup_rom_contents+0x2948>)
1000296a:	3004      	adds	r0, #4
1000296c:	501c      	str	r4, [r3, r0]
1000296e:	48fd      	ldr	r0, [pc, #1012]	; (10002d64 <setup_rom_contents+0x294c>)
10002970:	e1fa      	b.n	10002d68 <setup_rom_contents+0x2950>
10002972:	46c0      	nop			; (mov r8, r8)
10002974:	00000bf4 	.word	0x00000bf4
10002978:	4a4860c6 	.word	0x4a4860c6
1000297c:	00000bf8 	.word	0x00000bf8
10002980:	294a4a4a 	.word	0x294a4a4a
10002984:	00000bfc 	.word	0x00000bfc
10002988:	c968aa0e 	.word	0xc968aa0e
1000298c:	b01f2960 	.word	0xb01f2960
10002990:	00000c04 	.word	0x00000c04
10002994:	18e00902 	.word	0x18e00902
10002998:	00000c08 	.word	0x00000c08
1000299c:	2a6507f0 	.word	0x2a6507f0
100029a0:	00000c0c 	.word	0x00000c0c
100029a4:	6598bc85 	.word	0x6598bc85
100029a8:	4cbd852b 	.word	0x4cbd852b
100029ac:	00000c14 	.word	0x00000c14
100029b0:	2ca58b3a 	.word	0x2ca58b3a
100029b4:	00000c18 	.word	0x00000c18
100029b8:	2da5b885 	.word	0x2da5b885
100029bc:	00000c1c 	.word	0x00000c1c
100029c0:	6320b985 	.word	0x6320b985
100029c4:	8c52208c 	.word	0x8c52208c
100029c8:	00000c24 	.word	0x00000c24
100029cc:	00000c28 	.word	0x00000c28
100029d0:	f08a8d37 	.word	0xf08a8d37
100029d4:	00000c2c 	.word	0x00000c2c
100029d8:	12f00af1 	.word	0x12f00af1
100029dc:	2c85b8a5 	.word	0x2c85b8a5
100029e0:	00000c34 	.word	0x00000c34
100029e4:	2d85b9a5 	.word	0x2d85b9a5
100029e8:	00000c38 	.word	0x00000c38
100029ec:	208ba24c 	.word	0x208ba24c
100029f0:	00000c3c 	.word	0x00000c3c
100029f4:	0dc98c63 	.word	0x0dc98c63
100029f8:	2060f6d0 	.word	0x2060f6d0
100029fc:	00000c44 	.word	0x00000c44
10002a00:	5bc98c63 	.word	0x5bc98c63
10002a04:	00000c48 	.word	0x00000c48
10002a08:	41c9eeb0 	.word	0x41c9eeb0
10002a0c:	00000c4c 	.word	0x00000c4c
10002a10:	200aea90 	.word	0x200aea90
10002a14:	00a08dc5 	.word	0x00a08dc5
10002a18:	00000c54 	.word	0x00000c54
10002a1c:	2ce62cb1 	.word	0x2ce62cb1
10002a20:	00000c58 	.word	0x00000c58
10002a24:	2de602d0 	.word	0x2de602d0
10002a28:	00000c5c 	.word	0x00000c5c
10002a2c:	60180dc9 	.word	0x60180dc9
10002a30:	b18c5220 	.word	0xb18c5220
10002a34:	00000c64 	.word	0x00000c64
10002a38:	f020c92c 	.word	0xf020c92c
10002a3c:	00000c68 	.word	0x00000c68
10002a40:	183ac9f7 	.word	0x183ac9f7
10002a44:	00000c6c 	.word	0x00000c6c
10002a48:	30c90210 	.word	0x30c90210
10002a4c:	8c632060 	.word	0x8c632060
10002a50:	00000c74 	.word	0x00000c74
10002a54:	bc84c290 	.word	0xbc84c290
10002a58:	00000c78 	.word	0x00000c78
10002a5c:	bca5bd84 	.word	0xbca5bd84
10002a60:	00000c7c 	.word	0x00000c7c
10002a64:	bc06bda6 	.word	0xbc06bda6
10002a68:	bc06bd26 	.word	0xbc06bd26
10002a6c:	00000c84 	.word	0x00000c84
10002a70:	6518bd26 	.word	0x6518bd26
10002a74:	00000c88 	.word	0x00000c88
10002a78:	8abc85bc 	.word	0x8abc85bc
10002a7c:	00000c8c 	.word	0x00000c8c
10002a80:	bc06bd65 	.word	0xbc06bd65
10002a84:	20bd852a 	.word	0x20bd852a
10002a88:	00000c94 	.word	0x00000c94
10002a8c:	0f298c52 	.word	0x0f298c52
10002a90:	00000c98 	.word	0x00000c98
10002a94:	ffffbc65 	.word	0xffffbc65
10002a98:	00000c9a 	.word	0x00000c9a
10002a9c:	00000c9b 	.word	0x00000c9b
10002aa0:	00000c9c 	.word	0x00000c9c
10002aa4:	85bd6598 	.word	0x85bd6598
10002aa8:	8c6320bd 	.word	0x8c6320bd
10002aac:	00000ca4 	.word	0x00000ca4
10002ab0:	be4cd4b0 	.word	0xbe4cd4b0
10002ab4:	00000ca8 	.word	0x00000ca8
10002ab8:	8f3a208d 	.word	0x8f3a208d
10002abc:	00000cac 	.word	0x00000cac
10002ac0:	bd05bca5 	.word	0xbd05bca5
10002ac4:	20a548f0 	.word	0x20a548f0
10002ac8:	00000cb4 	.word	0x00000cb4
10002acc:	21a52c85 	.word	0x21a52c85
10002ad0:	00000cb8 	.word	0x00000cb8
10002ad4:	ab202d85 	.word	0xab202d85
10002ad8:	00000cbc 	.word	0x00000cbc
10002adc:	a512f08d 	.word	0xa512f08d
10002ae0:	a5bcc528 	.word	0xa5bcc528
10002ae4:	00000cc4 	.word	0x00000cc4
10002ae8:	b0bde529 	.word	0xb0bde529
10002aec:	00000cc8 	.word	0x00000cc8
10002af0:	8c522008 	.word	0x8c522008
10002af4:	00000ccc 	.word	0x00000ccc
10002af8:	ba4cfbd0 	.word	0xba4cfbd0
10002afc:	4528a58c 	.word	0x4528a58c
10002b00:	00000cd4 	.word	0x00000cd4
10002b04:	a504d0bc 	.word	0xa504d0bc
10002b08:	00000cd8 	.word	0x00000cd8
10002b0c:	60bd4529 	.word	0x60bd4529
10002b10:	208ce420 	.word	0x208ce420
10002b14:	00000cdc 	.word	0x00000cdc
10002b18:	00000ce4 	.word	0x00000ce4
10002b1c:	0330bfe6 	.word	0x0330bfe6
10002b20:	00000ce8 	.word	0x00000ce8
10002b24:	c68a3b4c 	.word	0xc68a3b4c
10002b28:	00000cec 	.word	0x00000cec
10002b2c:	22c960bf 	.word	0x22c960bf
10002b30:	e420fbf0 	.word	0xe420fbf0
10002b34:	00000cf4 	.word	0x00000cf4
10002b38:	8dab202d 	.word	0x8dab202d
10002b3c:	00000cf8 	.word	0x00000cf8
10002b40:	524cf4d0 	.word	0x524cf4d0
10002b44:	00000cfc 	.word	0x00000cfc
10002b48:	2020a98b 	.word	0x2020a98b
10002b4c:	bfa58ce4 	.word	0xbfa58ce4
10002b50:	00000d04 	.word	0x00000d04
10002b54:	e5308729 	.word	0xe5308729
10002b58:	00000d08 	.word	0x00000d08
10002b5c:	a260f3d0 	.word	0xa260f3d0
10002b60:	00000d0c 	.word	0x00000d0c
10002b64:	8b94207b 	.word	0x8b94207b
10002b68:	c1e6c1e6 	.word	0xc1e6c1e6
10002b6c:	00000d14 	.word	0x00000d14
10002b70:	b538c1e6 	.word	0xb538c1e6
10002b74:	00000d18 	.word	0x00000d18
10002b78:	9500f503 	.word	0x9500f503
10002b7c:	00000d1c 	.word	0x00000d1c
10002b80:	f504b500 	.word	0xf504b500
10002b84:	49045001 	.word	0x49045001
10002b88:	00000d24 	.word	0x00000d24
10002b8c:	30010980 	.word	0x30010980
10002b90:	00000d28 	.word	0x00000d28
10002b94:	1504d00a 	.word	0x1504d00a
10002b98:	00000d2c 	.word	0x00000d2c
10002b9c:	5602f000 	.word	0x5602f000
10002ba0:	56025602 	.word	0x56025602
10002ba4:	00000d34 	.word	0x00000d34
10002ba8:	a00c9002 	.word	0xa00c9002
10002bac:	00000d38 	.word	0x00000d38
10002bb0:	e62ab100 	.word	0xe62ab100
10002bb4:	00000d3c 	.word	0x00000d3c
10002bb8:	e602d02a 	.word	0xe602d02a
10002bbc:	6000092b 	.word	0x6000092b
10002bc0:	00000d44 	.word	0x00000d44
10002bc4:	28f0bea5 	.word	0x28f0bea5
10002bc8:	00000d48 	.word	0x00000d48
10002bcc:	d08c5220 	.word	0xd08c5220
10002bd0:	00000d4c 	.word	0x00000d4c
10002bd4:	8dab20fb 	.word	0x8dab20fb
10002bd8:	8a201bf0 	.word	0x8a201bf0
10002bdc:	00000d54 	.word	0x00000d54
10002be0:	8a3e208d 	.word	0x8a3e208d
10002be4:	00000d58 	.word	0x00000d58
10002be8:	c4a509b0 	.word	0xc4a509b0
10002bec:	00000d5c 	.word	0x00000d5c
10002bf0:	c5a52a85 	.word	0xc5a52a85
10002bf4:	ad602b85 	.word	0xad602b85
10002bf8:	00000d64 	.word	0x00000d64
10002bfc:	2a858ab5 	.word	0x2a858ab5
10002c00:	00000d68 	.word	0x00000d68
10002c04:	858ab6ad 	.word	0x858ab6ad
10002c08:	00000d6c 	.word	0x00000d6c
10002c0c:	8b524c2b 	.word	0x8b524c2b
10002c10:	874cbf85 	.word	0x874cbf85
10002c14:	00000d74 	.word	0x00000d74
10002c18:	8520a58b 	.word	0x8520a58b
10002c1c:	8521a52c 	.word	0x8521a52c
10002c20:	00000d78 	.word	0x00000d78
10002c24:	00000d7c 	.word	0x00000d7c
10002c28:	2aa5ebf0 	.word	0x2aa5ebf0
10002c2c:	00000d84 	.word	0x00000d84
10002c30:	2ba5c485 	.word	0x2ba5c485
10002c34:	00000d88 	.word	0x00000d88
10002c38:	01a9c585 	.word	0x01a9c585
10002c3c:	00000d8c 	.word	0x00000d8c
10002c40:	2060be85 	.word	0x2060be85
10002c44:	ffff8ca9 	.word	0xffff8ca9
10002c48:	00000d92 	.word	0x00000d92
10002c4c:	00000d93 	.word	0x00000d93
10002c50:	00000d94 	.word	0x00000d94
10002c54:	2885bca5 	.word	0x2885bca5
10002c58:	00000d98 	.word	0x00000d98
10002c5c:	2985bda5 	.word	0x2985bda5
10002c60:	00000d9c 	.word	0x00000d9c
10002c64:	208b524c 	.word	0x208b524c
10002c68:	3820913b 	.word	0x3820913b
10002c6c:	00000da4 	.word	0x00000da4
10002c70:	8cb22091 	.word	0x8cb22091
10002c74:	00000da8 	.word	0x00000da8
10002c78:	2060ead0 	.word	0x2060ead0
10002c7c:	00000dac 	.word	0x00000dac
10002c80:	28858c52 	.word	0x28858c52
10002c84:	858c5220 	.word	0x858c5220
10002c88:	00000db4 	.word	0x00000db4
10002c8c:	60280529 	.word	0x60280529
10002c90:	00000db8 	.word	0x00000db8
10002c94:	208f3a20 	.word	0x208f3a20
10002c98:	00000dbc 	.word	0x00000dbc
10002c9c:	bda58dbe 	.word	0xbda58dbe
10002ca0:	a58dc520 	.word	0xa58dc520
10002ca4:	00000dc4 	.word	0x00000dc4
10002ca8:	cac1a6bc 	.word	0xcac1a6bc
10002cac:	00000dc8 	.word	0x00000dc8
10002cb0:	c1860095 	.word	0xc1860095
10002cb4:	00000dcc 	.word	0x00000dcc
10002cb8:	0dd0c0e4 	.word	0x0dd0c0e4
10002cbc:	a68b524c 	.word	0xa68b524c
10002cc0:	00000dd4 	.word	0x00000dd4
10002cc4:	1080e0c1 	.word	0x1080e0c1
10002cc8:	00000dd8 	.word	0x00000dd8
10002ccc:	e600b5f7 	.word	0xe600b5f7
10002cd0:	00000ddc 	.word	0x00000ddc
10002cd4:	bd8560c1 	.word	0xbd8560c1
10002cd8:	f64cbc86 	.word	0xf64cbc86
10002cdc:	00000de4 	.word	0x00000de4
10002ce0:	b5c1a68d 	.word	0xb5c1a68d
10002ce4:	00000de8 	.word	0x00000de8
10002ce8:	20081001 	.word	0x20081001
10002cec:	2da9907f 	.word	0x2da9907f
10002cf0:	00000dec 	.word	0x00000dec
10002cf4:	00000df4 	.word	0x00000df4
10002cf8:	1fa98f3a 	.word	0x1fa98f3a
10002cfc:	00000df8 	.word	0x00000df8
10002d00:	ba85b885 	.word	0xba85b885
10002d04:	00000dfc 	.word	0x00000dfc
10002d08:	b9852aa9 	.word	0xb9852aa9
10002d0c:	bca6bb85 	.word	0xbca6bb85
10002d10:	00000e04 	.word	0x00000e04
10002d14:	e638bda4 	.word	0xe638bda4
10002d18:	00000e08 	.word	0x00000e08
10002d1c:	10e98ab8 	.word	0x10e98ab8
10002d20:	00000e0c 	.word	0x00000e0c
10002d24:	27e998aa 	.word	0x27e998aa
10002d28:	c6f4b0a8 	.word	0xc6f4b0a8
10002d2c:	00000e14 	.word	0x00000e14
10002d30:	e8698ab9 	.word	0xe8698ab9
10002d34:	00000e18 	.word	0x00000e18
10002d38:	036998aa 	.word	0x036998aa
10002d3c:	00000e1c 	.word	0x00000e1c
10002d40:	8af490a8 	.word	0x8af490a8
10002d44:	e9bae638 	.word	0xe9bae638
10002d48:	00000e24 	.word	0x00000e24
10002d4c:	88f9b064 	.word	0x88f9b064
10002d50:	00000e28 	.word	0x00000e28
10002d54:	bbc6f610 	.word	0xbbc6f610
10002d58:	00000e2c 	.word	0x00000e2c
10002d5c:	fa900a69 	.word	0xfa900a69
10002d60:	bc853009 	.word	0xbc853009
10002d64:	00000e34 	.word	0x00000e34
10002d68:	4cd9      	ldr	r4, [pc, #868]	; (100030d0 <setup_rom_contents+0x2cb8>)
10002d6a:	501c      	str	r4, [r3, r0]
10002d6c:	48d9      	ldr	r0, [pc, #868]	; (100030d4 <setup_rom_contents+0x2cbc>)
10002d6e:	4cda      	ldr	r4, [pc, #872]	; (100030d8 <setup_rom_contents+0x2cc0>)
10002d70:	501c      	str	r4, [r3, r0]
10002d72:	48da      	ldr	r0, [pc, #872]	; (100030dc <setup_rom_contents+0x2cc4>)
10002d74:	4cda      	ldr	r4, [pc, #872]	; (100030e0 <setup_rom_contents+0x2cc8>)
10002d76:	501c      	str	r4, [r3, r0]
10002d78:	4cda      	ldr	r4, [pc, #872]	; (100030e4 <setup_rom_contents+0x2ccc>)
10002d7a:	3004      	adds	r0, #4
10002d7c:	501c      	str	r4, [r3, r0]
10002d7e:	48da      	ldr	r0, [pc, #872]	; (100030e8 <setup_rom_contents+0x2cd0>)
10002d80:	4cda      	ldr	r4, [pc, #872]	; (100030ec <setup_rom_contents+0x2cd4>)
10002d82:	501c      	str	r4, [r3, r0]
10002d84:	48da      	ldr	r0, [pc, #872]	; (100030f0 <setup_rom_contents+0x2cd8>)
10002d86:	4cdb      	ldr	r4, [pc, #876]	; (100030f4 <setup_rom_contents+0x2cdc>)
10002d88:	501c      	str	r4, [r3, r0]
10002d8a:	48db      	ldr	r0, [pc, #876]	; (100030f8 <setup_rom_contents+0x2ce0>)
10002d8c:	4cdb      	ldr	r4, [pc, #876]	; (100030fc <setup_rom_contents+0x2ce4>)
10002d8e:	501c      	str	r4, [r3, r0]
10002d90:	4cdb      	ldr	r4, [pc, #876]	; (10003100 <setup_rom_contents+0x2ce8>)
10002d92:	3004      	adds	r0, #4
10002d94:	501c      	str	r4, [r3, r0]
10002d96:	48db      	ldr	r0, [pc, #876]	; (10003104 <setup_rom_contents+0x2cec>)
10002d98:	4cdb      	ldr	r4, [pc, #876]	; (10003108 <setup_rom_contents+0x2cf0>)
10002d9a:	501c      	str	r4, [r3, r0]
10002d9c:	48db      	ldr	r0, [pc, #876]	; (1000310c <setup_rom_contents+0x2cf4>)
10002d9e:	4cdc      	ldr	r4, [pc, #880]	; (10003110 <setup_rom_contents+0x2cf8>)
10002da0:	501c      	str	r4, [r3, r0]
10002da2:	48dc      	ldr	r0, [pc, #880]	; (10003114 <setup_rom_contents+0x2cfc>)
10002da4:	5019      	str	r1, [r3, r0]
10002da6:	21e6      	movs	r1, #230	; 0xe6
10002da8:	48db      	ldr	r0, [pc, #876]	; (10003118 <setup_rom_contents+0x2d00>)
10002daa:	0109      	lsls	r1, r1, #4
10002dac:	5058      	str	r0, [r3, r1]
10002dae:	49db      	ldr	r1, [pc, #876]	; (1000311c <setup_rom_contents+0x2d04>)
10002db0:	48db      	ldr	r0, [pc, #876]	; (10003120 <setup_rom_contents+0x2d08>)
10002db2:	5058      	str	r0, [r3, r1]
10002db4:	49db      	ldr	r1, [pc, #876]	; (10003124 <setup_rom_contents+0x2d0c>)
10002db6:	48dc      	ldr	r0, [pc, #880]	; (10003128 <setup_rom_contents+0x2d10>)
10002db8:	5058      	str	r0, [r3, r1]
10002dba:	49dc      	ldr	r1, [pc, #880]	; (1000312c <setup_rom_contents+0x2d14>)
10002dbc:	48dc      	ldr	r0, [pc, #880]	; (10003130 <setup_rom_contents+0x2d18>)
10002dbe:	5058      	str	r0, [r3, r1]
10002dc0:	48dc      	ldr	r0, [pc, #880]	; (10003134 <setup_rom_contents+0x2d1c>)
10002dc2:	3104      	adds	r1, #4
10002dc4:	5058      	str	r0, [r3, r1]
10002dc6:	49dc      	ldr	r1, [pc, #880]	; (10003138 <setup_rom_contents+0x2d20>)
10002dc8:	48dc      	ldr	r0, [pc, #880]	; (1000313c <setup_rom_contents+0x2d24>)
10002dca:	5058      	str	r0, [r3, r1]
10002dcc:	49dc      	ldr	r1, [pc, #880]	; (10003140 <setup_rom_contents+0x2d28>)
10002dce:	48dd      	ldr	r0, [pc, #884]	; (10003144 <setup_rom_contents+0x2d2c>)
10002dd0:	5058      	str	r0, [r3, r1]
10002dd2:	49dd      	ldr	r1, [pc, #884]	; (10003148 <setup_rom_contents+0x2d30>)
10002dd4:	48dd      	ldr	r0, [pc, #884]	; (1000314c <setup_rom_contents+0x2d34>)
10002dd6:	5058      	str	r0, [r3, r1]
10002dd8:	48dd      	ldr	r0, [pc, #884]	; (10003150 <setup_rom_contents+0x2d38>)
10002dda:	3104      	adds	r1, #4
10002ddc:	5058      	str	r0, [r3, r1]
10002dde:	49dd      	ldr	r1, [pc, #884]	; (10003154 <setup_rom_contents+0x2d3c>)
10002de0:	48dd      	ldr	r0, [pc, #884]	; (10003158 <setup_rom_contents+0x2d40>)
10002de2:	5058      	str	r0, [r3, r1]
10002de4:	49dd      	ldr	r1, [pc, #884]	; (1000315c <setup_rom_contents+0x2d44>)
10002de6:	48de      	ldr	r0, [pc, #888]	; (10003160 <setup_rom_contents+0x2d48>)
10002de8:	5258      	strh	r0, [r3, r1]
10002dea:	203e      	movs	r0, #62	; 0x3e
10002dec:	49dd      	ldr	r1, [pc, #884]	; (10003164 <setup_rom_contents+0x2d4c>)
10002dee:	5458      	strb	r0, [r3, r1]
10002df0:	49dd      	ldr	r1, [pc, #884]	; (10003168 <setup_rom_contents+0x2d50>)
10002df2:	304c      	adds	r0, #76	; 0x4c
10002df4:	5458      	strb	r0, [r3, r1]
10002df6:	49dd      	ldr	r1, [pc, #884]	; (1000316c <setup_rom_contents+0x2d54>)
10002df8:	48dd      	ldr	r0, [pc, #884]	; (10003170 <setup_rom_contents+0x2d58>)
10002dfa:	5058      	str	r0, [r3, r1]
10002dfc:	48dd      	ldr	r0, [pc, #884]	; (10003174 <setup_rom_contents+0x2d5c>)
10002dfe:	3104      	adds	r1, #4
10002e00:	5058      	str	r0, [r3, r1]
10002e02:	49dd      	ldr	r1, [pc, #884]	; (10003178 <setup_rom_contents+0x2d60>)
10002e04:	48dd      	ldr	r0, [pc, #884]	; (1000317c <setup_rom_contents+0x2d64>)
10002e06:	5058      	str	r0, [r3, r1]
10002e08:	49dd      	ldr	r1, [pc, #884]	; (10003180 <setup_rom_contents+0x2d68>)
10002e0a:	48de      	ldr	r0, [pc, #888]	; (10003184 <setup_rom_contents+0x2d6c>)
10002e0c:	5058      	str	r0, [r3, r1]
10002e0e:	49de      	ldr	r1, [pc, #888]	; (10003188 <setup_rom_contents+0x2d70>)
10002e10:	48de      	ldr	r0, [pc, #888]	; (1000318c <setup_rom_contents+0x2d74>)
10002e12:	5058      	str	r0, [r3, r1]
10002e14:	48de      	ldr	r0, [pc, #888]	; (10003190 <setup_rom_contents+0x2d78>)
10002e16:	3104      	adds	r1, #4
10002e18:	5058      	str	r0, [r3, r1]
10002e1a:	49de      	ldr	r1, [pc, #888]	; (10003194 <setup_rom_contents+0x2d7c>)
10002e1c:	48de      	ldr	r0, [pc, #888]	; (10003198 <setup_rom_contents+0x2d80>)
10002e1e:	5058      	str	r0, [r3, r1]
10002e20:	49de      	ldr	r1, [pc, #888]	; (1000319c <setup_rom_contents+0x2d84>)
10002e22:	48df      	ldr	r0, [pc, #892]	; (100031a0 <setup_rom_contents+0x2d88>)
10002e24:	5058      	str	r0, [r3, r1]
10002e26:	49df      	ldr	r1, [pc, #892]	; (100031a4 <setup_rom_contents+0x2d8c>)
10002e28:	48df      	ldr	r0, [pc, #892]	; (100031a8 <setup_rom_contents+0x2d90>)
10002e2a:	5058      	str	r0, [r3, r1]
10002e2c:	48df      	ldr	r0, [pc, #892]	; (100031ac <setup_rom_contents+0x2d94>)
10002e2e:	3104      	adds	r1, #4
10002e30:	5058      	str	r0, [r3, r1]
10002e32:	49df      	ldr	r1, [pc, #892]	; (100031b0 <setup_rom_contents+0x2d98>)
10002e34:	48df      	ldr	r0, [pc, #892]	; (100031b4 <setup_rom_contents+0x2d9c>)
10002e36:	5058      	str	r0, [r3, r1]
10002e38:	49df      	ldr	r1, [pc, #892]	; (100031b8 <setup_rom_contents+0x2da0>)
10002e3a:	48e0      	ldr	r0, [pc, #896]	; (100031bc <setup_rom_contents+0x2da4>)
10002e3c:	5058      	str	r0, [r3, r1]
10002e3e:	49e0      	ldr	r1, [pc, #896]	; (100031c0 <setup_rom_contents+0x2da8>)
10002e40:	48e0      	ldr	r0, [pc, #896]	; (100031c4 <setup_rom_contents+0x2dac>)
10002e42:	5058      	str	r0, [r3, r1]
10002e44:	48e0      	ldr	r0, [pc, #896]	; (100031c8 <setup_rom_contents+0x2db0>)
10002e46:	3104      	adds	r1, #4
10002e48:	5058      	str	r0, [r3, r1]
10002e4a:	49e0      	ldr	r1, [pc, #896]	; (100031cc <setup_rom_contents+0x2db4>)
10002e4c:	48e0      	ldr	r0, [pc, #896]	; (100031d0 <setup_rom_contents+0x2db8>)
10002e4e:	5058      	str	r0, [r3, r1]
10002e50:	49e0      	ldr	r1, [pc, #896]	; (100031d4 <setup_rom_contents+0x2dbc>)
10002e52:	48e1      	ldr	r0, [pc, #900]	; (100031d8 <setup_rom_contents+0x2dc0>)
10002e54:	5058      	str	r0, [r3, r1]
10002e56:	49e1      	ldr	r1, [pc, #900]	; (100031dc <setup_rom_contents+0x2dc4>)
10002e58:	48e1      	ldr	r0, [pc, #900]	; (100031e0 <setup_rom_contents+0x2dc8>)
10002e5a:	5058      	str	r0, [r3, r1]
10002e5c:	48e1      	ldr	r0, [pc, #900]	; (100031e4 <setup_rom_contents+0x2dcc>)
10002e5e:	3104      	adds	r1, #4
10002e60:	5058      	str	r0, [r3, r1]
10002e62:	49e1      	ldr	r1, [pc, #900]	; (100031e8 <setup_rom_contents+0x2dd0>)
10002e64:	48e1      	ldr	r0, [pc, #900]	; (100031ec <setup_rom_contents+0x2dd4>)
10002e66:	5058      	str	r0, [r3, r1]
10002e68:	49e1      	ldr	r1, [pc, #900]	; (100031f0 <setup_rom_contents+0x2dd8>)
10002e6a:	48e2      	ldr	r0, [pc, #904]	; (100031f4 <setup_rom_contents+0x2ddc>)
10002e6c:	5058      	str	r0, [r3, r1]
10002e6e:	49e2      	ldr	r1, [pc, #904]	; (100031f8 <setup_rom_contents+0x2de0>)
10002e70:	48e2      	ldr	r0, [pc, #904]	; (100031fc <setup_rom_contents+0x2de4>)
10002e72:	5058      	str	r0, [r3, r1]
10002e74:	48e2      	ldr	r0, [pc, #904]	; (10003200 <setup_rom_contents+0x2de8>)
10002e76:	3104      	adds	r1, #4
10002e78:	5058      	str	r0, [r3, r1]
10002e7a:	49e2      	ldr	r1, [pc, #904]	; (10003204 <setup_rom_contents+0x2dec>)
10002e7c:	48e2      	ldr	r0, [pc, #904]	; (10003208 <setup_rom_contents+0x2df0>)
10002e7e:	5058      	str	r0, [r3, r1]
10002e80:	49e2      	ldr	r1, [pc, #904]	; (1000320c <setup_rom_contents+0x2df4>)
10002e82:	48e3      	ldr	r0, [pc, #908]	; (10003210 <setup_rom_contents+0x2df8>)
10002e84:	5058      	str	r0, [r3, r1]
10002e86:	49e3      	ldr	r1, [pc, #908]	; (10003214 <setup_rom_contents+0x2dfc>)
10002e88:	48e3      	ldr	r0, [pc, #908]	; (10003218 <setup_rom_contents+0x2e00>)
10002e8a:	5058      	str	r0, [r3, r1]
10002e8c:	48e3      	ldr	r0, [pc, #908]	; (1000321c <setup_rom_contents+0x2e04>)
10002e8e:	3104      	adds	r1, #4
10002e90:	5058      	str	r0, [r3, r1]
10002e92:	49e3      	ldr	r1, [pc, #908]	; (10003220 <setup_rom_contents+0x2e08>)
10002e94:	48e3      	ldr	r0, [pc, #908]	; (10003224 <setup_rom_contents+0x2e0c>)
10002e96:	5058      	str	r0, [r3, r1]
10002e98:	49e3      	ldr	r1, [pc, #908]	; (10003228 <setup_rom_contents+0x2e10>)
10002e9a:	48e4      	ldr	r0, [pc, #912]	; (1000322c <setup_rom_contents+0x2e14>)
10002e9c:	5058      	str	r0, [r3, r1]
10002e9e:	49e4      	ldr	r1, [pc, #912]	; (10003230 <setup_rom_contents+0x2e18>)
10002ea0:	48e4      	ldr	r0, [pc, #912]	; (10003234 <setup_rom_contents+0x2e1c>)
10002ea2:	5058      	str	r0, [r3, r1]
10002ea4:	48e4      	ldr	r0, [pc, #912]	; (10003238 <setup_rom_contents+0x2e20>)
10002ea6:	3104      	adds	r1, #4
10002ea8:	5058      	str	r0, [r3, r1]
10002eaa:	49e4      	ldr	r1, [pc, #912]	; (1000323c <setup_rom_contents+0x2e24>)
10002eac:	48e4      	ldr	r0, [pc, #912]	; (10003240 <setup_rom_contents+0x2e28>)
10002eae:	5058      	str	r0, [r3, r1]
10002eb0:	49e4      	ldr	r1, [pc, #912]	; (10003244 <setup_rom_contents+0x2e2c>)
10002eb2:	48e5      	ldr	r0, [pc, #916]	; (10003248 <setup_rom_contents+0x2e30>)
10002eb4:	5058      	str	r0, [r3, r1]
10002eb6:	49e5      	ldr	r1, [pc, #916]	; (1000324c <setup_rom_contents+0x2e34>)
10002eb8:	48e5      	ldr	r0, [pc, #916]	; (10003250 <setup_rom_contents+0x2e38>)
10002eba:	5058      	str	r0, [r3, r1]
10002ebc:	48e5      	ldr	r0, [pc, #916]	; (10003254 <setup_rom_contents+0x2e3c>)
10002ebe:	3104      	adds	r1, #4
10002ec0:	5058      	str	r0, [r3, r1]
10002ec2:	49e5      	ldr	r1, [pc, #916]	; (10003258 <setup_rom_contents+0x2e40>)
10002ec4:	48e5      	ldr	r0, [pc, #916]	; (1000325c <setup_rom_contents+0x2e44>)
10002ec6:	5058      	str	r0, [r3, r1]
10002ec8:	49e5      	ldr	r1, [pc, #916]	; (10003260 <setup_rom_contents+0x2e48>)
10002eca:	48e6      	ldr	r0, [pc, #920]	; (10003264 <setup_rom_contents+0x2e4c>)
10002ecc:	5058      	str	r0, [r3, r1]
10002ece:	49e6      	ldr	r1, [pc, #920]	; (10003268 <setup_rom_contents+0x2e50>)
10002ed0:	48e6      	ldr	r0, [pc, #920]	; (1000326c <setup_rom_contents+0x2e54>)
10002ed2:	5058      	str	r0, [r3, r1]
10002ed4:	48e6      	ldr	r0, [pc, #920]	; (10003270 <setup_rom_contents+0x2e58>)
10002ed6:	3104      	adds	r1, #4
10002ed8:	5058      	str	r0, [r3, r1]
10002eda:	49e6      	ldr	r1, [pc, #920]	; (10003274 <setup_rom_contents+0x2e5c>)
10002edc:	48e6      	ldr	r0, [pc, #920]	; (10003278 <setup_rom_contents+0x2e60>)
10002ede:	5058      	str	r0, [r3, r1]
10002ee0:	49e6      	ldr	r1, [pc, #920]	; (1000327c <setup_rom_contents+0x2e64>)
10002ee2:	48e7      	ldr	r0, [pc, #924]	; (10003280 <setup_rom_contents+0x2e68>)
10002ee4:	5058      	str	r0, [r3, r1]
10002ee6:	49e7      	ldr	r1, [pc, #924]	; (10003284 <setup_rom_contents+0x2e6c>)
10002ee8:	48e7      	ldr	r0, [pc, #924]	; (10003288 <setup_rom_contents+0x2e70>)
10002eea:	5058      	str	r0, [r3, r1]
10002eec:	48e7      	ldr	r0, [pc, #924]	; (1000328c <setup_rom_contents+0x2e74>)
10002eee:	3104      	adds	r1, #4
10002ef0:	5058      	str	r0, [r3, r1]
10002ef2:	49e7      	ldr	r1, [pc, #924]	; (10003290 <setup_rom_contents+0x2e78>)
10002ef4:	48e7      	ldr	r0, [pc, #924]	; (10003294 <setup_rom_contents+0x2e7c>)
10002ef6:	5058      	str	r0, [r3, r1]
10002ef8:	49e7      	ldr	r1, [pc, #924]	; (10003298 <setup_rom_contents+0x2e80>)
10002efa:	48e8      	ldr	r0, [pc, #928]	; (1000329c <setup_rom_contents+0x2e84>)
10002efc:	5058      	str	r0, [r3, r1]
10002efe:	49e8      	ldr	r1, [pc, #928]	; (100032a0 <setup_rom_contents+0x2e88>)
10002f00:	48e8      	ldr	r0, [pc, #928]	; (100032a4 <setup_rom_contents+0x2e8c>)
10002f02:	5058      	str	r0, [r3, r1]
10002f04:	48e8      	ldr	r0, [pc, #928]	; (100032a8 <setup_rom_contents+0x2e90>)
10002f06:	3104      	adds	r1, #4
10002f08:	5058      	str	r0, [r3, r1]
10002f0a:	49e8      	ldr	r1, [pc, #928]	; (100032ac <setup_rom_contents+0x2e94>)
10002f0c:	48e8      	ldr	r0, [pc, #928]	; (100032b0 <setup_rom_contents+0x2e98>)
10002f0e:	5058      	str	r0, [r3, r1]
10002f10:	49e8      	ldr	r1, [pc, #928]	; (100032b4 <setup_rom_contents+0x2e9c>)
10002f12:	48e9      	ldr	r0, [pc, #932]	; (100032b8 <setup_rom_contents+0x2ea0>)
10002f14:	5058      	str	r0, [r3, r1]
10002f16:	49e9      	ldr	r1, [pc, #932]	; (100032bc <setup_rom_contents+0x2ea4>)
10002f18:	48e9      	ldr	r0, [pc, #932]	; (100032c0 <setup_rom_contents+0x2ea8>)
10002f1a:	5058      	str	r0, [r3, r1]
10002f1c:	48e9      	ldr	r0, [pc, #932]	; (100032c4 <setup_rom_contents+0x2eac>)
10002f1e:	3104      	adds	r1, #4
10002f20:	5058      	str	r0, [r3, r1]
10002f22:	49e9      	ldr	r1, [pc, #932]	; (100032c8 <setup_rom_contents+0x2eb0>)
10002f24:	48e9      	ldr	r0, [pc, #932]	; (100032cc <setup_rom_contents+0x2eb4>)
10002f26:	5058      	str	r0, [r3, r1]
10002f28:	49e9      	ldr	r1, [pc, #932]	; (100032d0 <setup_rom_contents+0x2eb8>)
10002f2a:	48ea      	ldr	r0, [pc, #936]	; (100032d4 <setup_rom_contents+0x2ebc>)
10002f2c:	5058      	str	r0, [r3, r1]
10002f2e:	49ea      	ldr	r1, [pc, #936]	; (100032d8 <setup_rom_contents+0x2ec0>)
10002f30:	48ea      	ldr	r0, [pc, #936]	; (100032dc <setup_rom_contents+0x2ec4>)
10002f32:	5058      	str	r0, [r3, r1]
10002f34:	48ea      	ldr	r0, [pc, #936]	; (100032e0 <setup_rom_contents+0x2ec8>)
10002f36:	3104      	adds	r1, #4
10002f38:	5058      	str	r0, [r3, r1]
10002f3a:	49ea      	ldr	r1, [pc, #936]	; (100032e4 <setup_rom_contents+0x2ecc>)
10002f3c:	48ea      	ldr	r0, [pc, #936]	; (100032e8 <setup_rom_contents+0x2ed0>)
10002f3e:	5058      	str	r0, [r3, r1]
10002f40:	49ea      	ldr	r1, [pc, #936]	; (100032ec <setup_rom_contents+0x2ed4>)
10002f42:	48eb      	ldr	r0, [pc, #940]	; (100032f0 <setup_rom_contents+0x2ed8>)
10002f44:	5058      	str	r0, [r3, r1]
10002f46:	49eb      	ldr	r1, [pc, #940]	; (100032f4 <setup_rom_contents+0x2edc>)
10002f48:	48eb      	ldr	r0, [pc, #940]	; (100032f8 <setup_rom_contents+0x2ee0>)
10002f4a:	5058      	str	r0, [r3, r1]
10002f4c:	48eb      	ldr	r0, [pc, #940]	; (100032fc <setup_rom_contents+0x2ee4>)
10002f4e:	3104      	adds	r1, #4
10002f50:	5058      	str	r0, [r3, r1]
10002f52:	49eb      	ldr	r1, [pc, #940]	; (10003300 <setup_rom_contents+0x2ee8>)
10002f54:	48eb      	ldr	r0, [pc, #940]	; (10003304 <setup_rom_contents+0x2eec>)
10002f56:	5058      	str	r0, [r3, r1]
10002f58:	49eb      	ldr	r1, [pc, #940]	; (10003308 <setup_rom_contents+0x2ef0>)
10002f5a:	48ec      	ldr	r0, [pc, #944]	; (1000330c <setup_rom_contents+0x2ef4>)
10002f5c:	5058      	str	r0, [r3, r1]
10002f5e:	49ec      	ldr	r1, [pc, #944]	; (10003310 <setup_rom_contents+0x2ef8>)
10002f60:	48ec      	ldr	r0, [pc, #944]	; (10003314 <setup_rom_contents+0x2efc>)
10002f62:	5058      	str	r0, [r3, r1]
10002f64:	48ec      	ldr	r0, [pc, #944]	; (10003318 <setup_rom_contents+0x2f00>)
10002f66:	3104      	adds	r1, #4
10002f68:	5258      	strh	r0, [r3, r1]
10002f6a:	20b6      	movs	r0, #182	; 0xb6
10002f6c:	49eb      	ldr	r1, [pc, #940]	; (1000331c <setup_rom_contents+0x2f04>)
10002f6e:	5458      	strb	r0, [r3, r1]
10002f70:	49eb      	ldr	r1, [pc, #940]	; (10003320 <setup_rom_contents+0x2f08>)
10002f72:	48ec      	ldr	r0, [pc, #944]	; (10003324 <setup_rom_contents+0x2f0c>)
10002f74:	545a      	strb	r2, [r3, r1]
10002f76:	4aec      	ldr	r2, [pc, #944]	; (10003328 <setup_rom_contents+0x2f10>)
10002f78:	49ec      	ldr	r1, [pc, #944]	; (1000332c <setup_rom_contents+0x2f14>)
10002f7a:	5099      	str	r1, [r3, r2]
10002f7c:	4aec      	ldr	r2, [pc, #944]	; (10003330 <setup_rom_contents+0x2f18>)
10002f7e:	49ed      	ldr	r1, [pc, #948]	; (10003334 <setup_rom_contents+0x2f1c>)
10002f80:	5099      	str	r1, [r3, r2]
10002f82:	4aed      	ldr	r2, [pc, #948]	; (10003338 <setup_rom_contents+0x2f20>)
10002f84:	49ed      	ldr	r1, [pc, #948]	; (1000333c <setup_rom_contents+0x2f24>)
10002f86:	5099      	str	r1, [r3, r2]
10002f88:	49ed      	ldr	r1, [pc, #948]	; (10003340 <setup_rom_contents+0x2f28>)
10002f8a:	3204      	adds	r2, #4
10002f8c:	5099      	str	r1, [r3, r2]
10002f8e:	4aed      	ldr	r2, [pc, #948]	; (10003344 <setup_rom_contents+0x2f2c>)
10002f90:	49ed      	ldr	r1, [pc, #948]	; (10003348 <setup_rom_contents+0x2f30>)
10002f92:	5099      	str	r1, [r3, r2]
10002f94:	4aed      	ldr	r2, [pc, #948]	; (1000334c <setup_rom_contents+0x2f34>)
10002f96:	49ee      	ldr	r1, [pc, #952]	; (10003350 <setup_rom_contents+0x2f38>)
10002f98:	5099      	str	r1, [r3, r2]
10002f9a:	4aee      	ldr	r2, [pc, #952]	; (10003354 <setup_rom_contents+0x2f3c>)
10002f9c:	49ee      	ldr	r1, [pc, #952]	; (10003358 <setup_rom_contents+0x2f40>)
10002f9e:	5099      	str	r1, [r3, r2]
10002fa0:	49ee      	ldr	r1, [pc, #952]	; (1000335c <setup_rom_contents+0x2f44>)
10002fa2:	3204      	adds	r2, #4
10002fa4:	5099      	str	r1, [r3, r2]
10002fa6:	4aee      	ldr	r2, [pc, #952]	; (10003360 <setup_rom_contents+0x2f48>)
10002fa8:	49ee      	ldr	r1, [pc, #952]	; (10003364 <setup_rom_contents+0x2f4c>)
10002faa:	5099      	str	r1, [r3, r2]
10002fac:	4aee      	ldr	r2, [pc, #952]	; (10003368 <setup_rom_contents+0x2f50>)
10002fae:	49ef      	ldr	r1, [pc, #956]	; (1000336c <setup_rom_contents+0x2f54>)
10002fb0:	5099      	str	r1, [r3, r2]
10002fb2:	4aef      	ldr	r2, [pc, #956]	; (10003370 <setup_rom_contents+0x2f58>)
10002fb4:	49ef      	ldr	r1, [pc, #956]	; (10003374 <setup_rom_contents+0x2f5c>)
10002fb6:	5099      	str	r1, [r3, r2]
10002fb8:	49ef      	ldr	r1, [pc, #956]	; (10003378 <setup_rom_contents+0x2f60>)
10002fba:	3204      	adds	r2, #4
10002fbc:	5099      	str	r1, [r3, r2]
10002fbe:	4aef      	ldr	r2, [pc, #956]	; (1000337c <setup_rom_contents+0x2f64>)
10002fc0:	49ef      	ldr	r1, [pc, #956]	; (10003380 <setup_rom_contents+0x2f68>)
10002fc2:	5099      	str	r1, [r3, r2]
10002fc4:	4aef      	ldr	r2, [pc, #956]	; (10003384 <setup_rom_contents+0x2f6c>)
10002fc6:	49f0      	ldr	r1, [pc, #960]	; (10003388 <setup_rom_contents+0x2f70>)
10002fc8:	5099      	str	r1, [r3, r2]
10002fca:	4af0      	ldr	r2, [pc, #960]	; (1000338c <setup_rom_contents+0x2f74>)
10002fcc:	49f0      	ldr	r1, [pc, #960]	; (10003390 <setup_rom_contents+0x2f78>)
10002fce:	5099      	str	r1, [r3, r2]
10002fd0:	49f0      	ldr	r1, [pc, #960]	; (10003394 <setup_rom_contents+0x2f7c>)
10002fd2:	3204      	adds	r2, #4
10002fd4:	5099      	str	r1, [r3, r2]
10002fd6:	4af0      	ldr	r2, [pc, #960]	; (10003398 <setup_rom_contents+0x2f80>)
10002fd8:	49f0      	ldr	r1, [pc, #960]	; (1000339c <setup_rom_contents+0x2f84>)
10002fda:	5099      	str	r1, [r3, r2]
10002fdc:	4af0      	ldr	r2, [pc, #960]	; (100033a0 <setup_rom_contents+0x2f88>)
10002fde:	49f1      	ldr	r1, [pc, #964]	; (100033a4 <setup_rom_contents+0x2f8c>)
10002fe0:	5099      	str	r1, [r3, r2]
10002fe2:	4af1      	ldr	r2, [pc, #964]	; (100033a8 <setup_rom_contents+0x2f90>)
10002fe4:	49f1      	ldr	r1, [pc, #964]	; (100033ac <setup_rom_contents+0x2f94>)
10002fe6:	5099      	str	r1, [r3, r2]
10002fe8:	49f1      	ldr	r1, [pc, #964]	; (100033b0 <setup_rom_contents+0x2f98>)
10002fea:	3204      	adds	r2, #4
10002fec:	5099      	str	r1, [r3, r2]
10002fee:	4af1      	ldr	r2, [pc, #964]	; (100033b4 <setup_rom_contents+0x2f9c>)
10002ff0:	49f1      	ldr	r1, [pc, #964]	; (100033b8 <setup_rom_contents+0x2fa0>)
10002ff2:	5099      	str	r1, [r3, r2]
10002ff4:	4af1      	ldr	r2, [pc, #964]	; (100033bc <setup_rom_contents+0x2fa4>)
10002ff6:	49f2      	ldr	r1, [pc, #968]	; (100033c0 <setup_rom_contents+0x2fa8>)
10002ff8:	5099      	str	r1, [r3, r2]
10002ffa:	4af2      	ldr	r2, [pc, #968]	; (100033c4 <setup_rom_contents+0x2fac>)
10002ffc:	49f2      	ldr	r1, [pc, #968]	; (100033c8 <setup_rom_contents+0x2fb0>)
10002ffe:	5099      	str	r1, [r3, r2]
10003000:	49f2      	ldr	r1, [pc, #968]	; (100033cc <setup_rom_contents+0x2fb4>)
10003002:	3204      	adds	r2, #4
10003004:	5099      	str	r1, [r3, r2]
10003006:	4af2      	ldr	r2, [pc, #968]	; (100033d0 <setup_rom_contents+0x2fb8>)
10003008:	49f2      	ldr	r1, [pc, #968]	; (100033d4 <setup_rom_contents+0x2fbc>)
1000300a:	5099      	str	r1, [r3, r2]
1000300c:	4af2      	ldr	r2, [pc, #968]	; (100033d8 <setup_rom_contents+0x2fc0>)
1000300e:	49f3      	ldr	r1, [pc, #972]	; (100033dc <setup_rom_contents+0x2fc4>)
10003010:	5099      	str	r1, [r3, r2]
10003012:	4af3      	ldr	r2, [pc, #972]	; (100033e0 <setup_rom_contents+0x2fc8>)
10003014:	49f3      	ldr	r1, [pc, #972]	; (100033e4 <setup_rom_contents+0x2fcc>)
10003016:	5099      	str	r1, [r3, r2]
10003018:	49f3      	ldr	r1, [pc, #972]	; (100033e8 <setup_rom_contents+0x2fd0>)
1000301a:	3204      	adds	r2, #4
1000301c:	5099      	str	r1, [r3, r2]
1000301e:	4af3      	ldr	r2, [pc, #972]	; (100033ec <setup_rom_contents+0x2fd4>)
10003020:	49f3      	ldr	r1, [pc, #972]	; (100033f0 <setup_rom_contents+0x2fd8>)
10003022:	5099      	str	r1, [r3, r2]
10003024:	4af3      	ldr	r2, [pc, #972]	; (100033f4 <setup_rom_contents+0x2fdc>)
10003026:	49f4      	ldr	r1, [pc, #976]	; (100033f8 <setup_rom_contents+0x2fe0>)
10003028:	5099      	str	r1, [r3, r2]
1000302a:	4af4      	ldr	r2, [pc, #976]	; (100033fc <setup_rom_contents+0x2fe4>)
1000302c:	49f4      	ldr	r1, [pc, #976]	; (10003400 <setup_rom_contents+0x2fe8>)
1000302e:	5099      	str	r1, [r3, r2]
10003030:	49f4      	ldr	r1, [pc, #976]	; (10003404 <setup_rom_contents+0x2fec>)
10003032:	3204      	adds	r2, #4
10003034:	5099      	str	r1, [r3, r2]
10003036:	4af4      	ldr	r2, [pc, #976]	; (10003408 <setup_rom_contents+0x2ff0>)
10003038:	49f4      	ldr	r1, [pc, #976]	; (1000340c <setup_rom_contents+0x2ff4>)
1000303a:	5099      	str	r1, [r3, r2]
1000303c:	4af4      	ldr	r2, [pc, #976]	; (10003410 <setup_rom_contents+0x2ff8>)
1000303e:	49f5      	ldr	r1, [pc, #980]	; (10003414 <setup_rom_contents+0x2ffc>)
10003040:	5099      	str	r1, [r3, r2]
10003042:	4af5      	ldr	r2, [pc, #980]	; (10003418 <setup_rom_contents+0x3000>)
10003044:	49f5      	ldr	r1, [pc, #980]	; (1000341c <setup_rom_contents+0x3004>)
10003046:	5099      	str	r1, [r3, r2]
10003048:	4af5      	ldr	r2, [pc, #980]	; (10003420 <setup_rom_contents+0x3008>)
1000304a:	49f6      	ldr	r1, [pc, #984]	; (10003424 <setup_rom_contents+0x300c>)
1000304c:	5099      	str	r1, [r3, r2]
1000304e:	4af6      	ldr	r2, [pc, #984]	; (10003428 <setup_rom_contents+0x3010>)
10003050:	49f6      	ldr	r1, [pc, #984]	; (1000342c <setup_rom_contents+0x3014>)
10003052:	5099      	str	r1, [r3, r2]
10003054:	4af6      	ldr	r2, [pc, #984]	; (10003430 <setup_rom_contents+0x3018>)
10003056:	49f7      	ldr	r1, [pc, #988]	; (10003434 <setup_rom_contents+0x301c>)
10003058:	5099      	str	r1, [r3, r2]
1000305a:	4af7      	ldr	r2, [pc, #988]	; (10003438 <setup_rom_contents+0x3020>)
1000305c:	49f7      	ldr	r1, [pc, #988]	; (1000343c <setup_rom_contents+0x3024>)
1000305e:	5099      	str	r1, [r3, r2]
10003060:	49f7      	ldr	r1, [pc, #988]	; (10003440 <setup_rom_contents+0x3028>)
10003062:	3204      	adds	r2, #4
10003064:	5099      	str	r1, [r3, r2]
10003066:	4af7      	ldr	r2, [pc, #988]	; (10003444 <setup_rom_contents+0x302c>)
10003068:	49f7      	ldr	r1, [pc, #988]	; (10003448 <setup_rom_contents+0x3030>)
1000306a:	5099      	str	r1, [r3, r2]
1000306c:	4af7      	ldr	r2, [pc, #988]	; (1000344c <setup_rom_contents+0x3034>)
1000306e:	49f8      	ldr	r1, [pc, #992]	; (10003450 <setup_rom_contents+0x3038>)
10003070:	5099      	str	r1, [r3, r2]
10003072:	4af8      	ldr	r2, [pc, #992]	; (10003454 <setup_rom_contents+0x303c>)
10003074:	49f8      	ldr	r1, [pc, #992]	; (10003458 <setup_rom_contents+0x3040>)
10003076:	5099      	str	r1, [r3, r2]
10003078:	4af8      	ldr	r2, [pc, #992]	; (1000345c <setup_rom_contents+0x3044>)
1000307a:	49f9      	ldr	r1, [pc, #996]	; (10003460 <setup_rom_contents+0x3048>)
1000307c:	5099      	str	r1, [r3, r2]
1000307e:	4af9      	ldr	r2, [pc, #996]	; (10003464 <setup_rom_contents+0x304c>)
10003080:	49f9      	ldr	r1, [pc, #996]	; (10003468 <setup_rom_contents+0x3050>)
10003082:	5099      	str	r1, [r3, r2]
10003084:	4af9      	ldr	r2, [pc, #996]	; (1000346c <setup_rom_contents+0x3054>)
10003086:	49fa      	ldr	r1, [pc, #1000]	; (10003470 <setup_rom_contents+0x3058>)
10003088:	5099      	str	r1, [r3, r2]
1000308a:	4afa      	ldr	r2, [pc, #1000]	; (10003474 <setup_rom_contents+0x305c>)
1000308c:	49fa      	ldr	r1, [pc, #1000]	; (10003478 <setup_rom_contents+0x3060>)
1000308e:	5099      	str	r1, [r3, r2]
10003090:	49fa      	ldr	r1, [pc, #1000]	; (1000347c <setup_rom_contents+0x3064>)
10003092:	3204      	adds	r2, #4
10003094:	5099      	str	r1, [r3, r2]
10003096:	4afa      	ldr	r2, [pc, #1000]	; (10003480 <setup_rom_contents+0x3068>)
10003098:	49fa      	ldr	r1, [pc, #1000]	; (10003484 <setup_rom_contents+0x306c>)
1000309a:	5099      	str	r1, [r3, r2]
1000309c:	4afa      	ldr	r2, [pc, #1000]	; (10003488 <setup_rom_contents+0x3070>)
1000309e:	49fb      	ldr	r1, [pc, #1004]	; (1000348c <setup_rom_contents+0x3074>)
100030a0:	5099      	str	r1, [r3, r2]
100030a2:	4afb      	ldr	r2, [pc, #1004]	; (10003490 <setup_rom_contents+0x3078>)
100030a4:	49fb      	ldr	r1, [pc, #1004]	; (10003494 <setup_rom_contents+0x307c>)
100030a6:	5099      	str	r1, [r3, r2]
100030a8:	4afb      	ldr	r2, [pc, #1004]	; (10003498 <setup_rom_contents+0x3080>)
100030aa:	49fc      	ldr	r1, [pc, #1008]	; (1000349c <setup_rom_contents+0x3084>)
100030ac:	5099      	str	r1, [r3, r2]
100030ae:	4afc      	ldr	r2, [pc, #1008]	; (100034a0 <setup_rom_contents+0x3088>)
100030b0:	49fc      	ldr	r1, [pc, #1008]	; (100034a4 <setup_rom_contents+0x308c>)
100030b2:	5099      	str	r1, [r3, r2]
100030b4:	4afc      	ldr	r2, [pc, #1008]	; (100034a8 <setup_rom_contents+0x3090>)
100030b6:	49fd      	ldr	r1, [pc, #1012]	; (100034ac <setup_rom_contents+0x3094>)
100030b8:	5099      	str	r1, [r3, r2]
100030ba:	4afd      	ldr	r2, [pc, #1012]	; (100034b0 <setup_rom_contents+0x3098>)
100030bc:	49fd      	ldr	r1, [pc, #1012]	; (100034b4 <setup_rom_contents+0x309c>)
100030be:	5099      	str	r1, [r3, r2]
100030c0:	49fd      	ldr	r1, [pc, #1012]	; (100034b8 <setup_rom_contents+0x30a0>)
100030c2:	3204      	adds	r2, #4
100030c4:	5099      	str	r1, [r3, r2]
100030c6:	4afd      	ldr	r2, [pc, #1012]	; (100034bc <setup_rom_contents+0x30a4>)
100030c8:	49fd      	ldr	r1, [pc, #1012]	; (100034c0 <setup_rom_contents+0x30a8>)
100030ca:	5099      	str	r1, [r3, r2]
100030cc:	e1fa      	b.n	100034c4 <setup_rom_contents+0x30ac>
100030ce:	46c0      	nop			; (mov r8, r8)
100030d0:	bd8520a9 	.word	0xbd8520a9
100030d4:	00000e38 	.word	0x00000e38
100030d8:	c386fba2 	.word	0xc386fba2
100030dc:	00000e3c 	.word	0x00000e3c
100030e0:	bd05bdb5 	.word	0xbd05bdb5
100030e4:	09f020c9 	.word	0x09f020c9
100030e8:	00000e44 	.word	0x00000e44
100030ec:	bd8430a0 	.word	0xbd8430a0
100030f0:	00000e48 	.word	0x00000e48
100030f4:	e420bd05 	.word	0xe420bd05
100030f8:	00000e4c 	.word	0x00000e4c
100030fc:	e8c3a68c 	.word	0xe8c3a68c
10003100:	a560e8d0 	.word	0xa560e8d0
10003104:	00000e54 	.word	0x00000e54
10003108:	2ca5482d 	.word	0x2ca5482d
1000310c:	00000e58 	.word	0x00000e58
10003110:	8520a548 	.word	0x8520a548
10003114:	00000e5c 	.word	0x00000e5c
10003118:	a624a52d 	.word	0xa624a52d
1000311c:	00000e64 	.word	0x00000e64
10003120:	8e992025 	.word	0x8e992025
10003124:	00000e68 	.word	0x00000e68
10003128:	992003f0 	.word	0x992003f0
1000312c:	00000e6c 	.word	0x00000e6c
10003130:	382ca58e 	.word	0x382ca58e
10003134:	2da5b6e5 	.word	0x2da5b6e5
10003138:	00000e74 	.word	0x00000e74
1000313c:	42b0b7e5 	.word	0x42b0b7e5
10003140:	00000e78 	.word	0x00000e78
10003144:	f08dab20 	.word	0xf08dab20
10003148:	00000e7c 	.word	0x00000e7c
1000314c:	a528a63d 	.word	0xa528a63d
10003150:	8dde2029 	.word	0x8dde2029
10003154:	00000e84 	.word	0x00000e84
10003158:	e42020a9 	.word	0xe42020a9
1000315c:	00000e88 	.word	0x00000e88
10003160:	0000208c 	.word	0x0000208c
10003164:	00000e8a 	.word	0x00000e8a
10003168:	00000e8b 	.word	0x00000e8b
1000316c:	00000e8c 	.word	0x00000e8c
10003170:	52202cb0 	.word	0x52202cb0
10003174:	20f3d08c 	.word	0x20f3d08c
10003178:	00000e94 	.word	0x00000e94
1000317c:	6d4c8ec1 	.word	0x6d4c8ec1
10003180:	00000e98 	.word	0x00000e98
10003184:	e6b6858e 	.word	0xe6b6858e
10003188:	00000e9c 	.word	0x00000e9c
1000318c:	e801d0b6 	.word	0xe801d0b6
10003190:	c1a4b786 	.word	0xc1a4b786
10003194:	00000ea4 	.word	0x00000ea4
10003198:	18f080c0 	.word	0x18f080c0
1000319c:	00000ea8 	.word	0x00000ea8
100031a0:	a58ca920 	.word	0xa58ca920
100031a4:	00000eac 	.word	0x00000eac
100031a8:	382da62c 	.word	0x382da62c
100031ac:	01b002e9 	.word	0x01b002e9
100031b0:	00000eb4 	.word	0x00000eb4
100031b4:	4c2c85ca 	.word	0x4c2c85ca
100031b8:	00000eb8 	.word	0x00000eb8
100031bc:	85689186 	.word	0x85689186
100031c0:	00000ebc 	.word	0x00000ebc
100031c4:	2d85682c 	.word	0x2d85682c
100031c8:	30bfa560 	.word	0x30bfa560
100031cc:	00000ec4 	.word	0x00000ec4
100031d0:	200da9fb 	.word	0x200da9fb
100031d4:	00000ec8 	.word	0x00000ec8
100031d8:	43ad8a3b 	.word	0x43ad8a3b
100031dc:	00000ecc 	.word	0x00000ecc
100031e0:	857f298a 	.word	0x857f298a
100031e4:	2007f0bf 	.word	0x2007f0bf
100031e8:	00000ed4 	.word	0x00000ed4
100031ec:	bfc691a2 	.word	0xbfc691a2
100031f0:	00000ed8 	.word	0x00000ed8
100031f4:	0aa9f9d0 	.word	0x0aa9f9d0
100031f8:	00000edc 	.word	0x00000edc
100031fc:	ac919f4c 	.word	0xac919f4c
10003200:	bf848a44 	.word	0xbf848a44
10003204:	00000ee4 	.word	0x00000ee4
10003208:	30a90bb0 	.word	0x30a90bb0
1000320c:	00000ee8 	.word	0x00000ee8
10003210:	c0852c85 	.word	0xc0852c85
10003214:	00000eec 	.word	0x00000eec
10003218:	be202d84 	.word	0xbe202d84
1000321c:	8580458d 	.word	0x8580458d
10003220:	00000ef4 	.word	0x00000ef4
10003224:	8a382080 	.word	0x8a382080
10003228:	00000ef8 	.word	0x00000ef8
1000322c:	c0a600a0 	.word	0xc0a600a0
10003230:	00000efc 	.word	0x00000efc
10003234:	f1f07f29 	.word	0xf1f07f29
10003238:	edf07fc9 	.word	0xedf07fc9
1000323c:	00000f04 	.word	0x00000f04
10003240:	daf013c9 	.word	0xdaf013c9
10003244:	00000f08 	.word	0x00000f08
10003248:	d3f00ac9 	.word	0xd3f00ac9
1000324c:	00000f0c 	.word	0x00000f0c
10003250:	f08a42cd 	.word	0xf08a42cd
10003254:	8a41cd09 	.word	0x8a41cd09
10003258:	00000f14 	.word	0x00000f14
1000325c:	30e00ad0 	.word	0x30e00ad0
10003260:	00000f18 	.word	0x00000f18
10003264:	2ca616d0 	.word	0x2ca616d0
10003268:	00000f1c 	.word	0x00000f1c
1000326c:	0da9bf84 	.word	0x0da9bf84
10003270:	0830c1e4 	.word	0x0830c1e4
10003274:	00000f24 	.word	0x00000f24
10003278:	e42007a9 	.word	0xe42007a9
1000327c:	00000f28 	.word	0x00000f28
10003280:	8ef14c8c 	.word	0x8ef14c8c
10003284:	00000f2c 	.word	0x00000f2c
10003288:	e8e80095 	.word	0xe8e80095
1000328c:	c9c086ca 	.word	0xc9c086ca
10003290:	00000f34 	.word	0x00000f34
10003294:	20bad00d 	.word	0x20bad00d
10003298:	00000f38 	.word	0x00000f38
1000329c:	d3208ec1 	.word	0xd3208ec1
100032a0:	00000f3c 	.word	0x00000f3c
100032a4:	20bc858d 	.word	0x20bc858d
100032a8:	bd858dd3 	.word	0xbd858dd3
100032ac:	00000f44 	.word	0x00000f44
100032b0:	91142060 	.word	0x91142060
100032b4:	00000f48 	.word	0x00000f48
100032b8:	088ca920 	.word	0x088ca920
100032bc:	00000f4c 	.word	0x00000f4c
100032c0:	858eab20 	.word	0x858eab20
100032c4:	a5b986b8 	.word	0xa5b986b8
100032c8:	00000f54 	.word	0x00000f54
100032cc:	a5b685bc 	.word	0xa5b685bc
100032d0:	00000f58 	.word	0x00000f58
100032d4:	a2b785bd 	.word	0xa2b785bd
100032d8:	00000f5c 	.word	0x00000f5c
100032dc:	0bd02800 	.word	0x0bd02800
100032e0:	ca8dab20 	.word	0xca8dab20
100032e4:	00000f64 	.word	0x00000f64
100032e8:	5220caca 	.word	0x5220caca
100032ec:	00000f68 	.word	0x00000f68
100032f0:	84fad08c 	.word	0x84fad08c
100032f4:	00000f6c 	.word	0x00000f6c
100032f8:	20298428 	.word	0x20298428
100032fc:	0da99114 	.word	0x0da99114
10003300:	00000f74 	.word	0x00000f74
10003304:	11f02cd1 	.word	0x11f02cd1
10003308:	00000f78 	.word	0x00000f78
1000330c:	e8e8e8e8 	.word	0xe8e8e8e8
10003310:	00000f7c 	.word	0x00000f7c
10003314:	d02cd1c8 	.word	0xd02cd1c8
10003318:	ffffa5fa 	.word	0xffffa5fa
1000331c:	00000f82 	.word	0x00000f82
10003320:	00000f83 	.word	0x00000f83
10003324:	01b400b5 	.word	0x01b400b5
10003328:	00000f84 	.word	0x00000f84
1000332c:	85b7a528 	.word	0x85b7a528
10003330:	00000f88 	.word	0x00000f88
10003334:	85b8a529 	.word	0x85b8a529
10003338:	00000f8c 	.word	0x00000f8c
1000333c:	85b9a5bc 	.word	0x85b9a5bc
10003340:	00a018bd 	.word	0x00a018bd
10003344:	00000f94 	.word	0x00000f94
10003348:	106ef08a 	.word	0x106ef08a
1000334c:	00000f98 	.word	0x00000f98
10003350:	852e6529 	.word	0x852e6529
10003354:	00000f9c 	.word	0x00000f9c
10003358:	e92fa5b8 	.word	0xe92fa5b8
1000335c:	b1b98500 	.word	0xb1b98500
10003360:	00000fa4 	.word	0x00000fa4
10003364:	a6b8912e 	.word	0xa6b8912e
10003368:	00000fa8 	.word	0x00000fa8
1000336c:	d024e42e 	.word	0xd024e42e
10003370:	00000fac 	.word	0x00000fac
10003374:	c52fa506 	.word	0xc52fa506
10003378:	e84af025 	.word	0xe84af025
1000337c:	00000fb4 	.word	0x00000fb4
10003380:	02d02e86 	.word	0x02d02e86
10003384:	00000fb8 	.word	0x00000fb8
10003388:	b8e62fe6 	.word	0xb8e62fe6
1000338c:	00000fbc 	.word	0x00000fbc
10003390:	b9e6e5d0 	.word	0xb9e6e5d0
10003394:	2465e1d0 	.word	0x2465e1d0
10003398:	00000fc4 	.word	0x00000fc4
1000339c:	2e85b885 	.word	0x2e85b885
100033a0:	00000fc8 	.word	0x00000fc8
100033a4:	85256598 	.word	0x85256598
100033a8:	00000fcc 	.word	0x00000fcc
100033ac:	a52f85b9 	.word	0xa52f85b9
100033b0:	a5c6e52e 	.word	0xa5c6e52e
100033b4:	00000fd4 	.word	0x00000fd4
100033b8:	90c7e52f 	.word	0x90c7e52f
100033bc:	00000fd8 	.word	0x00000fd8
100033c0:	4c2ac605 	.word	0x4c2ac605
100033c4:	00000fdc 	.word	0x00000fdc
100033c8:	24b18b52 	.word	0x24b18b52
100033cc:	24a62e91 	.word	0x24a62e91
100033d0:	00000fe4 	.word	0x00000fe4
100033d4:	25c602d0 	.word	0x25c602d0
100033d8:	00000fe8 	.word	0x00000fe8
100033dc:	2ea624c6 	.word	0x2ea624c6
100033e0:	00000fec 	.word	0x00000fec
100033e4:	2fc602d0 	.word	0x2fc602d0
100033e8:	e42e86ca 	.word	0xe42e86ca
100033ec:	00000ff4 	.word	0x00000ff4
100033f0:	a6e7d0bc 	.word	0xa6e7d0bc
100033f4:	00000ff8 	.word	0x00000ff8
100033f8:	d0bde42f 	.word	0xd0bde42f
100033fc:	00000ffc 	.word	0x00000ffc
10003400:	85b8a5e1 	.word	0x85b8a5e1
10003404:	85b9a524 	.word	0x85b9a524
10003408:	00001004 	.word	0x00001004
1000340c:	0528a525 	.word	0x0528a525
10003410:	00001008 	.word	0x00001008
10003414:	a517f029 	.word	0xa517f029
10003418:	0000100c 	.word	0x0000100c
1000341c:	c8bc9128 	.word	0xc8bc9128
10003420:	00001010 	.word	0x00001010
10003424:	bc9129a5 	.word	0xbc9129a5
10003428:	00001014 	.word	0x00001014
1000342c:	20b684c8 	.word	0x20b684c8
10003430:	00001018 	.word	0x00001018
10003434:	a4088c52 	.word	0xa4088c52
10003438:	0000101c 	.word	0x0000101c
1000343c:	28bc91b6 	.word	0x28bc91b6
10003440:	0a4cf2d0 	.word	0x0a4cf2d0
10003444:	00001024 	.word	0x00001024
10003448:	8b92208b 	.word	0x8b92208b
1000344c:	00001028 	.word	0x00001028
10003450:	802903b5 	.word	0x802903b5
10003454:	0000102c 	.word	0x0000102c
10003458:	ffa902f0 	.word	0xffa902f0
1000345c:	00001030 	.word	0x00001030
10003460:	bd85bc85 	.word	0xbd85bc85
10003464:	00001034 	.word	0x00001034
10003468:	95027548 	.word	0x95027548
1000346c:	00001038 	.word	0x00001038
10003470:	75486802 	.word	0x75486802
10003474:	0000103c 	.word	0x0000103c
10003478:	68039503 	.word	0x68039503
1000347c:	bb850155 	.word	0xbb850155
10003480:	00001044 	.word	0x00001044
10003484:	81200310 	.word	0x81200310
10003488:	00001048 	.word	0x00001048
1000348c:	b511a090 	.word	0xb511a090
10003490:	0000104c 	.word	0x0000104c
10003494:	d0011500 	.word	0xd0011500
10003498:	00001050 	.word	0x00001050
1000349c:	8b524c03 	.word	0x8b524c03
100034a0:	00001054 	.word	0x00001054
100034a4:	f5bca538 	.word	0xf5bca538
100034a8:	00001058 	.word	0x00001058
100034ac:	bda54800 	.word	0xbda54800
100034b0:	0000105c 	.word	0x0000105c
100034b4:	454801f5 	.word	0x454801f5
100034b8:	680a30bd 	.word	0x680a30bd
100034bc:	00001064 	.word	0x00001064
100034c0:	8568bd85 	.word	0x8568bd85
100034c4:	4acf      	ldr	r2, [pc, #828]	; (10003804 <setup_rom_contents+0x33ec>)
100034c6:	49d0      	ldr	r1, [pc, #832]	; (10003808 <setup_rom_contents+0x33f0>)
100034c8:	5099      	str	r1, [r3, r2]
100034ca:	4ad0      	ldr	r2, [pc, #832]	; (1000380c <setup_rom_contents+0x33f4>)
100034cc:	49d0      	ldr	r1, [pc, #832]	; (10003810 <setup_rom_contents+0x33f8>)
100034ce:	5099      	str	r1, [r3, r2]
100034d0:	4ad0      	ldr	r2, [pc, #832]	; (10003814 <setup_rom_contents+0x33fc>)
100034d2:	49d1      	ldr	r1, [pc, #836]	; (10003818 <setup_rom_contents+0x3400>)
100034d4:	5099      	str	r1, [r3, r2]
100034d6:	4ad1      	ldr	r2, [pc, #836]	; (1000381c <setup_rom_contents+0x3404>)
100034d8:	49d1      	ldr	r1, [pc, #836]	; (10003820 <setup_rom_contents+0x3408>)
100034da:	5099      	str	r1, [r3, r2]
100034dc:	4ad1      	ldr	r2, [pc, #836]	; (10003824 <setup_rom_contents+0x340c>)
100034de:	49d2      	ldr	r1, [pc, #840]	; (10003828 <setup_rom_contents+0x3410>)
100034e0:	5299      	strh	r1, [r3, r2]
100034e2:	21d9      	movs	r1, #217	; 0xd9
100034e4:	4ad1      	ldr	r2, [pc, #836]	; (1000382c <setup_rom_contents+0x3414>)
100034e6:	5499      	strb	r1, [r3, r2]
100034e8:	4ad1      	ldr	r2, [pc, #836]	; (10003830 <setup_rom_contents+0x3418>)
100034ea:	3934      	subs	r1, #52	; 0x34
100034ec:	5499      	strb	r1, [r3, r2]
100034ee:	4ad1      	ldr	r2, [pc, #836]	; (10003834 <setup_rom_contents+0x341c>)
100034f0:	49d1      	ldr	r1, [pc, #836]	; (10003838 <setup_rom_contents+0x3420>)
100034f2:	5099      	str	r1, [r3, r2]
100034f4:	49d1      	ldr	r1, [pc, #836]	; (1000383c <setup_rom_contents+0x3424>)
100034f6:	3204      	adds	r2, #4
100034f8:	5099      	str	r1, [r3, r2]
100034fa:	4ad1      	ldr	r2, [pc, #836]	; (10003840 <setup_rom_contents+0x3428>)
100034fc:	49d1      	ldr	r1, [pc, #836]	; (10003844 <setup_rom_contents+0x342c>)
100034fe:	5099      	str	r1, [r3, r2]
10003500:	4ad1      	ldr	r2, [pc, #836]	; (10003848 <setup_rom_contents+0x3430>)
10003502:	49d2      	ldr	r1, [pc, #840]	; (1000384c <setup_rom_contents+0x3434>)
10003504:	5099      	str	r1, [r3, r2]
10003506:	4ad2      	ldr	r2, [pc, #840]	; (10003850 <setup_rom_contents+0x3438>)
10003508:	49d2      	ldr	r1, [pc, #840]	; (10003854 <setup_rom_contents+0x343c>)
1000350a:	5099      	str	r1, [r3, r2]
1000350c:	4ad2      	ldr	r2, [pc, #840]	; (10003858 <setup_rom_contents+0x3440>)
1000350e:	49d3      	ldr	r1, [pc, #844]	; (1000385c <setup_rom_contents+0x3444>)
10003510:	5099      	str	r1, [r3, r2]
10003512:	4ad3      	ldr	r2, [pc, #844]	; (10003860 <setup_rom_contents+0x3448>)
10003514:	49d3      	ldr	r1, [pc, #844]	; (10003864 <setup_rom_contents+0x344c>)
10003516:	5099      	str	r1, [r3, r2]
10003518:	4ad3      	ldr	r2, [pc, #844]	; (10003868 <setup_rom_contents+0x3450>)
1000351a:	49d4      	ldr	r1, [pc, #848]	; (1000386c <setup_rom_contents+0x3454>)
1000351c:	5099      	str	r1, [r3, r2]
1000351e:	4ad4      	ldr	r2, [pc, #848]	; (10003870 <setup_rom_contents+0x3458>)
10003520:	49d4      	ldr	r1, [pc, #848]	; (10003874 <setup_rom_contents+0x345c>)
10003522:	5099      	str	r1, [r3, r2]
10003524:	49d4      	ldr	r1, [pc, #848]	; (10003878 <setup_rom_contents+0x3460>)
10003526:	3204      	adds	r2, #4
10003528:	5099      	str	r1, [r3, r2]
1000352a:	4ad4      	ldr	r2, [pc, #848]	; (1000387c <setup_rom_contents+0x3464>)
1000352c:	49d4      	ldr	r1, [pc, #848]	; (10003880 <setup_rom_contents+0x3468>)
1000352e:	5099      	str	r1, [r3, r2]
10003530:	4ad4      	ldr	r2, [pc, #848]	; (10003884 <setup_rom_contents+0x346c>)
10003532:	49d5      	ldr	r1, [pc, #852]	; (10003888 <setup_rom_contents+0x3470>)
10003534:	5099      	str	r1, [r3, r2]
10003536:	4ad5      	ldr	r2, [pc, #852]	; (1000388c <setup_rom_contents+0x3474>)
10003538:	49d5      	ldr	r1, [pc, #852]	; (10003890 <setup_rom_contents+0x3478>)
1000353a:	5099      	str	r1, [r3, r2]
1000353c:	4ad5      	ldr	r2, [pc, #852]	; (10003894 <setup_rom_contents+0x347c>)
1000353e:	49d6      	ldr	r1, [pc, #856]	; (10003898 <setup_rom_contents+0x3480>)
10003540:	5099      	str	r1, [r3, r2]
10003542:	4ad6      	ldr	r2, [pc, #856]	; (1000389c <setup_rom_contents+0x3484>)
10003544:	49d6      	ldr	r1, [pc, #856]	; (100038a0 <setup_rom_contents+0x3488>)
10003546:	5099      	str	r1, [r3, r2]
10003548:	4ad6      	ldr	r2, [pc, #856]	; (100038a4 <setup_rom_contents+0x348c>)
1000354a:	49d7      	ldr	r1, [pc, #860]	; (100038a8 <setup_rom_contents+0x3490>)
1000354c:	5099      	str	r1, [r3, r2]
1000354e:	4ad7      	ldr	r2, [pc, #860]	; (100038ac <setup_rom_contents+0x3494>)
10003550:	49d7      	ldr	r1, [pc, #860]	; (100038b0 <setup_rom_contents+0x3498>)
10003552:	5099      	str	r1, [r3, r2]
10003554:	49d7      	ldr	r1, [pc, #860]	; (100038b4 <setup_rom_contents+0x349c>)
10003556:	3204      	adds	r2, #4
10003558:	5099      	str	r1, [r3, r2]
1000355a:	4ad7      	ldr	r2, [pc, #860]	; (100038b8 <setup_rom_contents+0x34a0>)
1000355c:	49d7      	ldr	r1, [pc, #860]	; (100038bc <setup_rom_contents+0x34a4>)
1000355e:	5099      	str	r1, [r3, r2]
10003560:	4ad7      	ldr	r2, [pc, #860]	; (100038c0 <setup_rom_contents+0x34a8>)
10003562:	49d8      	ldr	r1, [pc, #864]	; (100038c4 <setup_rom_contents+0x34ac>)
10003564:	505a      	str	r2, [r3, r1]
10003566:	49d8      	ldr	r1, [pc, #864]	; (100038c8 <setup_rom_contents+0x34b0>)
10003568:	5058      	str	r0, [r3, r1]
1000356a:	49d8      	ldr	r1, [pc, #864]	; (100038cc <setup_rom_contents+0x34b4>)
1000356c:	48d8      	ldr	r0, [pc, #864]	; (100038d0 <setup_rom_contents+0x34b8>)
1000356e:	5058      	str	r0, [r3, r1]
10003570:	49d8      	ldr	r1, [pc, #864]	; (100038d4 <setup_rom_contents+0x34bc>)
10003572:	48d9      	ldr	r0, [pc, #868]	; (100038d8 <setup_rom_contents+0x34c0>)
10003574:	5058      	str	r0, [r3, r1]
10003576:	49d9      	ldr	r1, [pc, #868]	; (100038dc <setup_rom_contents+0x34c4>)
10003578:	48d9      	ldr	r0, [pc, #868]	; (100038e0 <setup_rom_contents+0x34c8>)
1000357a:	5058      	str	r0, [r3, r1]
1000357c:	49d9      	ldr	r1, [pc, #868]	; (100038e4 <setup_rom_contents+0x34cc>)
1000357e:	48da      	ldr	r0, [pc, #872]	; (100038e8 <setup_rom_contents+0x34d0>)
10003580:	5058      	str	r0, [r3, r1]
10003582:	48da      	ldr	r0, [pc, #872]	; (100038ec <setup_rom_contents+0x34d4>)
10003584:	3104      	adds	r1, #4
10003586:	5058      	str	r0, [r3, r1]
10003588:	49d9      	ldr	r1, [pc, #868]	; (100038f0 <setup_rom_contents+0x34d8>)
1000358a:	505a      	str	r2, [r3, r1]
1000358c:	4ad9      	ldr	r2, [pc, #868]	; (100038f4 <setup_rom_contents+0x34dc>)
1000358e:	49da      	ldr	r1, [pc, #872]	; (100038f8 <setup_rom_contents+0x34e0>)
10003590:	5099      	str	r1, [r3, r2]
10003592:	4ada      	ldr	r2, [pc, #872]	; (100038fc <setup_rom_contents+0x34e4>)
10003594:	49da      	ldr	r1, [pc, #872]	; (10003900 <setup_rom_contents+0x34e8>)
10003596:	5099      	str	r1, [r3, r2]
10003598:	4ada      	ldr	r2, [pc, #872]	; (10003904 <setup_rom_contents+0x34ec>)
1000359a:	49db      	ldr	r1, [pc, #876]	; (10003908 <setup_rom_contents+0x34f0>)
1000359c:	5099      	str	r1, [r3, r2]
1000359e:	4adb      	ldr	r2, [pc, #876]	; (1000390c <setup_rom_contents+0x34f4>)
100035a0:	49db      	ldr	r1, [pc, #876]	; (10003910 <setup_rom_contents+0x34f8>)
100035a2:	5099      	str	r1, [r3, r2]
100035a4:	4adb      	ldr	r2, [pc, #876]	; (10003914 <setup_rom_contents+0x34fc>)
100035a6:	49dc      	ldr	r1, [pc, #880]	; (10003918 <setup_rom_contents+0x3500>)
100035a8:	5099      	str	r1, [r3, r2]
100035aa:	4adc      	ldr	r2, [pc, #880]	; (1000391c <setup_rom_contents+0x3504>)
100035ac:	49dc      	ldr	r1, [pc, #880]	; (10003920 <setup_rom_contents+0x3508>)
100035ae:	5099      	str	r1, [r3, r2]
100035b0:	49dc      	ldr	r1, [pc, #880]	; (10003924 <setup_rom_contents+0x350c>)
100035b2:	3204      	adds	r2, #4
100035b4:	5099      	str	r1, [r3, r2]
100035b6:	4adc      	ldr	r2, [pc, #880]	; (10003928 <setup_rom_contents+0x3510>)
100035b8:	49dc      	ldr	r1, [pc, #880]	; (1000392c <setup_rom_contents+0x3514>)
100035ba:	5099      	str	r1, [r3, r2]
100035bc:	4adc      	ldr	r2, [pc, #880]	; (10003930 <setup_rom_contents+0x3518>)
100035be:	49dd      	ldr	r1, [pc, #884]	; (10003934 <setup_rom_contents+0x351c>)
100035c0:	5099      	str	r1, [r3, r2]
100035c2:	4add      	ldr	r2, [pc, #884]	; (10003938 <setup_rom_contents+0x3520>)
100035c4:	49dd      	ldr	r1, [pc, #884]	; (1000393c <setup_rom_contents+0x3524>)
100035c6:	5099      	str	r1, [r3, r2]
100035c8:	4add      	ldr	r2, [pc, #884]	; (10003940 <setup_rom_contents+0x3528>)
100035ca:	49de      	ldr	r1, [pc, #888]	; (10003944 <setup_rom_contents+0x352c>)
100035cc:	5099      	str	r1, [r3, r2]
100035ce:	4ade      	ldr	r2, [pc, #888]	; (10003948 <setup_rom_contents+0x3530>)
100035d0:	49de      	ldr	r1, [pc, #888]	; (1000394c <setup_rom_contents+0x3534>)
100035d2:	5099      	str	r1, [r3, r2]
100035d4:	4ade      	ldr	r2, [pc, #888]	; (10003950 <setup_rom_contents+0x3538>)
100035d6:	49df      	ldr	r1, [pc, #892]	; (10003954 <setup_rom_contents+0x353c>)
100035d8:	5099      	str	r1, [r3, r2]
100035da:	4adf      	ldr	r2, [pc, #892]	; (10003958 <setup_rom_contents+0x3540>)
100035dc:	49df      	ldr	r1, [pc, #892]	; (1000395c <setup_rom_contents+0x3544>)
100035de:	5099      	str	r1, [r3, r2]
100035e0:	49df      	ldr	r1, [pc, #892]	; (10003960 <setup_rom_contents+0x3548>)
100035e2:	3204      	adds	r2, #4
100035e4:	5099      	str	r1, [r3, r2]
100035e6:	4adf      	ldr	r2, [pc, #892]	; (10003964 <setup_rom_contents+0x354c>)
100035e8:	49df      	ldr	r1, [pc, #892]	; (10003968 <setup_rom_contents+0x3550>)
100035ea:	5099      	str	r1, [r3, r2]
100035ec:	4adf      	ldr	r2, [pc, #892]	; (1000396c <setup_rom_contents+0x3554>)
100035ee:	49e0      	ldr	r1, [pc, #896]	; (10003970 <setup_rom_contents+0x3558>)
100035f0:	5099      	str	r1, [r3, r2]
100035f2:	4ae0      	ldr	r2, [pc, #896]	; (10003974 <setup_rom_contents+0x355c>)
100035f4:	49e0      	ldr	r1, [pc, #896]	; (10003978 <setup_rom_contents+0x3560>)
100035f6:	5099      	str	r1, [r3, r2]
100035f8:	4ae0      	ldr	r2, [pc, #896]	; (1000397c <setup_rom_contents+0x3564>)
100035fa:	49e1      	ldr	r1, [pc, #900]	; (10003980 <setup_rom_contents+0x3568>)
100035fc:	5099      	str	r1, [r3, r2]
100035fe:	4ae1      	ldr	r2, [pc, #900]	; (10003984 <setup_rom_contents+0x356c>)
10003600:	49e1      	ldr	r1, [pc, #900]	; (10003988 <setup_rom_contents+0x3570>)
10003602:	5099      	str	r1, [r3, r2]
10003604:	4ae1      	ldr	r2, [pc, #900]	; (1000398c <setup_rom_contents+0x3574>)
10003606:	49e2      	ldr	r1, [pc, #904]	; (10003990 <setup_rom_contents+0x3578>)
10003608:	5099      	str	r1, [r3, r2]
1000360a:	4ae2      	ldr	r2, [pc, #904]	; (10003994 <setup_rom_contents+0x357c>)
1000360c:	49e2      	ldr	r1, [pc, #904]	; (10003998 <setup_rom_contents+0x3580>)
1000360e:	5099      	str	r1, [r3, r2]
10003610:	49e2      	ldr	r1, [pc, #904]	; (1000399c <setup_rom_contents+0x3584>)
10003612:	3204      	adds	r2, #4
10003614:	5099      	str	r1, [r3, r2]
10003616:	4ae2      	ldr	r2, [pc, #904]	; (100039a0 <setup_rom_contents+0x3588>)
10003618:	49e2      	ldr	r1, [pc, #904]	; (100039a4 <setup_rom_contents+0x358c>)
1000361a:	5099      	str	r1, [r3, r2]
1000361c:	4ae2      	ldr	r2, [pc, #904]	; (100039a8 <setup_rom_contents+0x3590>)
1000361e:	49e3      	ldr	r1, [pc, #908]	; (100039ac <setup_rom_contents+0x3594>)
10003620:	5099      	str	r1, [r3, r2]
10003622:	4ae3      	ldr	r2, [pc, #908]	; (100039b0 <setup_rom_contents+0x3598>)
10003624:	49e3      	ldr	r1, [pc, #908]	; (100039b4 <setup_rom_contents+0x359c>)
10003626:	5099      	str	r1, [r3, r2]
10003628:	4ae3      	ldr	r2, [pc, #908]	; (100039b8 <setup_rom_contents+0x35a0>)
1000362a:	49e4      	ldr	r1, [pc, #912]	; (100039bc <setup_rom_contents+0x35a4>)
1000362c:	5099      	str	r1, [r3, r2]
1000362e:	4ae4      	ldr	r2, [pc, #912]	; (100039c0 <setup_rom_contents+0x35a8>)
10003630:	49e4      	ldr	r1, [pc, #912]	; (100039c4 <setup_rom_contents+0x35ac>)
10003632:	5099      	str	r1, [r3, r2]
10003634:	4ae4      	ldr	r2, [pc, #912]	; (100039c8 <setup_rom_contents+0x35b0>)
10003636:	49e5      	ldr	r1, [pc, #916]	; (100039cc <setup_rom_contents+0x35b4>)
10003638:	5099      	str	r1, [r3, r2]
1000363a:	4ae5      	ldr	r2, [pc, #916]	; (100039d0 <setup_rom_contents+0x35b8>)
1000363c:	49e5      	ldr	r1, [pc, #916]	; (100039d4 <setup_rom_contents+0x35bc>)
1000363e:	5099      	str	r1, [r3, r2]
10003640:	49e5      	ldr	r1, [pc, #916]	; (100039d8 <setup_rom_contents+0x35c0>)
10003642:	3204      	adds	r2, #4
10003644:	5099      	str	r1, [r3, r2]
10003646:	4ae5      	ldr	r2, [pc, #916]	; (100039dc <setup_rom_contents+0x35c4>)
10003648:	49e5      	ldr	r1, [pc, #916]	; (100039e0 <setup_rom_contents+0x35c8>)
1000364a:	5099      	str	r1, [r3, r2]
1000364c:	4ae5      	ldr	r2, [pc, #916]	; (100039e4 <setup_rom_contents+0x35cc>)
1000364e:	49e6      	ldr	r1, [pc, #920]	; (100039e8 <setup_rom_contents+0x35d0>)
10003650:	5099      	str	r1, [r3, r2]
10003652:	4ae6      	ldr	r2, [pc, #920]	; (100039ec <setup_rom_contents+0x35d4>)
10003654:	49e6      	ldr	r1, [pc, #920]	; (100039f0 <setup_rom_contents+0x35d8>)
10003656:	5099      	str	r1, [r3, r2]
10003658:	4ae6      	ldr	r2, [pc, #920]	; (100039f4 <setup_rom_contents+0x35dc>)
1000365a:	49e7      	ldr	r1, [pc, #924]	; (100039f8 <setup_rom_contents+0x35e0>)
1000365c:	5299      	strh	r1, [r3, r2]
1000365e:	2120      	movs	r1, #32
10003660:	4ae6      	ldr	r2, [pc, #920]	; (100039fc <setup_rom_contents+0x35e4>)
10003662:	5499      	strb	r1, [r3, r2]
10003664:	4ae6      	ldr	r2, [pc, #920]	; (10003a00 <setup_rom_contents+0x35e8>)
10003666:	311a      	adds	r1, #26
10003668:	5499      	strb	r1, [r3, r2]
1000366a:	4ae6      	ldr	r2, [pc, #920]	; (10003a04 <setup_rom_contents+0x35ec>)
1000366c:	49e6      	ldr	r1, [pc, #920]	; (10003a08 <setup_rom_contents+0x35f0>)
1000366e:	5099      	str	r1, [r3, r2]
10003670:	4ae6      	ldr	r2, [pc, #920]	; (10003a0c <setup_rom_contents+0x35f4>)
10003672:	49e7      	ldr	r1, [pc, #924]	; (10003a10 <setup_rom_contents+0x35f8>)
10003674:	5099      	str	r1, [r3, r2]
10003676:	4ae7      	ldr	r2, [pc, #924]	; (10003a14 <setup_rom_contents+0x35fc>)
10003678:	49e7      	ldr	r1, [pc, #924]	; (10003a18 <setup_rom_contents+0x3600>)
1000367a:	5099      	str	r1, [r3, r2]
1000367c:	49e7      	ldr	r1, [pc, #924]	; (10003a1c <setup_rom_contents+0x3604>)
1000367e:	3204      	adds	r2, #4
10003680:	5099      	str	r1, [r3, r2]
10003682:	4ae7      	ldr	r2, [pc, #924]	; (10003a20 <setup_rom_contents+0x3608>)
10003684:	49e7      	ldr	r1, [pc, #924]	; (10003a24 <setup_rom_contents+0x360c>)
10003686:	5099      	str	r1, [r3, r2]
10003688:	4ae7      	ldr	r2, [pc, #924]	; (10003a28 <setup_rom_contents+0x3610>)
1000368a:	49e8      	ldr	r1, [pc, #928]	; (10003a2c <setup_rom_contents+0x3614>)
1000368c:	5099      	str	r1, [r3, r2]
1000368e:	4ae8      	ldr	r2, [pc, #928]	; (10003a30 <setup_rom_contents+0x3618>)
10003690:	49e8      	ldr	r1, [pc, #928]	; (10003a34 <setup_rom_contents+0x361c>)
10003692:	5099      	str	r1, [r3, r2]
10003694:	4ae8      	ldr	r2, [pc, #928]	; (10003a38 <setup_rom_contents+0x3620>)
10003696:	49e9      	ldr	r1, [pc, #932]	; (10003a3c <setup_rom_contents+0x3624>)
10003698:	5099      	str	r1, [r3, r2]
1000369a:	4ae9      	ldr	r2, [pc, #932]	; (10003a40 <setup_rom_contents+0x3628>)
1000369c:	49e9      	ldr	r1, [pc, #932]	; (10003a44 <setup_rom_contents+0x362c>)
1000369e:	5099      	str	r1, [r3, r2]
100036a0:	4ae9      	ldr	r2, [pc, #932]	; (10003a48 <setup_rom_contents+0x3630>)
100036a2:	49ea      	ldr	r1, [pc, #936]	; (10003a4c <setup_rom_contents+0x3634>)
100036a4:	5099      	str	r1, [r3, r2]
100036a6:	4aea      	ldr	r2, [pc, #936]	; (10003a50 <setup_rom_contents+0x3638>)
100036a8:	49ea      	ldr	r1, [pc, #936]	; (10003a54 <setup_rom_contents+0x363c>)
100036aa:	5099      	str	r1, [r3, r2]
100036ac:	49ea      	ldr	r1, [pc, #936]	; (10003a58 <setup_rom_contents+0x3640>)
100036ae:	3204      	adds	r2, #4
100036b0:	5099      	str	r1, [r3, r2]
100036b2:	4aea      	ldr	r2, [pc, #936]	; (10003a5c <setup_rom_contents+0x3644>)
100036b4:	49ea      	ldr	r1, [pc, #936]	; (10003a60 <setup_rom_contents+0x3648>)
100036b6:	5099      	str	r1, [r3, r2]
100036b8:	4aea      	ldr	r2, [pc, #936]	; (10003a64 <setup_rom_contents+0x364c>)
100036ba:	49eb      	ldr	r1, [pc, #940]	; (10003a68 <setup_rom_contents+0x3650>)
100036bc:	5099      	str	r1, [r3, r2]
100036be:	4aeb      	ldr	r2, [pc, #940]	; (10003a6c <setup_rom_contents+0x3654>)
100036c0:	49eb      	ldr	r1, [pc, #940]	; (10003a70 <setup_rom_contents+0x3658>)
100036c2:	5099      	str	r1, [r3, r2]
100036c4:	4aeb      	ldr	r2, [pc, #940]	; (10003a74 <setup_rom_contents+0x365c>)
100036c6:	49ec      	ldr	r1, [pc, #944]	; (10003a78 <setup_rom_contents+0x3660>)
100036c8:	5099      	str	r1, [r3, r2]
100036ca:	4aec      	ldr	r2, [pc, #944]	; (10003a7c <setup_rom_contents+0x3664>)
100036cc:	49ec      	ldr	r1, [pc, #944]	; (10003a80 <setup_rom_contents+0x3668>)
100036ce:	5099      	str	r1, [r3, r2]
100036d0:	4aec      	ldr	r2, [pc, #944]	; (10003a84 <setup_rom_contents+0x366c>)
100036d2:	49ed      	ldr	r1, [pc, #948]	; (10003a88 <setup_rom_contents+0x3670>)
100036d4:	5099      	str	r1, [r3, r2]
100036d6:	4aed      	ldr	r2, [pc, #948]	; (10003a8c <setup_rom_contents+0x3674>)
100036d8:	49ed      	ldr	r1, [pc, #948]	; (10003a90 <setup_rom_contents+0x3678>)
100036da:	5099      	str	r1, [r3, r2]
100036dc:	49ed      	ldr	r1, [pc, #948]	; (10003a94 <setup_rom_contents+0x367c>)
100036de:	3204      	adds	r2, #4
100036e0:	5099      	str	r1, [r3, r2]
100036e2:	4aed      	ldr	r2, [pc, #948]	; (10003a98 <setup_rom_contents+0x3680>)
100036e4:	49ed      	ldr	r1, [pc, #948]	; (10003a9c <setup_rom_contents+0x3684>)
100036e6:	5099      	str	r1, [r3, r2]
100036e8:	4aed      	ldr	r2, [pc, #948]	; (10003aa0 <setup_rom_contents+0x3688>)
100036ea:	49ee      	ldr	r1, [pc, #952]	; (10003aa4 <setup_rom_contents+0x368c>)
100036ec:	5099      	str	r1, [r3, r2]
100036ee:	4aee      	ldr	r2, [pc, #952]	; (10003aa8 <setup_rom_contents+0x3690>)
100036f0:	49ee      	ldr	r1, [pc, #952]	; (10003aac <setup_rom_contents+0x3694>)
100036f2:	5099      	str	r1, [r3, r2]
100036f4:	4aee      	ldr	r2, [pc, #952]	; (10003ab0 <setup_rom_contents+0x3698>)
100036f6:	49ef      	ldr	r1, [pc, #956]	; (10003ab4 <setup_rom_contents+0x369c>)
100036f8:	5099      	str	r1, [r3, r2]
100036fa:	4aef      	ldr	r2, [pc, #956]	; (10003ab8 <setup_rom_contents+0x36a0>)
100036fc:	49ef      	ldr	r1, [pc, #956]	; (10003abc <setup_rom_contents+0x36a4>)
100036fe:	5099      	str	r1, [r3, r2]
10003700:	4aef      	ldr	r2, [pc, #956]	; (10003ac0 <setup_rom_contents+0x36a8>)
10003702:	49f0      	ldr	r1, [pc, #960]	; (10003ac4 <setup_rom_contents+0x36ac>)
10003704:	5099      	str	r1, [r3, r2]
10003706:	4af0      	ldr	r2, [pc, #960]	; (10003ac8 <setup_rom_contents+0x36b0>)
10003708:	49f0      	ldr	r1, [pc, #960]	; (10003acc <setup_rom_contents+0x36b4>)
1000370a:	5099      	str	r1, [r3, r2]
1000370c:	49f0      	ldr	r1, [pc, #960]	; (10003ad0 <setup_rom_contents+0x36b8>)
1000370e:	3204      	adds	r2, #4
10003710:	5099      	str	r1, [r3, r2]
10003712:	4af0      	ldr	r2, [pc, #960]	; (10003ad4 <setup_rom_contents+0x36bc>)
10003714:	49f0      	ldr	r1, [pc, #960]	; (10003ad8 <setup_rom_contents+0x36c0>)
10003716:	5099      	str	r1, [r3, r2]
10003718:	4af0      	ldr	r2, [pc, #960]	; (10003adc <setup_rom_contents+0x36c4>)
1000371a:	49f1      	ldr	r1, [pc, #964]	; (10003ae0 <setup_rom_contents+0x36c8>)
1000371c:	5099      	str	r1, [r3, r2]
1000371e:	4af1      	ldr	r2, [pc, #964]	; (10003ae4 <setup_rom_contents+0x36cc>)
10003720:	49f1      	ldr	r1, [pc, #964]	; (10003ae8 <setup_rom_contents+0x36d0>)
10003722:	5099      	str	r1, [r3, r2]
10003724:	4af1      	ldr	r2, [pc, #964]	; (10003aec <setup_rom_contents+0x36d4>)
10003726:	49f2      	ldr	r1, [pc, #968]	; (10003af0 <setup_rom_contents+0x36d8>)
10003728:	5099      	str	r1, [r3, r2]
1000372a:	4af2      	ldr	r2, [pc, #968]	; (10003af4 <setup_rom_contents+0x36dc>)
1000372c:	49f2      	ldr	r1, [pc, #968]	; (10003af8 <setup_rom_contents+0x36e0>)
1000372e:	5099      	str	r1, [r3, r2]
10003730:	4af2      	ldr	r2, [pc, #968]	; (10003afc <setup_rom_contents+0x36e4>)
10003732:	49f3      	ldr	r1, [pc, #972]	; (10003b00 <setup_rom_contents+0x36e8>)
10003734:	5099      	str	r1, [r3, r2]
10003736:	4af3      	ldr	r2, [pc, #972]	; (10003b04 <setup_rom_contents+0x36ec>)
10003738:	49f3      	ldr	r1, [pc, #972]	; (10003b08 <setup_rom_contents+0x36f0>)
1000373a:	5099      	str	r1, [r3, r2]
1000373c:	49f3      	ldr	r1, [pc, #972]	; (10003b0c <setup_rom_contents+0x36f4>)
1000373e:	3204      	adds	r2, #4
10003740:	5099      	str	r1, [r3, r2]
10003742:	4af3      	ldr	r2, [pc, #972]	; (10003b10 <setup_rom_contents+0x36f8>)
10003744:	49f3      	ldr	r1, [pc, #972]	; (10003b14 <setup_rom_contents+0x36fc>)
10003746:	5099      	str	r1, [r3, r2]
10003748:	4af3      	ldr	r2, [pc, #972]	; (10003b18 <setup_rom_contents+0x3700>)
1000374a:	49f4      	ldr	r1, [pc, #976]	; (10003b1c <setup_rom_contents+0x3704>)
1000374c:	5099      	str	r1, [r3, r2]
1000374e:	4af4      	ldr	r2, [pc, #976]	; (10003b20 <setup_rom_contents+0x3708>)
10003750:	49f4      	ldr	r1, [pc, #976]	; (10003b24 <setup_rom_contents+0x370c>)
10003752:	5099      	str	r1, [r3, r2]
10003754:	4af4      	ldr	r2, [pc, #976]	; (10003b28 <setup_rom_contents+0x3710>)
10003756:	49f5      	ldr	r1, [pc, #980]	; (10003b2c <setup_rom_contents+0x3714>)
10003758:	5099      	str	r1, [r3, r2]
1000375a:	4af5      	ldr	r2, [pc, #980]	; (10003b30 <setup_rom_contents+0x3718>)
1000375c:	49f5      	ldr	r1, [pc, #980]	; (10003b34 <setup_rom_contents+0x371c>)
1000375e:	5099      	str	r1, [r3, r2]
10003760:	4af5      	ldr	r2, [pc, #980]	; (10003b38 <setup_rom_contents+0x3720>)
10003762:	49f6      	ldr	r1, [pc, #984]	; (10003b3c <setup_rom_contents+0x3724>)
10003764:	5099      	str	r1, [r3, r2]
10003766:	4af6      	ldr	r2, [pc, #984]	; (10003b40 <setup_rom_contents+0x3728>)
10003768:	49f6      	ldr	r1, [pc, #984]	; (10003b44 <setup_rom_contents+0x372c>)
1000376a:	5099      	str	r1, [r3, r2]
1000376c:	49f6      	ldr	r1, [pc, #984]	; (10003b48 <setup_rom_contents+0x3730>)
1000376e:	3204      	adds	r2, #4
10003770:	5099      	str	r1, [r3, r2]
10003772:	4af6      	ldr	r2, [pc, #984]	; (10003b4c <setup_rom_contents+0x3734>)
10003774:	49f6      	ldr	r1, [pc, #984]	; (10003b50 <setup_rom_contents+0x3738>)
10003776:	5099      	str	r1, [r3, r2]
10003778:	4af6      	ldr	r2, [pc, #984]	; (10003b54 <setup_rom_contents+0x373c>)
1000377a:	49f7      	ldr	r1, [pc, #988]	; (10003b58 <setup_rom_contents+0x3740>)
1000377c:	5099      	str	r1, [r3, r2]
1000377e:	4af7      	ldr	r2, [pc, #988]	; (10003b5c <setup_rom_contents+0x3744>)
10003780:	49f7      	ldr	r1, [pc, #988]	; (10003b60 <setup_rom_contents+0x3748>)
10003782:	5099      	str	r1, [r3, r2]
10003784:	4af7      	ldr	r2, [pc, #988]	; (10003b64 <setup_rom_contents+0x374c>)
10003786:	49f8      	ldr	r1, [pc, #992]	; (10003b68 <setup_rom_contents+0x3750>)
10003788:	5099      	str	r1, [r3, r2]
1000378a:	4af8      	ldr	r2, [pc, #992]	; (10003b6c <setup_rom_contents+0x3754>)
1000378c:	49f8      	ldr	r1, [pc, #992]	; (10003b70 <setup_rom_contents+0x3758>)
1000378e:	5099      	str	r1, [r3, r2]
10003790:	4af8      	ldr	r2, [pc, #992]	; (10003b74 <setup_rom_contents+0x375c>)
10003792:	49f9      	ldr	r1, [pc, #996]	; (10003b78 <setup_rom_contents+0x3760>)
10003794:	5099      	str	r1, [r3, r2]
10003796:	4af9      	ldr	r2, [pc, #996]	; (10003b7c <setup_rom_contents+0x3764>)
10003798:	49f9      	ldr	r1, [pc, #996]	; (10003b80 <setup_rom_contents+0x3768>)
1000379a:	5099      	str	r1, [r3, r2]
1000379c:	2124      	movs	r1, #36	; 0x24
1000379e:	3204      	adds	r2, #4
100037a0:	5099      	str	r1, [r3, r2]
100037a2:	4af8      	ldr	r2, [pc, #992]	; (10003b84 <setup_rom_contents+0x376c>)
100037a4:	49f8      	ldr	r1, [pc, #992]	; (10003b88 <setup_rom_contents+0x3770>)
100037a6:	5099      	str	r1, [r3, r2]
100037a8:	4af8      	ldr	r2, [pc, #992]	; (10003b8c <setup_rom_contents+0x3774>)
100037aa:	49f9      	ldr	r1, [pc, #996]	; (10003b90 <setup_rom_contents+0x3778>)
100037ac:	5099      	str	r1, [r3, r2]
100037ae:	4af9      	ldr	r2, [pc, #996]	; (10003b94 <setup_rom_contents+0x377c>)
100037b0:	49f9      	ldr	r1, [pc, #996]	; (10003b98 <setup_rom_contents+0x3780>)
100037b2:	5099      	str	r1, [r3, r2]
100037b4:	4af9      	ldr	r2, [pc, #996]	; (10003b9c <setup_rom_contents+0x3784>)
100037b6:	49fa      	ldr	r1, [pc, #1000]	; (10003ba0 <setup_rom_contents+0x3788>)
100037b8:	5099      	str	r1, [r3, r2]
100037ba:	4afa      	ldr	r2, [pc, #1000]	; (10003ba4 <setup_rom_contents+0x378c>)
100037bc:	49fa      	ldr	r1, [pc, #1000]	; (10003ba8 <setup_rom_contents+0x3790>)
100037be:	5099      	str	r1, [r3, r2]
100037c0:	4afa      	ldr	r2, [pc, #1000]	; (10003bac <setup_rom_contents+0x3794>)
100037c2:	49fb      	ldr	r1, [pc, #1004]	; (10003bb0 <setup_rom_contents+0x3798>)
100037c4:	5099      	str	r1, [r3, r2]
100037c6:	4afb      	ldr	r2, [pc, #1004]	; (10003bb4 <setup_rom_contents+0x379c>)
100037c8:	49fb      	ldr	r1, [pc, #1004]	; (10003bb8 <setup_rom_contents+0x37a0>)
100037ca:	5099      	str	r1, [r3, r2]
100037cc:	49fb      	ldr	r1, [pc, #1004]	; (10003bbc <setup_rom_contents+0x37a4>)
100037ce:	3204      	adds	r2, #4
100037d0:	5099      	str	r1, [r3, r2]
100037d2:	4afb      	ldr	r2, [pc, #1004]	; (10003bc0 <setup_rom_contents+0x37a8>)
100037d4:	49fb      	ldr	r1, [pc, #1004]	; (10003bc4 <setup_rom_contents+0x37ac>)
100037d6:	5099      	str	r1, [r3, r2]
100037d8:	4afb      	ldr	r2, [pc, #1004]	; (10003bc8 <setup_rom_contents+0x37b0>)
100037da:	49fc      	ldr	r1, [pc, #1008]	; (10003bcc <setup_rom_contents+0x37b4>)
100037dc:	5299      	strh	r1, [r3, r2]
100037de:	2185      	movs	r1, #133	; 0x85
100037e0:	4afb      	ldr	r2, [pc, #1004]	; (10003bd0 <setup_rom_contents+0x37b8>)
100037e2:	5499      	strb	r1, [r3, r2]
100037e4:	4afb      	ldr	r2, [pc, #1004]	; (10003bd4 <setup_rom_contents+0x37bc>)
100037e6:	3128      	adds	r1, #40	; 0x28
100037e8:	5499      	strb	r1, [r3, r2]
100037ea:	4afb      	ldr	r2, [pc, #1004]	; (10003bd8 <setup_rom_contents+0x37c0>)
100037ec:	49fb      	ldr	r1, [pc, #1004]	; (10003bdc <setup_rom_contents+0x37c4>)
100037ee:	5099      	str	r1, [r3, r2]
100037f0:	4afb      	ldr	r2, [pc, #1004]	; (10003be0 <setup_rom_contents+0x37c8>)
100037f2:	49fc      	ldr	r1, [pc, #1008]	; (10003be4 <setup_rom_contents+0x37cc>)
100037f4:	5099      	str	r1, [r3, r2]
100037f6:	4afc      	ldr	r2, [pc, #1008]	; (10003be8 <setup_rom_contents+0x37d0>)
100037f8:	49fc      	ldr	r1, [pc, #1008]	; (10003bec <setup_rom_contents+0x37d4>)
100037fa:	5099      	str	r1, [r3, r2]
100037fc:	4afc      	ldr	r2, [pc, #1008]	; (10003bf0 <setup_rom_contents+0x37d8>)
100037fe:	49fd      	ldr	r1, [pc, #1012]	; (10003bf4 <setup_rom_contents+0x37dc>)
10003800:	5099      	str	r1, [r3, r2]
10003802:	e1f9      	b.n	10003bf8 <setup_rom_contents+0x37e0>
10003804:	00001068 	.word	0x00001068
10003808:	704c38bc 	.word	0x704c38bc
1000380c:	0000106c 	.word	0x0000106c
10003810:	18686890 	.word	0x18686890
10003814:	00001070 	.word	0x00001070
10003818:	03360236 	.word	0x03360236
1000381c:	00001074 	.word	0x00001074
10003820:	bd26bc26 	.word	0xbd26bc26
10003824:	00001078 	.word	0x00001078
10003828:	ffffd088 	.word	0xffffd088
1000382c:	0000107a 	.word	0x0000107a
10003830:	0000107b 	.word	0x0000107b
10003834:	0000107c 	.word	0x0000107c
10003838:	a60d10bb 	.word	0xa60d10bb
1000383c:	f59838c1 	.word	0xf59838c1
10003840:	00001084 	.word	0x00001084
10003844:	98009500 	.word	0x98009500
10003848:	00001088 	.word	0x00001088
1000384c:	019501f5 	.word	0x019501f5
10003850:	0000108c 	.word	0x0000108c
10003854:	907f2060 	.word	0x907f2060
10003858:	00001090 	.word	0x00001090
1000385c:	b58b9220 	.word	0xb58b9220
10003860:	00001094 	.word	0x00001094
10003864:	95027500 	.word	0x95027500
10003868:	00001098 	.word	0x00001098
1000386c:	7501b502 	.word	0x7501b502
10003870:	0000109c 	.word	0x0000109c
10003874:	60039503 	.word	0x60039503
10003878:	a08b9220 	.word	0xa08b9220
1000387c:	000010a4 	.word	0x000010a4
10003880:	8502b510 	.word	0x8502b510
10003884:	000010a8 	.word	0x000010a8
10003888:	8503b5bc 	.word	0x8503b5bc
1000388c:	000010ac 	.word	0x000010ac
10003890:	360216bd 	.word	0x360216bd
10003894:	000010b0 	.word	0x000010b0
10003898:	26bc2603 	.word	0x26bc2603
1000389c:	000010b4 	.word	0x000010b4
100038a0:	180d90bd 	.word	0x180d90bd
100038a4:	000010b8 	.word	0x000010b8
100038a8:	007502b5 	.word	0x007502b5
100038ac:	000010bc 	.word	0x000010bc
100038b0:	03b50295 	.word	0x03b50295
100038b4:	03950175 	.word	0x03950175
100038b8:	000010c4 	.word	0x000010c4
100038bc:	60e6d088 	.word	0x60e6d088
100038c0:	aa8dd320 	.word	0xaa8dd320
100038c4:	000010c8 	.word	0x000010c8
100038c8:	000010cc 	.word	0x000010cc
100038cc:	000010d0 	.word	0x000010d0
100038d0:	c1a6c1c6 	.word	0xc1a6c1c6
100038d4:	000010d4 	.word	0x000010d4
100038d8:	c54c0094 	.word	0xc54c0094
100038dc:	000010d8 	.word	0x000010d8
100038e0:	207da28d 	.word	0x207da28d
100038e4:	000010dc 	.word	0x000010dc
100038e8:	01b58b94 	.word	0x01b58b94
100038ec:	4800b548 	.word	0x4800b548
100038f0:	000010e4 	.word	0x000010e4
100038f4:	000010e8 	.word	0x000010e8
100038f8:	68009568 	.word	0x68009568
100038fc:	000010ec 	.word	0x000010ec
10003900:	20600195 	.word	0x20600195
10003904:	000010f0 	.word	0x000010f0
10003908:	bca5913b 	.word	0xbca5913b
1000390c:	000010f4 	.word	0x000010f4
10003910:	bda52a85 	.word	0xbda52a85
10003914:	000010f8 	.word	0x000010f8
10003918:	a2602b85 	.word	0xa2602b85
1000391c:	000010fc 	.word	0x000010fc
10003920:	a202d02c 	.word	0xa202d02c
10003924:	c900b52e 	.word	0xc900b52e
10003928:	00001104 	.word	0x00001104
1000392c:	b50db080 	.word	0xb50db080
10003930:	00001108 	.word	0x00001108
10003934:	a509d001 	.word	0xa509d001
10003938:	0000110c 	.word	0x0000110c
1000393c:	a52e852c 	.word	0xa52e852c
10003940:	00001110 	.word	0x00001110
10003944:	602f852d 	.word	0x602f852d
10003948:	00001114 	.word	0x00001114
1000394c:	2ea42ca5 	.word	0x2ea42ca5
10003950:	00001118 	.word	0x00001118
10003954:	2e852c84 	.word	0x2e852c84
10003958:	0000111c 	.word	0x0000111c
1000395c:	2fa42da5 	.word	0x2fa42da5
10003960:	2f852d84 	.word	0x2f852d84
10003964:	00001124 	.word	0x00001124
10003968:	a56000a0 	.word	0xa56000a0
1000396c:	00001128 	.word	0x00001128
10003970:	a5bc8528 	.word	0xa5bc8528
10003974:	0000112c 	.word	0x0000112c
10003978:	20bd8529 	.word	0x20bd8529
1000397c:	00001130 	.word	0x00001130
10003980:	c6a58bda 	.word	0xc6a58bda
10003984:	00001134 	.word	0x00001134
10003988:	c7a52685 	.word	0xc7a52685
1000398c:	00001138 	.word	0x00001138
10003990:	b1602785 	.word	0xb1602785
10003994:	0000113c 	.word	0x0000113c
10003998:	20bc85c6 	.word	0x20bc85c6
1000399c:	c6b19146 	.word	0xc6b19146
100039a0:	00001144 	.word	0x00001144
100039a4:	c6e6bd85 	.word	0xc6e6bd85
100039a8:	00001148 	.word	0x00001148
100039ac:	c7e602d0 	.word	0xc7e602d0
100039b0:	0000114c 	.word	0x0000114c
100039b4:	c6c522a5 	.word	0xc6c522a5
100039b8:	00001150 	.word	0x00001150
100039bc:	c7e523a5 	.word	0xc7e523a5
100039c0:	00001154 	.word	0x00001154
100039c4:	524ce4b0 	.word	0x524ce4b0
100039c8:	00001158 	.word	0x00001158
100039cc:	9162208b 	.word	0x9162208b
100039d0:	0000115c 	.word	0x0000115c
100039d4:	4c98bc85 	.word	0x4c98bc85
100039d8:	3a208dc0 	.word	0x3a208dc0
100039dc:	00001164 	.word	0x00001164
100039e0:	85bca58f 	.word	0x85bca58f
100039e4:	00001168 	.word	0x00001168
100039e8:	8f3a20b6 	.word	0x8f3a20b6
100039ec:	0000116c 	.word	0x0000116c
100039f0:	b785bda5 	.word	0xb785bda5
100039f4:	00001170 	.word	0x00001170
100039f8:	ffffbca4 	.word	0xffffbca4
100039fc:	00001172 	.word	0x00001172
10003a00:	00001173 	.word	0x00001173
10003a04:	00001174 	.word	0x00001174
10003a08:	a5b7a68f 	.word	0xa5b7a68f
10003a0c:	00001178 	.word	0x00001178
10003a10:	bc6c18b6 	.word	0xbc6c18b6
10003a14:	0000117c 	.word	0x0000117c
10003a18:	91802000 	.word	0x91802000
10003a1c:	4c8d3720 	.word	0x4c8d3720
10003a20:	00001184 	.word	0x00001184
10003a24:	2d868dc5 	.word	0x2d868dc5
10003a28:	00001188 	.word	0x00001188
10003a2c:	a06000e0 	.word	0xa06000e0
10003a30:	0000118c 	.word	0x0000118c
10003a34:	a0bc8402 	.word	0xa0bc8402
10003a38:	00001190 	.word	0x00001190
10003a3c:	a0bd8429 	.word	0xa0bd8429
10003a40:	00001194 	.word	0x00001194
10003a44:	c9bcb100 	.word	0xc9bcb100
10003a48:	00001198 	.word	0x00001198
10003a4c:	4c03d008 	.word	0x4c03d008
10003a50:	0000119c 	.word	0x0000119c
10003a54:	20609049 	.word	0x20609049
10003a58:	ffa98a3b 	.word	0xffa98a3b
10003a5c:	000011a4 	.word	0x000011a4
10003a60:	308a432c 	.word	0x308a432c
10003a64:	000011a8 	.word	0x000011a8
10003a68:	4c00a902 	.word	0x4c00a902
10003a6c:	000011ac 	.word	0x000011ac
10003a70:	3e248a3b 	.word	0x3e248a3b
10003a74:	000011b0 	.word	0x000011b0
10003a78:	e1102791 	.word	0xe1102791
10003a7c:	000011b4 	.word	0x000011b4
10003a80:	562ac559 	.word	0x562ac559
10003a84:	000011b8 	.word	0x000011b8
10003a88:	8b2c1110 	.word	0x8b2c1110
10003a8c:	000011bc 	.word	0x000011bc
10003a90:	a0d4454c 	.word	0xa0d4454c
10003a94:	bc30bd80 	.word	0xbc30bd80
10003a98:	000011c4 	.word	0x000011c4
10003a9c:	941d13e0 	.word	0x941d13e0
10003aa0:	000011c8 	.word	0x000011c8
10003aa4:	5488cf47 	.word	0x5488cf47
10003aa8:	000011cc 	.word	0x000011cc
10003aac:	e0bc30cf 	.word	0xe0bc30cf
10003ab0:	000011d0 	.word	0x000011d0
10003ab4:	80161110 	.word	0x80161110
10003ab8:	000011d4 	.word	0x000011d4
10003abc:	30c25553 	.word	0x30c25553
10003ac0:	000011d8 	.word	0x000011d8
10003ac4:	1614e0bc 	.word	0x1614e0bc
10003ac8:	000011dc 	.word	0x000011dc
10003acc:	83d25090 	.word	0x83d25090
10003ad0:	e5d44e49 	.word	0xe5d44e49
10003ad4:	000011e4 	.word	0x000011e4
10003ad8:	e1bb8871 	.word	0xe1bb8871
10003adc:	000011e8 	.word	0x000011e8
10003ae0:	21a28f1d 	.word	0x21a28f1d
10003ae4:	000011ec 	.word	0x000011ec
10003ae8:	ac836f58 	.word	0xac836f58
10003aec:	000011f0 	.word	0x000011f0
10003af0:	ba835522 	.word	0xba835522
10003af4:	000011f4 	.word	0x000011f4
10003af8:	23e09324 	.word	0x23e09324
10003afc:	000011f8 	.word	0x000011f8
10003b00:	20bc301d 	.word	0x20bc301d
10003b04:	000011fc 	.word	0x000011fc
10003b08:	c6499148 	.word	0xc6499148
10003b0c:	3431bc30 	.word	0x3431bc30
10003b10:	00001204 	.word	0x00001204
10003b14:	5484bc30 	.word	0x5484bc30
10003b18:	00001208 	.word	0x00001208
10003b1c:	1cce4548 	.word	0x1cce4548
10003b20:	0000120c 	.word	0x0000120c
10003b24:	9a0d381d 	.word	0x9a0d381d
10003b28:	00001210 	.word	0x00001210
10003b2c:	55504e49 	.word	0x55504e49
10003b30:	00001214 	.word	0x00001214
10003b34:	e710a0d4 	.word	0xe710a0d4
10003b38:	00001218 	.word	0x00001218
10003b3c:	91203f24 	.word	0x91203f24
10003b40:	0000121c 	.word	0x0000121c
10003b44:	8159e127 	.word	0x8159e127
10003b48:	13bc30ac 	.word	0x13bc30ac
10003b4c:	00001224 	.word	0x00001224
10003b50:	4dac8211 	.word	0x4dac8211
10003b54:	00001228 	.word	0x00001228
10003b58:	52891de0 	.word	0x52891de0
10003b5c:	0000122c 	.word	0x0000122c
10003b60:	52555445 	.word	0x52555445
10003b64:	00001230 	.word	0x00001230
10003b68:	1d15e0ce 	.word	0x1d15e0ce
10003b6c:	00001234 	.word	0x00001234
10003b70:	c44e4585 	.word	0xc44e4585
10003b74:	00001238 	.word	0x00001238
10003b78:	4c982de0 	.word	0x4c982de0
10003b7c:	0000123c 	.word	0x0000123c
10003b80:	ecd45349 	.word	0xecd45349
10003b84:	00001244 	.word	0x00001244
10003b88:	1f800a00 	.word	0x1f800a00
10003b8c:	00001248 	.word	0x00001248
10003b90:	1d239324 	.word	0x1d239324
10003b94:	0000124c 	.word	0x0000124c
10003b98:	50e1bc30 	.word	0x50e1bc30
10003b9c:	00001250 	.word	0x00001250
10003ba0:	8559ac80 	.word	0x8559ac80
10003ba4:	00001254 	.word	0x00001254
10003ba8:	38ce5552 	.word	0x38ce5552
10003bac:	00001258 	.word	0x00001258
10003bb0:	4c43860a 	.word	0x4c43860a
10003bb4:	0000125c 	.word	0x0000125c
10003bb8:	2bd24145 	.word	0x2bd24145
10003bbc:	cd455284 	.word	0xcd455284
10003bc0:	00001264 	.word	0x00001264
10003bc4:	bd80a01d 	.word	0xbd80a01d
10003bc8:	00001268 	.word	0x00001268
10003bcc:	00001438 	.word	0x00001438
10003bd0:	0000126a 	.word	0x0000126a
10003bd4:	0000126b 	.word	0x0000126b
10003bd8:	0000126c 	.word	0x0000126c
10003bdc:	6417d330 	.word	0x6417d330
10003be0:	00001270 	.word	0x00001270
10003be4:	d330ab81 	.word	0xd330ab81
10003be8:	00001274 	.word	0x00001274
10003bec:	d330ab85 	.word	0xd330ab85
10003bf0:	00001278 	.word	0x00001278
10003bf4:	ad855a18 	.word	0xad855a18
10003bf8:	4a43      	ldr	r2, [pc, #268]	; (10003d08 <setup_rom_contents+0x38f0>)
10003bfa:	4944      	ldr	r1, [pc, #272]	; (10003d0c <setup_rom_contents+0x38f4>)
10003bfc:	5099      	str	r1, [r3, r2]
10003bfe:	4944      	ldr	r1, [pc, #272]	; (10003d10 <setup_rom_contents+0x38f8>)
10003c00:	3204      	adds	r2, #4
10003c02:	5099      	str	r1, [r3, r2]
10003c04:	4a43      	ldr	r2, [pc, #268]	; (10003d14 <setup_rom_contents+0x38fc>)
10003c06:	4944      	ldr	r1, [pc, #272]	; (10003d18 <setup_rom_contents+0x3900>)
10003c08:	5099      	str	r1, [r3, r2]
10003c0a:	4a44      	ldr	r2, [pc, #272]	; (10003d1c <setup_rom_contents+0x3904>)
10003c0c:	4944      	ldr	r1, [pc, #272]	; (10003d20 <setup_rom_contents+0x3908>)
10003c0e:	5099      	str	r1, [r3, r2]
10003c10:	4a44      	ldr	r2, [pc, #272]	; (10003d24 <setup_rom_contents+0x390c>)
10003c12:	4945      	ldr	r1, [pc, #276]	; (10003d28 <setup_rom_contents+0x3910>)
10003c14:	5099      	str	r1, [r3, r2]
10003c16:	4a45      	ldr	r2, [pc, #276]	; (10003d2c <setup_rom_contents+0x3914>)
10003c18:	4945      	ldr	r1, [pc, #276]	; (10003d30 <setup_rom_contents+0x3918>)
10003c1a:	5099      	str	r1, [r3, r2]
10003c1c:	4a45      	ldr	r2, [pc, #276]	; (10003d34 <setup_rom_contents+0x391c>)
10003c1e:	4946      	ldr	r1, [pc, #280]	; (10003d38 <setup_rom_contents+0x3920>)
10003c20:	5099      	str	r1, [r3, r2]
10003c22:	4a46      	ldr	r2, [pc, #280]	; (10003d3c <setup_rom_contents+0x3924>)
10003c24:	4946      	ldr	r1, [pc, #280]	; (10003d40 <setup_rom_contents+0x3928>)
10003c26:	5099      	str	r1, [r3, r2]
10003c28:	4a46      	ldr	r2, [pc, #280]	; (10003d44 <setup_rom_contents+0x392c>)
10003c2a:	4947      	ldr	r1, [pc, #284]	; (10003d48 <setup_rom_contents+0x3930>)
10003c2c:	5099      	str	r1, [r3, r2]
10003c2e:	4947      	ldr	r1, [pc, #284]	; (10003d4c <setup_rom_contents+0x3934>)
10003c30:	3204      	adds	r2, #4
10003c32:	5099      	str	r1, [r3, r2]
10003c34:	4a46      	ldr	r2, [pc, #280]	; (10003d50 <setup_rom_contents+0x3938>)
10003c36:	4947      	ldr	r1, [pc, #284]	; (10003d54 <setup_rom_contents+0x393c>)
10003c38:	5099      	str	r1, [r3, r2]
10003c3a:	4a47      	ldr	r2, [pc, #284]	; (10003d58 <setup_rom_contents+0x3940>)
10003c3c:	4947      	ldr	r1, [pc, #284]	; (10003d5c <setup_rom_contents+0x3944>)
10003c3e:	5099      	str	r1, [r3, r2]
10003c40:	4a47      	ldr	r2, [pc, #284]	; (10003d60 <setup_rom_contents+0x3948>)
10003c42:	4948      	ldr	r1, [pc, #288]	; (10003d64 <setup_rom_contents+0x394c>)
10003c44:	5099      	str	r1, [r3, r2]
10003c46:	4a48      	ldr	r2, [pc, #288]	; (10003d68 <setup_rom_contents+0x3950>)
10003c48:	4948      	ldr	r1, [pc, #288]	; (10003d6c <setup_rom_contents+0x3954>)
10003c4a:	5099      	str	r1, [r3, r2]
10003c4c:	4a48      	ldr	r2, [pc, #288]	; (10003d70 <setup_rom_contents+0x3958>)
10003c4e:	4949      	ldr	r1, [pc, #292]	; (10003d74 <setup_rom_contents+0x395c>)
10003c50:	5099      	str	r1, [r3, r2]
10003c52:	4a49      	ldr	r2, [pc, #292]	; (10003d78 <setup_rom_contents+0x3960>)
10003c54:	4949      	ldr	r1, [pc, #292]	; (10003d7c <setup_rom_contents+0x3964>)
10003c56:	5099      	str	r1, [r3, r2]
10003c58:	4a49      	ldr	r2, [pc, #292]	; (10003d80 <setup_rom_contents+0x3968>)
10003c5a:	494a      	ldr	r1, [pc, #296]	; (10003d84 <setup_rom_contents+0x396c>)
10003c5c:	5099      	str	r1, [r3, r2]
10003c5e:	494a      	ldr	r1, [pc, #296]	; (10003d88 <setup_rom_contents+0x3970>)
10003c60:	3204      	adds	r2, #4
10003c62:	5099      	str	r1, [r3, r2]
10003c64:	4a49      	ldr	r2, [pc, #292]	; (10003d8c <setup_rom_contents+0x3974>)
10003c66:	494a      	ldr	r1, [pc, #296]	; (10003d90 <setup_rom_contents+0x3978>)
10003c68:	5099      	str	r1, [r3, r2]
10003c6a:	4a4a      	ldr	r2, [pc, #296]	; (10003d94 <setup_rom_contents+0x397c>)
10003c6c:	494a      	ldr	r1, [pc, #296]	; (10003d98 <setup_rom_contents+0x3980>)
10003c6e:	5099      	str	r1, [r3, r2]
10003c70:	4a4a      	ldr	r2, [pc, #296]	; (10003d9c <setup_rom_contents+0x3984>)
10003c72:	494b      	ldr	r1, [pc, #300]	; (10003da0 <setup_rom_contents+0x3988>)
10003c74:	5099      	str	r1, [r3, r2]
10003c76:	4a4b      	ldr	r2, [pc, #300]	; (10003da4 <setup_rom_contents+0x398c>)
10003c78:	494b      	ldr	r1, [pc, #300]	; (10003da8 <setup_rom_contents+0x3990>)
10003c7a:	5099      	str	r1, [r3, r2]
10003c7c:	4a4b      	ldr	r2, [pc, #300]	; (10003dac <setup_rom_contents+0x3994>)
10003c7e:	494c      	ldr	r1, [pc, #304]	; (10003db0 <setup_rom_contents+0x3998>)
10003c80:	5099      	str	r1, [r3, r2]
10003c82:	4a4c      	ldr	r2, [pc, #304]	; (10003db4 <setup_rom_contents+0x399c>)
10003c84:	494c      	ldr	r1, [pc, #304]	; (10003db8 <setup_rom_contents+0x39a0>)
10003c86:	5099      	str	r1, [r3, r2]
10003c88:	4a4c      	ldr	r2, [pc, #304]	; (10003dbc <setup_rom_contents+0x39a4>)
10003c8a:	494d      	ldr	r1, [pc, #308]	; (10003dc0 <setup_rom_contents+0x39a8>)
10003c8c:	5099      	str	r1, [r3, r2]
10003c8e:	494d      	ldr	r1, [pc, #308]	; (10003dc4 <setup_rom_contents+0x39ac>)
10003c90:	3204      	adds	r2, #4
10003c92:	5099      	str	r1, [r3, r2]
10003c94:	4a4c      	ldr	r2, [pc, #304]	; (10003dc8 <setup_rom_contents+0x39b0>)
10003c96:	494d      	ldr	r1, [pc, #308]	; (10003dcc <setup_rom_contents+0x39b4>)
10003c98:	5099      	str	r1, [r3, r2]
10003c9a:	4a4d      	ldr	r2, [pc, #308]	; (10003dd0 <setup_rom_contents+0x39b8>)
10003c9c:	494d      	ldr	r1, [pc, #308]	; (10003dd4 <setup_rom_contents+0x39bc>)
10003c9e:	5099      	str	r1, [r3, r2]
10003ca0:	4a4d      	ldr	r2, [pc, #308]	; (10003dd8 <setup_rom_contents+0x39c0>)
10003ca2:	494e      	ldr	r1, [pc, #312]	; (10003ddc <setup_rom_contents+0x39c4>)
10003ca4:	5099      	str	r1, [r3, r2]
10003ca6:	4a4e      	ldr	r2, [pc, #312]	; (10003de0 <setup_rom_contents+0x39c8>)
10003ca8:	494e      	ldr	r1, [pc, #312]	; (10003de4 <setup_rom_contents+0x39cc>)
10003caa:	5099      	str	r1, [r3, r2]
10003cac:	4a4e      	ldr	r2, [pc, #312]	; (10003de8 <setup_rom_contents+0x39d0>)
10003cae:	494f      	ldr	r1, [pc, #316]	; (10003dec <setup_rom_contents+0x39d4>)
10003cb0:	5099      	str	r1, [r3, r2]
10003cb2:	4a4f      	ldr	r2, [pc, #316]	; (10003df0 <setup_rom_contents+0x39d8>)
10003cb4:	494f      	ldr	r1, [pc, #316]	; (10003df4 <setup_rom_contents+0x39dc>)
10003cb6:	5099      	str	r1, [r3, r2]
10003cb8:	4a4f      	ldr	r2, [pc, #316]	; (10003df8 <setup_rom_contents+0x39e0>)
10003cba:	4950      	ldr	r1, [pc, #320]	; (10003dfc <setup_rom_contents+0x39e4>)
10003cbc:	5099      	str	r1, [r3, r2]
10003cbe:	4950      	ldr	r1, [pc, #320]	; (10003e00 <setup_rom_contents+0x39e8>)
10003cc0:	3204      	adds	r2, #4
10003cc2:	5099      	str	r1, [r3, r2]
10003cc4:	212f      	movs	r1, #47	; 0x2f
10003cc6:	4a4f      	ldr	r2, [pc, #316]	; (10003e04 <setup_rom_contents+0x39ec>)
10003cc8:	5099      	str	r1, [r3, r2]
10003cca:	4a4f      	ldr	r2, [pc, #316]	; (10003e08 <setup_rom_contents+0x39f0>)
10003ccc:	494f      	ldr	r1, [pc, #316]	; (10003e0c <setup_rom_contents+0x39f4>)
10003cce:	505a      	str	r2, [r3, r1]
10003cd0:	494f      	ldr	r1, [pc, #316]	; (10003e10 <setup_rom_contents+0x39f8>)
10003cd2:	505a      	str	r2, [r3, r1]
10003cd4:	494f      	ldr	r1, [pc, #316]	; (10003e14 <setup_rom_contents+0x39fc>)
10003cd6:	505a      	str	r2, [r3, r1]
10003cd8:	4a4f      	ldr	r2, [pc, #316]	; (10003e18 <setup_rom_contents+0x3a00>)
10003cda:	4950      	ldr	r1, [pc, #320]	; (10003e1c <setup_rom_contents+0x3a04>)
10003cdc:	5099      	str	r1, [r3, r2]
10003cde:	4a50      	ldr	r2, [pc, #320]	; (10003e20 <setup_rom_contents+0x3a08>)
10003ce0:	4950      	ldr	r1, [pc, #320]	; (10003e24 <setup_rom_contents+0x3a0c>)
10003ce2:	5099      	str	r1, [r3, r2]
10003ce4:	4a50      	ldr	r2, [pc, #320]	; (10003e28 <setup_rom_contents+0x3a10>)
10003ce6:	4951      	ldr	r1, [pc, #324]	; (10003e2c <setup_rom_contents+0x3a14>)
10003ce8:	5099      	str	r1, [r3, r2]
10003cea:	4951      	ldr	r1, [pc, #324]	; (10003e30 <setup_rom_contents+0x3a18>)
10003cec:	3204      	adds	r2, #4
10003cee:	5099      	str	r1, [r3, r2]
10003cf0:	4a50      	ldr	r2, [pc, #320]	; (10003e34 <setup_rom_contents+0x3a1c>)
10003cf2:	4951      	ldr	r1, [pc, #324]	; (10003e38 <setup_rom_contents+0x3a20>)
10003cf4:	5099      	str	r1, [r3, r2]
10003cf6:	21ff      	movs	r1, #255	; 0xff
10003cf8:	4a50      	ldr	r2, [pc, #320]	; (10003e3c <setup_rom_contents+0x3a24>)
10003cfa:	5499      	strb	r1, [r3, r2]
10003cfc:	bc3c      	pop	{r2, r3, r4, r5}
10003cfe:	4690      	mov	r8, r2
10003d00:	4699      	mov	r9, r3
10003d02:	46a2      	mov	sl, r4
10003d04:	46ab      	mov	fp, r5
10003d06:	bdf0      	pop	{r4, r5, r6, r7, pc}
10003d08:	0000127c 	.word	0x0000127c
10003d0c:	5419d330 	.word	0x5419d330
10003d10:	85e2302f 	.word	0x85e2302f
10003d14:	00001284 	.word	0x00001284
10003d18:	1ae230aa 	.word	0x1ae230aa
10003d1c:	00001288 	.word	0x00001288
10003d20:	30af855a 	.word	0x30af855a
10003d24:	0000128c 	.word	0x0000128c
10003d28:	2f541be2 	.word	0x2f541be2
10003d2c:	00001290 	.word	0x00001290
10003d30:	c44e5298 	.word	0xc44e5298
10003d34:	00001294 	.word	0x00001294
10003d38:	1280800a 	.word	0x1280800a
10003d3c:	00001298 	.word	0x00001298
10003d40:	1a29090a 	.word	0x1a29090a
10003d44:	0000129c 	.word	0x0000129c
10003d48:	18851a0a 	.word	0x18851a0a
10003d4c:	12800913 	.word	0x12800913
10003d50:	000012a4 	.word	0x000012a4
10003d54:	30310b01 	.word	0x30310b01
10003d58:	000012a8 	.word	0x000012a8
10003d5c:	040b7261 	.word	0x040b7261
10003d60:	000012ac 	.word	0x000012ac
10003d64:	03050302 	.word	0x03050302
10003d68:	000012b0 	.word	0x000012b0
10003d6c:	0b191a1b 	.word	0x0b191a1b
10003d70:	000012b4 	.word	0x000012b4
10003d74:	000a0609 	.word	0x000a0609
10003d78:	000012b8 	.word	0x000012b8
10003d7c:	2f171c00 	.word	0x2f171c00
10003d80:	000012bc 	.word	0x000012bc
10003d84:	d253558f 	.word	0xd253558f
10003d88:	bc30a880 	.word	0xbc30a880
10003d8c:	000012c4 	.word	0x000012c4
10003d90:	2a312a31 	.word	0x2a312a31
10003d94:	000012c8 	.word	0x000012c8
10003d98:	2f2ea980 	.word	0x2f2ea980
10003d9c:	000012cc 	.word	0x000012cc
10003da0:	c12f12a2 	.word	0xc12f12a2
10003da4:	000012d0 	.word	0x000012d0
10003da8:	30a8802f 	.word	0x30a8802f
10003dac:	000012d4 	.word	0x000012d4
10003db0:	2fa980bc 	.word	0x2fa980bc
10003db4:	000012d8 	.word	0x000012d8
10003db8:	bc38ac83 	.word	0xbc38ac83
10003dbc:	000012dc 	.word	0x000012dc
10003dc0:	a8802f0b 	.word	0xa8802f0b
10003dc4:	bd842f52 	.word	0xbd842f52
10003dc8:	000012e4 	.word	0x000012e4
10003dcc:	8e2f0209 	.word	0x8e2f0209
10003dd0:	000012e8 	.word	0x000012e8
10003dd4:	09bd84bc 	.word	0x09bd84bc
10003dd8:	000012ec 	.word	0x000012ec
10003ddc:	be842f93 	.word	0xbe842f93
10003de0:	000012f0 	.word	0x000012f0
10003de4:	092f0509 	.word	0x092f0509
10003de8:	000012f4 	.word	0x000012f4
10003dec:	be802f91 	.word	0xbe802f91
10003df0:	000012f8 	.word	0x000012f8
10003df4:	0609bd84 	.word	0x0609bd84
10003df8:	000012fc 	.word	0x000012fc
10003dfc:	09bc842f 	.word	0x09bc842f
10003e00:	04092f95 	.word	0x04092f95
10003e04:	00001304 	.word	0x00001304
10003e08:	20202020 	.word	0x20202020
10003e0c:	00001308 	.word	0x00001308
10003e10:	0000130c 	.word	0x0000130c
10003e14:	00001310 	.word	0x00001310
10003e18:	00001314 	.word	0x00001314
10003e1c:	76202020 	.word	0x76202020
10003e20:	00001318 	.word	0x00001318
10003e24:	72746365 	.word	0x72746365
10003e28:	0000131c 	.word	0x0000131c
10003e2c:	36206e6f 	.word	0x36206e6f
10003e30:	61622035 	.word	0x61622035
10003e34:	00001324 	.word	0x00001324
10003e38:	0d636973 	.word	0x0d636973
10003e3c:	00001328 	.word	0x00001328

10003e40 <main>:
10003e40:	b570      	push	{r4, r5, r6, lr}
10003e42:	f7fc fae9 	bl	10000418 <setup_rom_contents>
10003e46:	200f      	movs	r0, #15
10003e48:	f001 f87a 	bl	10004f40 <vreg_set_voltage>
10003e4c:	2104      	movs	r1, #4
10003e4e:	2201      	movs	r2, #1
10003e50:	4809      	ldr	r0, [pc, #36]	; (10003e78 <main+0x38>)
10003e52:	f000 f815 	bl	10003e80 <set_sys_clock_pll>
10003e56:	24ff      	movs	r4, #255	; 0xff
10003e58:	f7fc fa58 	bl	1000030c <setup_gpio>
10003e5c:	21d0      	movs	r1, #208	; 0xd0
10003e5e:	4d07      	ldr	r5, [pc, #28]	; (10003e7c <main+0x3c>)
10003e60:	0609      	lsls	r1, r1, #24
10003e62:	03e4      	lsls	r4, r4, #15
10003e64:	684a      	ldr	r2, [r1, #4]
10003e66:	6908      	ldr	r0, [r1, #16]
10003e68:	0452      	lsls	r2, r2, #17
10003e6a:	0c52      	lsrs	r2, r2, #17
10003e6c:	5cab      	ldrb	r3, [r5, r2]
10003e6e:	03db      	lsls	r3, r3, #15
10003e70:	4043      	eors	r3, r0
10003e72:	4023      	ands	r3, r4
10003e74:	61cb      	str	r3, [r1, #28]
10003e76:	e7f5      	b.n	10003e64 <main+0x24>
10003e78:	5f5e1000 	.word	0x5f5e1000
10003e7c:	200003f0 	.word	0x200003f0

10003e80 <set_sys_clock_pll>:
10003e80:	b5f0      	push	{r4, r5, r6, r7, lr}
10003e82:	b083      	sub	sp, #12
10003e84:	0005      	movs	r5, r0
10003e86:	000e      	movs	r6, r1
10003e88:	0014      	movs	r4, r2
10003e8a:	f000 f89d 	bl	10003fc8 <running_on_fpga>
10003e8e:	2800      	cmp	r0, #0
10003e90:	d001      	beq.n	10003e96 <set_sys_clock_pll+0x16>
10003e92:	b003      	add	sp, #12
10003e94:	bdf0      	pop	{r4, r5, r6, r7, pc}
10003e96:	4f15      	ldr	r7, [pc, #84]	; (10003eec <set_sys_clock_pll+0x6c>)
10003e98:	2201      	movs	r2, #1
10003e9a:	003b      	movs	r3, r7
10003e9c:	2101      	movs	r1, #1
10003e9e:	9700      	str	r7, [sp, #0]
10003ea0:	3005      	adds	r0, #5
10003ea2:	f000 fe1f 	bl	10004ae4 <clock_configure>
10003ea6:	0033      	movs	r3, r6
10003ea8:	002a      	movs	r2, r5
10003eaa:	9400      	str	r4, [sp, #0]
10003eac:	2101      	movs	r1, #1
10003eae:	4810      	ldr	r0, [pc, #64]	; (10003ef0 <set_sys_clock_pll+0x70>)
10003eb0:	f001 f81c 	bl	10004eec <pll_init>
10003eb4:	0021      	movs	r1, r4
10003eb6:	0028      	movs	r0, r5
10003eb8:	4371      	muls	r1, r6
10003eba:	f001 fa3d 	bl	10005338 <__wrap___aeabi_uidiv>
10003ebe:	0004      	movs	r4, r0
10003ec0:	4b0c      	ldr	r3, [pc, #48]	; (10003ef4 <set_sys_clock_pll+0x74>)
10003ec2:	2200      	movs	r2, #0
10003ec4:	9300      	str	r3, [sp, #0]
10003ec6:	2102      	movs	r1, #2
10003ec8:	2004      	movs	r0, #4
10003eca:	f000 fe0b 	bl	10004ae4 <clock_configure>
10003ece:	0023      	movs	r3, r4
10003ed0:	2200      	movs	r2, #0
10003ed2:	2101      	movs	r1, #1
10003ed4:	9400      	str	r4, [sp, #0]
10003ed6:	2005      	movs	r0, #5
10003ed8:	f000 fe04 	bl	10004ae4 <clock_configure>
10003edc:	003b      	movs	r3, r7
10003ede:	2202      	movs	r2, #2
10003ee0:	2100      	movs	r1, #0
10003ee2:	9700      	str	r7, [sp, #0]
10003ee4:	2006      	movs	r0, #6
10003ee6:	f000 fdfd 	bl	10004ae4 <clock_configure>
10003eea:	e7d2      	b.n	10003e92 <set_sys_clock_pll+0x12>
10003eec:	02dc6c00 	.word	0x02dc6c00
10003ef0:	40028000 	.word	0x40028000
10003ef4:	00b71b00 	.word	0x00b71b00

10003ef8 <gpio_init>:
10003ef8:	2301      	movs	r3, #1
10003efa:	22d0      	movs	r2, #208	; 0xd0
10003efc:	4083      	lsls	r3, r0
10003efe:	0612      	lsls	r2, r2, #24
10003f00:	6293      	str	r3, [r2, #40]	; 0x28
10003f02:	6193      	str	r3, [r2, #24]
10003f04:	4a09      	ldr	r2, [pc, #36]	; (10003f2c <gpio_init+0x34>)
10003f06:	0083      	lsls	r3, r0, #2
10003f08:	4694      	mov	ip, r2
10003f0a:	2240      	movs	r2, #64	; 0x40
10003f0c:	4463      	add	r3, ip
10003f0e:	6819      	ldr	r1, [r3, #0]
10003f10:	00c0      	lsls	r0, r0, #3
10003f12:	404a      	eors	r2, r1
10003f14:	21c0      	movs	r1, #192	; 0xc0
10003f16:	4011      	ands	r1, r2
10003f18:	2280      	movs	r2, #128	; 0x80
10003f1a:	0152      	lsls	r2, r2, #5
10003f1c:	4313      	orrs	r3, r2
10003f1e:	6019      	str	r1, [r3, #0]
10003f20:	4b03      	ldr	r3, [pc, #12]	; (10003f30 <gpio_init+0x38>)
10003f22:	469c      	mov	ip, r3
10003f24:	2305      	movs	r3, #5
10003f26:	4460      	add	r0, ip
10003f28:	6043      	str	r3, [r0, #4]
10003f2a:	4770      	bx	lr
10003f2c:	4001c004 	.word	0x4001c004
10003f30:	40014000 	.word	0x40014000

10003f34 <hw_claim_or_assert>:
10003f34:	b5f8      	push	{r3, r4, r5, r6, r7, lr}
10003f36:	46ce      	mov	lr, r9
10003f38:	4647      	mov	r7, r8
10003f3a:	4691      	mov	r9, r2
10003f3c:	b580      	push	{r7, lr}
10003f3e:	f3ef 8710 	mrs	r7, PRIMASK
10003f42:	b672      	cpsid	i
10003f44:	4e12      	ldr	r6, [pc, #72]	; (10003f90 <hw_claim_or_assert+0x5c>)
10003f46:	6833      	ldr	r3, [r6, #0]
10003f48:	2b00      	cmp	r3, #0
10003f4a:	d0fc      	beq.n	10003f46 <hw_claim_or_assert+0x12>
10003f4c:	f3bf 8f5f 	dmb	sy
10003f50:	08cb      	lsrs	r3, r1, #3
10003f52:	5cc5      	ldrb	r5, [r0, r3]
10003f54:	2407      	movs	r4, #7
10003f56:	18c2      	adds	r2, r0, r3
10003f58:	0028      	movs	r0, r5
10003f5a:	2301      	movs	r3, #1
10003f5c:	400c      	ands	r4, r1
10003f5e:	4694      	mov	ip, r2
10003f60:	40e0      	lsrs	r0, r4
10003f62:	001a      	movs	r2, r3
10003f64:	4002      	ands	r2, r0
10003f66:	4690      	mov	r8, r2
10003f68:	4203      	tst	r3, r0
10003f6a:	d10d      	bne.n	10003f88 <hw_claim_or_assert+0x54>
10003f6c:	40a3      	lsls	r3, r4
10003f6e:	4662      	mov	r2, ip
10003f70:	432b      	orrs	r3, r5
10003f72:	7013      	strb	r3, [r2, #0]
10003f74:	f3bf 8f5f 	dmb	sy
10003f78:	4643      	mov	r3, r8
10003f7a:	6033      	str	r3, [r6, #0]
10003f7c:	f387 8810 	msr	PRIMASK, r7
10003f80:	bc0c      	pop	{r2, r3}
10003f82:	4690      	mov	r8, r2
10003f84:	4699      	mov	r9, r3
10003f86:	bdf8      	pop	{r3, r4, r5, r6, r7, pc}
10003f88:	4648      	mov	r0, r9
10003f8a:	f000 fd8d 	bl	10004aa8 <panic>
10003f8e:	46c0      	nop			; (mov r8, r8)
10003f90:	d000012c 	.word	0xd000012c

10003f94 <spin_locks_reset>:
10003f94:	2100      	movs	r1, #0
10003f96:	4b04      	ldr	r3, [pc, #16]	; (10003fa8 <spin_locks_reset+0x14>)
10003f98:	4a04      	ldr	r2, [pc, #16]	; (10003fac <spin_locks_reset+0x18>)
10003f9a:	f3bf 8f5f 	dmb	sy
10003f9e:	c302      	stmia	r3!, {r1}
10003fa0:	4293      	cmp	r3, r2
10003fa2:	d1fa      	bne.n	10003f9a <spin_locks_reset+0x6>
10003fa4:	4770      	bx	lr
10003fa6:	46c0      	nop			; (mov r8, r8)
10003fa8:	d0000100 	.word	0xd0000100
10003fac:	d0000180 	.word	0xd0000180

10003fb0 <next_striped_spin_lock_num>:
10003fb0:	4a04      	ldr	r2, [pc, #16]	; (10003fc4 <next_striped_spin_lock_num+0x14>)
10003fb2:	7810      	ldrb	r0, [r2, #0]
10003fb4:	1c43      	adds	r3, r0, #1
10003fb6:	b2db      	uxtb	r3, r3
10003fb8:	2b17      	cmp	r3, #23
10003fba:	d900      	bls.n	10003fbe <next_striped_spin_lock_num+0xe>
10003fbc:	2310      	movs	r3, #16
10003fbe:	7013      	strb	r3, [r2, #0]
10003fc0:	4770      	bx	lr
10003fc2:	46c0      	nop			; (mov r8, r8)
10003fc4:	20000180 	.word	0x20000180

10003fc8 <running_on_fpga>:
10003fc8:	4b02      	ldr	r3, [pc, #8]	; (10003fd4 <running_on_fpga+0xc>)
10003fca:	6818      	ldr	r0, [r3, #0]
10003fcc:	0780      	lsls	r0, r0, #30
10003fce:	0fc0      	lsrs	r0, r0, #31
10003fd0:	4770      	bx	lr
10003fd2:	46c0      	nop			; (mov r8, r8)
10003fd4:	4006c000 	.word	0x4006c000

10003fd8 <timer_pool_entry_comparator>:
10003fd8:	6883      	ldr	r3, [r0, #8]
10003fda:	480b      	ldr	r0, [pc, #44]	; (10004008 <timer_pool_entry_comparator+0x30>)
10003fdc:	b510      	push	{r4, lr}
10003fde:	4684      	mov	ip, r0
10003fe0:	4461      	add	r1, ip
10003fe2:	4462      	add	r2, ip
10003fe4:	0109      	lsls	r1, r1, #4
10003fe6:	0112      	lsls	r2, r2, #4
10003fe8:	189a      	adds	r2, r3, r2
10003fea:	1859      	adds	r1, r3, r1
10003fec:	6854      	ldr	r4, [r2, #4]
10003fee:	684b      	ldr	r3, [r1, #4]
10003ff0:	2001      	movs	r0, #1
10003ff2:	429c      	cmp	r4, r3
10003ff4:	d801      	bhi.n	10003ffa <timer_pool_entry_comparator+0x22>
10003ff6:	d002      	beq.n	10003ffe <timer_pool_entry_comparator+0x26>
10003ff8:	2000      	movs	r0, #0
10003ffa:	b2c0      	uxtb	r0, r0
10003ffc:	bd10      	pop	{r4, pc}
10003ffe:	6812      	ldr	r2, [r2, #0]
10004000:	680b      	ldr	r3, [r1, #0]
10004002:	429a      	cmp	r2, r3
10004004:	d8f9      	bhi.n	10003ffa <timer_pool_entry_comparator+0x22>
10004006:	e7f7      	b.n	10003ff8 <timer_pool_entry_comparator+0x20>
10004008:	0fffffff 	.word	0x0fffffff

1000400c <add_alarm_under_lock>:
1000400c:	b5f8      	push	{r3, r4, r5, r6, r7, lr}
1000400e:	4657      	mov	r7, sl
10004010:	4645      	mov	r5, r8
10004012:	464e      	mov	r6, r9
10004014:	46de      	mov	lr, fp
10004016:	b5e0      	push	{r5, r6, r7, lr}
10004018:	4699      	mov	r9, r3
1000401a:	ab0c      	add	r3, sp, #48	; 0x30
1000401c:	7819      	ldrb	r1, [r3, #0]
1000401e:	ab0d      	add	r3, sp, #52	; 0x34
10004020:	781b      	ldrb	r3, [r3, #0]
10004022:	0005      	movs	r5, r0
10004024:	4690      	mov	r8, r2
10004026:	469a      	mov	sl, r3
10004028:	6807      	ldr	r7, [r0, #0]
1000402a:	2900      	cmp	r1, #0
1000402c:	d112      	bne.n	10004054 <add_alarm_under_lock+0x48>
1000402e:	7bbe      	ldrb	r6, [r7, #14]
10004030:	2e00      	cmp	r6, #0
10004032:	d045      	beq.n	100040c0 <add_alarm_under_lock+0xb4>
10004034:	0074      	lsls	r4, r6, #1
10004036:	683b      	ldr	r3, [r7, #0]
10004038:	19a4      	adds	r4, r4, r6
1000403a:	3c03      	subs	r4, #3
1000403c:	191b      	adds	r3, r3, r4
1000403e:	785a      	ldrb	r2, [r3, #1]
10004040:	0031      	movs	r1, r6
10004042:	73ba      	strb	r2, [r7, #14]
10004044:	2a00      	cmp	r2, #0
10004046:	d100      	bne.n	1000404a <add_alarm_under_lock+0x3e>
10004048:	73fa      	strb	r2, [r7, #15]
1000404a:	2200      	movs	r2, #0
1000404c:	709a      	strb	r2, [r3, #2]
1000404e:	705a      	strb	r2, [r3, #1]
10004050:	701a      	strb	r2, [r3, #0]
10004052:	e003      	b.n	1000405c <add_alarm_under_lock+0x50>
10004054:	000e      	movs	r6, r1
10004056:	004c      	lsls	r4, r1, #1
10004058:	1864      	adds	r4, r4, r1
1000405a:	3c03      	subs	r4, #3
1000405c:	4b2c      	ldr	r3, [pc, #176]	; (10004110 <add_alarm_under_lock+0x104>)
1000405e:	2200      	movs	r2, #0
10004060:	469c      	mov	ip, r3
10004062:	68ab      	ldr	r3, [r5, #8]
10004064:	4461      	add	r1, ip
10004066:	469c      	mov	ip, r3
10004068:	4643      	mov	r3, r8
1000406a:	0109      	lsls	r1, r1, #4
1000406c:	4461      	add	r1, ip
1000406e:	600b      	str	r3, [r1, #0]
10004070:	464b      	mov	r3, r9
10004072:	604b      	str	r3, [r1, #4]
10004074:	9b0a      	ldr	r3, [sp, #40]	; 0x28
10004076:	608b      	str	r3, [r1, #8]
10004078:	9b0b      	ldr	r3, [sp, #44]	; 0x2c
1000407a:	60cb      	str	r3, [r1, #12]
1000407c:	683b      	ldr	r3, [r7, #0]
1000407e:	191b      	adds	r3, r3, r4
10004080:	709a      	strb	r2, [r3, #2]
10004082:	705a      	strb	r2, [r3, #1]
10004084:	701a      	strb	r2, [r3, #0]
10004086:	7b7b      	ldrb	r3, [r7, #13]
10004088:	469b      	mov	fp, r3
1000408a:	2b00      	cmp	r3, #0
1000408c:	d02c      	beq.n	100040e8 <add_alarm_under_lock+0xdc>
1000408e:	0032      	movs	r2, r6
10004090:	4659      	mov	r1, fp
10004092:	68b8      	ldr	r0, [r7, #8]
10004094:	687b      	ldr	r3, [r7, #4]
10004096:	4798      	blx	r3
10004098:	683a      	ldr	r2, [r7, #0]
1000409a:	2800      	cmp	r0, #0
1000409c:	d017      	beq.n	100040ce <add_alarm_under_lock+0xc2>
1000409e:	465b      	mov	r3, fp
100040a0:	4658      	mov	r0, fp
100040a2:	005b      	lsls	r3, r3, #1
100040a4:	445b      	add	r3, fp
100040a6:	1914      	adds	r4, r2, r4
100040a8:	3b03      	subs	r3, #3
100040aa:	70a0      	strb	r0, [r4, #2]
100040ac:	18d1      	adds	r1, r2, r3
100040ae:	5cd3      	ldrb	r3, [r2, r3]
100040b0:	2b00      	cmp	r3, #0
100040b2:	d000      	beq.n	100040b6 <add_alarm_under_lock+0xaa>
100040b4:	7063      	strb	r3, [r4, #1]
100040b6:	465b      	mov	r3, fp
100040b8:	700e      	strb	r6, [r1, #0]
100040ba:	737b      	strb	r3, [r7, #13]
100040bc:	45b3      	cmp	fp, r6
100040be:	d014      	beq.n	100040ea <add_alarm_under_lock+0xde>
100040c0:	0030      	movs	r0, r6
100040c2:	bc3c      	pop	{r2, r3, r4, r5}
100040c4:	4690      	mov	r8, r2
100040c6:	4699      	mov	r9, r3
100040c8:	46a2      	mov	sl, r4
100040ca:	46ab      	mov	fp, r5
100040cc:	bdf8      	pop	{r3, r4, r5, r6, r7, pc}
100040ce:	465b      	mov	r3, fp
100040d0:	005b      	lsls	r3, r3, #1
100040d2:	445b      	add	r3, fp
100040d4:	3b03      	subs	r3, #3
100040d6:	18d3      	adds	r3, r2, r3
100040d8:	709e      	strb	r6, [r3, #2]
100040da:	1911      	adds	r1, r2, r4
100040dc:	5d12      	ldrb	r2, [r2, r4]
100040de:	2a00      	cmp	r2, #0
100040e0:	d000      	beq.n	100040e4 <add_alarm_under_lock+0xd8>
100040e2:	705a      	strb	r2, [r3, #1]
100040e4:	465b      	mov	r3, fp
100040e6:	700b      	strb	r3, [r1, #0]
100040e8:	737e      	strb	r6, [r7, #13]
100040ea:	4642      	mov	r2, r8
100040ec:	464b      	mov	r3, r9
100040ee:	7d28      	ldrb	r0, [r5, #20]
100040f0:	f000 f9cc 	bl	1000448c <hardware_alarm_set_target>
100040f4:	1e04      	subs	r4, r0, #0
100040f6:	d006      	beq.n	10004106 <add_alarm_under_lock+0xfa>
100040f8:	4653      	mov	r3, sl
100040fa:	2b00      	cmp	r3, #0
100040fc:	d103      	bne.n	10004106 <add_alarm_under_lock+0xfa>
100040fe:	0031      	movs	r1, r6
10004100:	6828      	ldr	r0, [r5, #0]
10004102:	f000 fc1b 	bl	1000493c <ph_remove_and_free_node>
10004106:	9b0e      	ldr	r3, [sp, #56]	; 0x38
10004108:	2b00      	cmp	r3, #0
1000410a:	d0d9      	beq.n	100040c0 <add_alarm_under_lock+0xb4>
1000410c:	701c      	strb	r4, [r3, #0]
1000410e:	e7d7      	b.n	100040c0 <add_alarm_under_lock+0xb4>
10004110:	0fffffff 	.word	0x0fffffff

10004114 <alarm_pool_alarm_callback>:
10004114:	b5f0      	push	{r4, r5, r6, r7, lr}
10004116:	46de      	mov	lr, fp
10004118:	4657      	mov	r7, sl
1000411a:	464e      	mov	r6, r9
1000411c:	4645      	mov	r5, r8
1000411e:	2300      	movs	r3, #0
10004120:	b5e0      	push	{r5, r6, r7, lr}
10004122:	b08d      	sub	sp, #52	; 0x34
10004124:	930a      	str	r3, [sp, #40]	; 0x28
10004126:	4b65      	ldr	r3, [pc, #404]	; (100042bc <alarm_pool_alarm_callback+0x1a8>)
10004128:	0082      	lsls	r2, r0, #2
1000412a:	58d4      	ldr	r4, [r2, r3]
1000412c:	2300      	movs	r3, #0
1000412e:	469b      	mov	fp, r3
10004130:	900b      	str	r0, [sp, #44]	; 0x2c
10004132:	9407      	str	r4, [sp, #28]
10004134:	f000 f95a 	bl	100043ec <time_us_64>
10004138:	9c07      	ldr	r4, [sp, #28]
1000413a:	0002      	movs	r2, r0
1000413c:	000b      	movs	r3, r1
1000413e:	6860      	ldr	r0, [r4, #4]
10004140:	f3ef 8a10 	mrs	sl, PRIMASK
10004144:	b672      	cpsid	i
10004146:	6801      	ldr	r1, [r0, #0]
10004148:	2900      	cmp	r1, #0
1000414a:	d0fc      	beq.n	10004146 <alarm_pool_alarm_callback+0x32>
1000414c:	9407      	str	r4, [sp, #28]
1000414e:	f3bf 8f5f 	dmb	sy
10004152:	6820      	ldr	r0, [r4, #0]
10004154:	7b45      	ldrb	r5, [r0, #13]
10004156:	2d00      	cmp	r5, #0
10004158:	d064      	beq.n	10004224 <alarm_pool_alarm_callback+0x110>
1000415a:	68a4      	ldr	r4, [r4, #8]
1000415c:	4958      	ldr	r1, [pc, #352]	; (100042c0 <alarm_pool_alarm_callback+0x1ac>)
1000415e:	46a1      	mov	r9, r4
10004160:	1869      	adds	r1, r5, r1
10004162:	0109      	lsls	r1, r1, #4
10004164:	4489      	add	r9, r1
10004166:	4649      	mov	r1, r9
10004168:	680e      	ldr	r6, [r1, #0]
1000416a:	684f      	ldr	r7, [r1, #4]
1000416c:	1ab6      	subs	r6, r6, r2
1000416e:	419f      	sbcs	r7, r3
10004170:	2f00      	cmp	r7, #0
10004172:	dd5e      	ble.n	10004232 <alarm_pool_alarm_callback+0x11e>
10004174:	464b      	mov	r3, r9
10004176:	980b      	ldr	r0, [sp, #44]	; 0x2c
10004178:	681a      	ldr	r2, [r3, #0]
1000417a:	685b      	ldr	r3, [r3, #4]
1000417c:	f000 f986 	bl	1000448c <hardware_alarm_set_target>
10004180:	2300      	movs	r3, #0
10004182:	2600      	movs	r6, #0
10004184:	2700      	movs	r7, #0
10004186:	4699      	mov	r9, r3
10004188:	4698      	mov	r8, r3
1000418a:	9c07      	ldr	r4, [sp, #28]
1000418c:	6863      	ldr	r3, [r4, #4]
1000418e:	f3bf 8f5f 	dmb	sy
10004192:	465a      	mov	r2, fp
10004194:	601a      	str	r2, [r3, #0]
10004196:	f38a 8810 	msr	PRIMASK, sl
1000419a:	4643      	mov	r3, r8
1000419c:	2b00      	cmp	r3, #0
1000419e:	d108      	bne.n	100041b2 <alarm_pool_alarm_callback+0x9e>
100041a0:	2800      	cmp	r0, #0
100041a2:	d1c7      	bne.n	10004134 <alarm_pool_alarm_callback+0x20>
100041a4:	b00d      	add	sp, #52	; 0x34
100041a6:	bc3c      	pop	{r2, r3, r4, r5}
100041a8:	4690      	mov	r8, r2
100041aa:	4699      	mov	r9, r3
100041ac:	46a2      	mov	sl, r4
100041ae:	46ab      	mov	fp, r5
100041b0:	bdf0      	pop	{r4, r5, r6, r7, pc}
100041b2:	9b0a      	ldr	r3, [sp, #40]	; 0x28
100041b4:	4649      	mov	r1, r9
100041b6:	0218      	lsls	r0, r3, #8
100041b8:	4328      	orrs	r0, r5
100041ba:	47c0      	blx	r8
100041bc:	9008      	str	r0, [sp, #32]
100041be:	9109      	str	r1, [sp, #36]	; 0x24
100041c0:	6862      	ldr	r2, [r4, #4]
100041c2:	f3ef 8a10 	mrs	sl, PRIMASK
100041c6:	b672      	cpsid	i
100041c8:	6813      	ldr	r3, [r2, #0]
100041ca:	2b00      	cmp	r3, #0
100041cc:	d0fc      	beq.n	100041c8 <alarm_pool_alarm_callback+0xb4>
100041ce:	9407      	str	r4, [sp, #28]
100041d0:	f3bf 8f5f 	dmb	sy
100041d4:	9908      	ldr	r1, [sp, #32]
100041d6:	9a09      	ldr	r2, [sp, #36]	; 0x24
100041d8:	2a00      	cmp	r2, #0
100041da:	db44      	blt.n	10004266 <alarm_pool_alarm_callback+0x152>
100041dc:	4311      	orrs	r1, r2
100041de:	d003      	beq.n	100041e8 <alarm_pool_alarm_callback+0xd4>
100041e0:	9b07      	ldr	r3, [sp, #28]
100041e2:	691b      	ldr	r3, [r3, #16]
100041e4:	2b00      	cmp	r3, #0
100041e6:	d159      	bne.n	1000429c <alarm_pool_alarm_callback+0x188>
100041e8:	9b07      	ldr	r3, [sp, #28]
100041ea:	681b      	ldr	r3, [r3, #0]
100041ec:	7bda      	ldrb	r2, [r3, #15]
100041ee:	2a00      	cmp	r2, #0
100041f0:	d006      	beq.n	10004200 <alarm_pool_alarm_callback+0xec>
100041f2:	0051      	lsls	r1, r2, #1
100041f4:	188a      	adds	r2, r1, r2
100041f6:	6819      	ldr	r1, [r3, #0]
100041f8:	468c      	mov	ip, r1
100041fa:	4462      	add	r2, ip
100041fc:	3a03      	subs	r2, #3
100041fe:	7055      	strb	r5, [r2, #1]
10004200:	73dd      	strb	r5, [r3, #15]
10004202:	9b07      	ldr	r3, [sp, #28]
10004204:	3d01      	subs	r5, #1
10004206:	68da      	ldr	r2, [r3, #12]
10004208:	5d53      	ldrb	r3, [r2, r5]
1000420a:	3301      	adds	r3, #1
1000420c:	5553      	strb	r3, [r2, r5]
1000420e:	465b      	mov	r3, fp
10004210:	9a07      	ldr	r2, [sp, #28]
10004212:	6113      	str	r3, [r2, #16]
10004214:	6853      	ldr	r3, [r2, #4]
10004216:	f3bf 8f5f 	dmb	sy
1000421a:	465a      	mov	r2, fp
1000421c:	601a      	str	r2, [r3, #0]
1000421e:	f38a 8810 	msr	PRIMASK, sl
10004222:	e787      	b.n	10004134 <alarm_pool_alarm_callback+0x20>
10004224:	2300      	movs	r3, #0
10004226:	2600      	movs	r6, #0
10004228:	2700      	movs	r7, #0
1000422a:	4699      	mov	r9, r3
1000422c:	4698      	mov	r8, r3
1000422e:	2000      	movs	r0, #0
10004230:	e7ab      	b.n	1000418a <alarm_pool_alarm_callback+0x76>
10004232:	2f00      	cmp	r7, #0
10004234:	d101      	bne.n	1000423a <alarm_pool_alarm_callback+0x126>
10004236:	2e00      	cmp	r6, #0
10004238:	d19c      	bne.n	10004174 <alarm_pool_alarm_callback+0x60>
1000423a:	2100      	movs	r1, #0
1000423c:	f000 fae0 	bl	10004800 <ph_remove_head>
10004240:	464b      	mov	r3, r9
10004242:	681e      	ldr	r6, [r3, #0]
10004244:	685f      	ldr	r7, [r3, #4]
10004246:	689b      	ldr	r3, [r3, #8]
10004248:	9a07      	ldr	r2, [sp, #28]
1000424a:	4698      	mov	r8, r3
1000424c:	464b      	mov	r3, r9
1000424e:	68db      	ldr	r3, [r3, #12]
10004250:	4699      	mov	r9, r3
10004252:	68d3      	ldr	r3, [r2, #12]
10004254:	195b      	adds	r3, r3, r5
10004256:	3b01      	subs	r3, #1
10004258:	781b      	ldrb	r3, [r3, #0]
1000425a:	930a      	str	r3, [sp, #40]	; 0x28
1000425c:	021b      	lsls	r3, r3, #8
1000425e:	4303      	orrs	r3, r0
10004260:	6113      	str	r3, [r2, #16]
10004262:	2000      	movs	r0, #0
10004264:	e791      	b.n	1000418a <alarm_pool_alarm_callback+0x76>
10004266:	6923      	ldr	r3, [r4, #16]
10004268:	2b00      	cmp	r3, #0
1000426a:	d0bd      	beq.n	100041e8 <alarm_pool_alarm_callback+0xd4>
1000426c:	0033      	movs	r3, r6
1000426e:	003c      	movs	r4, r7
10004270:	1a5b      	subs	r3, r3, r1
10004272:	4194      	sbcs	r4, r2
10004274:	001a      	movs	r2, r3
10004276:	0023      	movs	r3, r4
10004278:	42a7      	cmp	r7, r4
1000427a:	d919      	bls.n	100042b0 <alarm_pool_alarm_callback+0x19c>
1000427c:	2201      	movs	r2, #1
1000427e:	4252      	negs	r2, r2
10004280:	17d3      	asrs	r3, r2, #31
10004282:	4659      	mov	r1, fp
10004284:	9104      	str	r1, [sp, #16]
10004286:	2101      	movs	r1, #1
10004288:	9103      	str	r1, [sp, #12]
1000428a:	4649      	mov	r1, r9
1000428c:	9101      	str	r1, [sp, #4]
1000428e:	4641      	mov	r1, r8
10004290:	9807      	ldr	r0, [sp, #28]
10004292:	9502      	str	r5, [sp, #8]
10004294:	9100      	str	r1, [sp, #0]
10004296:	f7ff feb9 	bl	1000400c <add_alarm_under_lock>
1000429a:	e7b8      	b.n	1000420e <alarm_pool_alarm_callback+0xfa>
1000429c:	f000 f8a6 	bl	100043ec <time_us_64>
100042a0:	9a08      	ldr	r2, [sp, #32]
100042a2:	9b09      	ldr	r3, [sp, #36]	; 0x24
100042a4:	0006      	movs	r6, r0
100042a6:	000f      	movs	r7, r1
100042a8:	1992      	adds	r2, r2, r6
100042aa:	417b      	adcs	r3, r7
100042ac:	4299      	cmp	r1, r3
100042ae:	d8e5      	bhi.n	1000427c <alarm_pool_alarm_callback+0x168>
100042b0:	429f      	cmp	r7, r3
100042b2:	d1e6      	bne.n	10004282 <alarm_pool_alarm_callback+0x16e>
100042b4:	4296      	cmp	r6, r2
100042b6:	d9e4      	bls.n	10004282 <alarm_pool_alarm_callback+0x16e>
100042b8:	e7e0      	b.n	1000427c <alarm_pool_alarm_callback+0x168>
100042ba:	46c0      	nop			; (mov r8, r8)
100042bc:	200003e0 	.word	0x200003e0
100042c0:	0fffffff 	.word	0x0fffffff

100042c4 <alarm_pool_init_default>:
100042c4:	b510      	push	{r4, lr}
100042c6:	4c10      	ldr	r4, [pc, #64]	; (10004308 <alarm_pool_init_default+0x44>)
100042c8:	6863      	ldr	r3, [r4, #4]
100042ca:	2b00      	cmp	r3, #0
100042cc:	d000      	beq.n	100042d0 <alarm_pool_init_default+0xc>
100042ce:	bd10      	pop	{r4, pc}
100042d0:	0023      	movs	r3, r4
100042d2:	4a0e      	ldr	r2, [pc, #56]	; (1000430c <alarm_pool_init_default+0x48>)
100042d4:	2110      	movs	r1, #16
100042d6:	6820      	ldr	r0, [r4, #0]
100042d8:	f000 f9b0 	bl	1000463c <ph_post_alloc_init>
100042dc:	2003      	movs	r0, #3
100042de:	f000 f879 	bl	100043d4 <hardware_alarm_claim>
100042e2:	2003      	movs	r0, #3
100042e4:	f000 f940 	bl	10004568 <hardware_alarm_cancel>
100042e8:	2003      	movs	r0, #3
100042ea:	4909      	ldr	r1, [pc, #36]	; (10004310 <alarm_pool_init_default+0x4c>)
100042ec:	f000 f888 	bl	10004400 <hardware_alarm_set_callback>
100042f0:	f7ff fe5e 	bl	10003fb0 <next_striped_spin_lock_num>
100042f4:	4b07      	ldr	r3, [pc, #28]	; (10004314 <alarm_pool_init_default+0x50>)
100042f6:	469c      	mov	ip, r3
100042f8:	2303      	movs	r3, #3
100042fa:	4460      	add	r0, ip
100042fc:	7523      	strb	r3, [r4, #20]
100042fe:	4b06      	ldr	r3, [pc, #24]	; (10004318 <alarm_pool_init_default+0x54>)
10004300:	0080      	lsls	r0, r0, #2
10004302:	6060      	str	r0, [r4, #4]
10004304:	60dc      	str	r4, [r3, #12]
10004306:	e7e2      	b.n	100042ce <alarm_pool_init_default+0xa>
10004308:	20000184 	.word	0x20000184
1000430c:	10003fd9 	.word	0x10003fd9
10004310:	10004115 	.word	0x10004115
10004314:	34000040 	.word	0x34000040
10004318:	200003e0 	.word	0x200003e0

1000431c <hardware_alarm_irq_handler>:
1000431c:	b5f0      	push	{r4, r5, r6, r7, lr}
1000431e:	46d6      	mov	lr, sl
10004320:	464f      	mov	r7, r9
10004322:	4646      	mov	r6, r8
10004324:	b5c0      	push	{r6, r7, lr}
10004326:	f3ef 8305 	mrs	r3, IPSR
1000432a:	223f      	movs	r2, #63	; 0x3f
1000432c:	4013      	ands	r3, r2
1000432e:	0018      	movs	r0, r3
10004330:	3810      	subs	r0, #16
10004332:	f3ef 8c10 	mrs	ip, PRIMASK
10004336:	b672      	cpsid	i
10004338:	4d20      	ldr	r5, [pc, #128]	; (100043bc <hardware_alarm_irq_handler+0xa0>)
1000433a:	682a      	ldr	r2, [r5, #0]
1000433c:	2a00      	cmp	r2, #0
1000433e:	d0fc      	beq.n	1000433a <hardware_alarm_irq_handler+0x1e>
10004340:	f3bf 8f5f 	dmb	sy
10004344:	2201      	movs	r2, #1
10004346:	0011      	movs	r1, r2
10004348:	4081      	lsls	r1, r0
1000434a:	4c1d      	ldr	r4, [pc, #116]	; (100043c0 <hardware_alarm_irq_handler+0xa4>)
1000434c:	4688      	mov	r8, r1
1000434e:	6361      	str	r1, [r4, #52]	; 0x34
10004350:	491c      	ldr	r1, [pc, #112]	; (100043c4 <hardware_alarm_irq_handler+0xa8>)
10004352:	0017      	movs	r7, r2
10004354:	780e      	ldrb	r6, [r1, #0]
10004356:	468a      	mov	sl, r1
10004358:	0031      	movs	r1, r6
1000435a:	40c1      	lsrs	r1, r0
1000435c:	400f      	ands	r7, r1
1000435e:	420a      	tst	r2, r1
10004360:	d015      	beq.n	1000438e <hardware_alarm_irq_handler+0x72>
10004362:	4919      	ldr	r1, [pc, #100]	; (100043c8 <hardware_alarm_irq_handler+0xac>)
10004364:	0082      	lsls	r2, r0, #2
10004366:	6a64      	ldr	r4, [r4, #36]	; 0x24
10004368:	5851      	ldr	r1, [r2, r1]
1000436a:	428c      	cmp	r4, r1
1000436c:	d319      	bcc.n	100043a2 <hardware_alarm_irq_handler+0x86>
1000436e:	4b17      	ldr	r3, [pc, #92]	; (100043cc <hardware_alarm_irq_handler+0xb0>)
10004370:	58d2      	ldr	r2, [r2, r3]
10004372:	4643      	mov	r3, r8
10004374:	439e      	bics	r6, r3
10004376:	4653      	mov	r3, sl
10004378:	701e      	strb	r6, [r3, #0]
1000437a:	f3bf 8f5f 	dmb	sy
1000437e:	2300      	movs	r3, #0
10004380:	602b      	str	r3, [r5, #0]
10004382:	f38c 8810 	msr	PRIMASK, ip
10004386:	2a00      	cmp	r2, #0
10004388:	d006      	beq.n	10004398 <hardware_alarm_irq_handler+0x7c>
1000438a:	4790      	blx	r2
1000438c:	e004      	b.n	10004398 <hardware_alarm_irq_handler+0x7c>
1000438e:	f3bf 8f5f 	dmb	sy
10004392:	602f      	str	r7, [r5, #0]
10004394:	f38c 8810 	msr	PRIMASK, ip
10004398:	bc1c      	pop	{r2, r3, r4}
1000439a:	4690      	mov	r8, r2
1000439c:	4699      	mov	r9, r3
1000439e:	46a2      	mov	sl, r4
100043a0:	bdf0      	pop	{r4, r5, r6, r7, pc}
100043a2:	4a0b      	ldr	r2, [pc, #44]	; (100043d0 <hardware_alarm_irq_handler+0xb4>)
100043a4:	009b      	lsls	r3, r3, #2
100043a6:	4690      	mov	r8, r2
100043a8:	4443      	add	r3, r8
100043aa:	681a      	ldr	r2, [r3, #0]
100043ac:	601a      	str	r2, [r3, #0]
100043ae:	f3bf 8f5f 	dmb	sy
100043b2:	2300      	movs	r3, #0
100043b4:	602b      	str	r3, [r5, #0]
100043b6:	f38c 8810 	msr	PRIMASK, ip
100043ba:	e7ed      	b.n	10004398 <hardware_alarm_irq_handler+0x7c>
100043bc:	d0000128 	.word	0xd0000128
100043c0:	40054000 	.word	0x40054000
100043c4:	20008402 	.word	0x20008402
100043c8:	200083f0 	.word	0x200083f0
100043cc:	2000035c 	.word	0x2000035c
100043d0:	40053fd0 	.word	0x40053fd0

100043d4 <hardware_alarm_claim>:
100043d4:	b510      	push	{r4, lr}
100043d6:	0001      	movs	r1, r0
100043d8:	4a02      	ldr	r2, [pc, #8]	; (100043e4 <hardware_alarm_claim+0x10>)
100043da:	4803      	ldr	r0, [pc, #12]	; (100043e8 <hardware_alarm_claim+0x14>)
100043dc:	f7ff fdaa 	bl	10003f34 <hw_claim_or_assert>
100043e0:	bd10      	pop	{r4, pc}
100043e2:	46c0      	nop			; (mov r8, r8)
100043e4:	10005bd0 	.word	0x10005bd0
100043e8:	20008400 	.word	0x20008400

100043ec <time_us_64>:
100043ec:	4b03      	ldr	r3, [pc, #12]	; (100043fc <time_us_64+0x10>)
100043ee:	6a59      	ldr	r1, [r3, #36]	; 0x24
100043f0:	000a      	movs	r2, r1
100043f2:	6a98      	ldr	r0, [r3, #40]	; 0x28
100043f4:	6a59      	ldr	r1, [r3, #36]	; 0x24
100043f6:	428a      	cmp	r2, r1
100043f8:	d1fa      	bne.n	100043f0 <time_us_64+0x4>
100043fa:	4770      	bx	lr
100043fc:	40054000 	.word	0x40054000

10004400 <hardware_alarm_set_callback>:
10004400:	b570      	push	{r4, r5, r6, lr}
10004402:	0004      	movs	r4, r0
10004404:	000d      	movs	r5, r1
10004406:	f3ef 8610 	mrs	r6, PRIMASK
1000440a:	b672      	cpsid	i
1000440c:	4a1a      	ldr	r2, [pc, #104]	; (10004478 <hardware_alarm_set_callback+0x78>)
1000440e:	6813      	ldr	r3, [r2, #0]
10004410:	2b00      	cmp	r3, #0
10004412:	d0fc      	beq.n	1000440e <hardware_alarm_set_callback+0xe>
10004414:	f3bf 8f5f 	dmb	sy
10004418:	2d00      	cmp	r5, #0
1000441a:	d01b      	beq.n	10004454 <hardware_alarm_set_callback+0x54>
1000441c:	0020      	movs	r0, r4
1000441e:	f000 fdaf 	bl	10004f80 <irq_get_vtable_handler>
10004422:	4916      	ldr	r1, [pc, #88]	; (1000447c <hardware_alarm_set_callback+0x7c>)
10004424:	4281      	cmp	r1, r0
10004426:	d00a      	beq.n	1000443e <hardware_alarm_set_callback+0x3e>
10004428:	0020      	movs	r0, r4
1000442a:	f000 fdb1 	bl	10004f90 <irq_set_exclusive_handler>
1000442e:	2101      	movs	r1, #1
10004430:	0020      	movs	r0, r4
10004432:	f000 fd93 	bl	10004f5c <irq_set_enabled>
10004436:	2301      	movs	r3, #1
10004438:	40a3      	lsls	r3, r4
1000443a:	4a11      	ldr	r2, [pc, #68]	; (10004480 <hardware_alarm_set_callback+0x80>)
1000443c:	6013      	str	r3, [r2, #0]
1000443e:	4b11      	ldr	r3, [pc, #68]	; (10004484 <hardware_alarm_set_callback+0x84>)
10004440:	00a4      	lsls	r4, r4, #2
10004442:	50e5      	str	r5, [r4, r3]
10004444:	f3bf 8f5f 	dmb	sy
10004448:	2200      	movs	r2, #0
1000444a:	4b0b      	ldr	r3, [pc, #44]	; (10004478 <hardware_alarm_set_callback+0x78>)
1000444c:	601a      	str	r2, [r3, #0]
1000444e:	f386 8810 	msr	PRIMASK, r6
10004452:	bd70      	pop	{r4, r5, r6, pc}
10004454:	4b0b      	ldr	r3, [pc, #44]	; (10004484 <hardware_alarm_set_callback+0x84>)
10004456:	00a2      	lsls	r2, r4, #2
10004458:	50d5      	str	r5, [r2, r3]
1000445a:	2201      	movs	r2, #1
1000445c:	40a2      	lsls	r2, r4
1000445e:	490a      	ldr	r1, [pc, #40]	; (10004488 <hardware_alarm_set_callback+0x88>)
10004460:	0020      	movs	r0, r4
10004462:	780b      	ldrb	r3, [r1, #0]
10004464:	4393      	bics	r3, r2
10004466:	700b      	strb	r3, [r1, #0]
10004468:	4904      	ldr	r1, [pc, #16]	; (1000447c <hardware_alarm_set_callback+0x7c>)
1000446a:	f000 fdbb 	bl	10004fe4 <irq_remove_handler>
1000446e:	2100      	movs	r1, #0
10004470:	0020      	movs	r0, r4
10004472:	f000 fd73 	bl	10004f5c <irq_set_enabled>
10004476:	e7e5      	b.n	10004444 <hardware_alarm_set_callback+0x44>
10004478:	d0000128 	.word	0xd0000128
1000447c:	1000431d 	.word	0x1000431d
10004480:	40056038 	.word	0x40056038
10004484:	2000035c 	.word	0x2000035c
10004488:	20008402 	.word	0x20008402

1000448c <hardware_alarm_set_target>:
1000448c:	b5f0      	push	{r4, r5, r6, r7, lr}
1000448e:	46de      	mov	lr, fp
10004490:	4657      	mov	r7, sl
10004492:	464e      	mov	r6, r9
10004494:	4645      	mov	r5, r8
10004496:	b5e0      	push	{r5, r6, r7, lr}
10004498:	4c2f      	ldr	r4, [pc, #188]	; (10004558 <hardware_alarm_set_target+0xcc>)
1000449a:	b083      	sub	sp, #12
1000449c:	6a61      	ldr	r1, [r4, #36]	; 0x24
1000449e:	000d      	movs	r5, r1
100044a0:	6aa6      	ldr	r6, [r4, #40]	; 0x28
100044a2:	6a61      	ldr	r1, [r4, #36]	; 0x24
100044a4:	42a9      	cmp	r1, r5
100044a6:	d1fa      	bne.n	1000449e <hardware_alarm_set_target+0x12>
100044a8:	4694      	mov	ip, r2
100044aa:	001d      	movs	r5, r3
100044ac:	428b      	cmp	r3, r1
100044ae:	d80a      	bhi.n	100044c6 <hardware_alarm_set_target+0x3a>
100044b0:	d007      	beq.n	100044c2 <hardware_alarm_set_target+0x36>
100044b2:	2001      	movs	r0, #1
100044b4:	b003      	add	sp, #12
100044b6:	bc3c      	pop	{r2, r3, r4, r5}
100044b8:	4690      	mov	r8, r2
100044ba:	4699      	mov	r9, r3
100044bc:	46a2      	mov	sl, r4
100044be:	46ab      	mov	fp, r5
100044c0:	bdf0      	pop	{r4, r5, r6, r7, pc}
100044c2:	42b2      	cmp	r2, r6
100044c4:	d9f5      	bls.n	100044b2 <hardware_alarm_set_target+0x26>
100044c6:	f3ef 8910 	mrs	r9, PRIMASK
100044ca:	b672      	cpsid	i
100044cc:	4c23      	ldr	r4, [pc, #140]	; (1000455c <hardware_alarm_set_target+0xd0>)
100044ce:	6821      	ldr	r1, [r4, #0]
100044d0:	2900      	cmp	r1, #0
100044d2:	d0fc      	beq.n	100044ce <hardware_alarm_set_target+0x42>
100044d4:	f3bf 8f5f 	dmb	sy
100044d8:	2401      	movs	r4, #1
100044da:	4084      	lsls	r4, r0
100044dc:	b2e6      	uxtb	r6, r4
100044de:	46b0      	mov	r8, r6
100044e0:	491d      	ldr	r1, [pc, #116]	; (10004558 <hardware_alarm_set_target+0xcc>)
100044e2:	4e1f      	ldr	r6, [pc, #124]	; (10004560 <hardware_alarm_set_target+0xd4>)
100044e4:	634c      	str	r4, [r1, #52]	; 0x34
100044e6:	46b3      	mov	fp, r6
100044e8:	7836      	ldrb	r6, [r6, #0]
100044ea:	9601      	str	r6, [sp, #4]
100044ec:	4646      	mov	r6, r8
100044ee:	9f01      	ldr	r7, [sp, #4]
100044f0:	433e      	orrs	r6, r7
100044f2:	465f      	mov	r7, fp
100044f4:	703e      	strb	r6, [r7, #0]
100044f6:	1d06      	adds	r6, r0, #4
100044f8:	00b6      	lsls	r6, r6, #2
100044fa:	5072      	str	r2, [r6, r1]
100044fc:	4a19      	ldr	r2, [pc, #100]	; (10004564 <hardware_alarm_set_target+0xd8>)
100044fe:	0080      	lsls	r0, r0, #2
10004500:	5083      	str	r3, [r0, r2]
10004502:	6a0b      	ldr	r3, [r1, #32]
10004504:	2000      	movs	r0, #0
10004506:	4223      	tst	r3, r4
10004508:	d00c      	beq.n	10004524 <hardware_alarm_set_target+0x98>
1000450a:	000a      	movs	r2, r1
1000450c:	6a4b      	ldr	r3, [r1, #36]	; 0x24
1000450e:	0019      	movs	r1, r3
10004510:	6a90      	ldr	r0, [r2, #40]	; 0x28
10004512:	6a53      	ldr	r3, [r2, #36]	; 0x24
10004514:	428b      	cmp	r3, r1
10004516:	d1fa      	bne.n	1000450e <hardware_alarm_set_target+0x82>
10004518:	429d      	cmp	r5, r3
1000451a:	d802      	bhi.n	10004522 <hardware_alarm_set_target+0x96>
1000451c:	d10a      	bne.n	10004534 <hardware_alarm_set_target+0xa8>
1000451e:	4584      	cmp	ip, r0
10004520:	d908      	bls.n	10004534 <hardware_alarm_set_target+0xa8>
10004522:	2000      	movs	r0, #0
10004524:	f3bf 8f5f 	dmb	sy
10004528:	2200      	movs	r2, #0
1000452a:	4b0c      	ldr	r3, [pc, #48]	; (1000455c <hardware_alarm_set_target+0xd0>)
1000452c:	601a      	str	r2, [r3, #0]
1000452e:	f389 8810 	msr	PRIMASK, r9
10004532:	e7bf      	b.n	100044b4 <hardware_alarm_set_target+0x28>
10004534:	4b08      	ldr	r3, [pc, #32]	; (10004558 <hardware_alarm_set_target+0xcc>)
10004536:	9f01      	ldr	r7, [sp, #4]
10004538:	621c      	str	r4, [r3, #32]
1000453a:	635c      	str	r4, [r3, #52]	; 0x34
1000453c:	4643      	mov	r3, r8
1000453e:	439f      	bics	r7, r3
10004540:	465b      	mov	r3, fp
10004542:	2001      	movs	r0, #1
10004544:	701f      	strb	r7, [r3, #0]
10004546:	f3bf 8f5f 	dmb	sy
1000454a:	2200      	movs	r2, #0
1000454c:	4b03      	ldr	r3, [pc, #12]	; (1000455c <hardware_alarm_set_target+0xd0>)
1000454e:	601a      	str	r2, [r3, #0]
10004550:	f389 8810 	msr	PRIMASK, r9
10004554:	e7ae      	b.n	100044b4 <hardware_alarm_set_target+0x28>
10004556:	46c0      	nop			; (mov r8, r8)
10004558:	40054000 	.word	0x40054000
1000455c:	d0000128 	.word	0xd0000128
10004560:	20008402 	.word	0x20008402
10004564:	200083f0 	.word	0x200083f0

10004568 <hardware_alarm_cancel>:
10004568:	b510      	push	{r4, lr}
1000456a:	f3ef 8410 	mrs	r4, PRIMASK
1000456e:	b672      	cpsid	i
10004570:	490a      	ldr	r1, [pc, #40]	; (1000459c <hardware_alarm_cancel+0x34>)
10004572:	680b      	ldr	r3, [r1, #0]
10004574:	2b00      	cmp	r3, #0
10004576:	d0fc      	beq.n	10004572 <hardware_alarm_cancel+0xa>
10004578:	f3bf 8f5f 	dmb	sy
1000457c:	2301      	movs	r3, #1
1000457e:	4083      	lsls	r3, r0
10004580:	4a07      	ldr	r2, [pc, #28]	; (100045a0 <hardware_alarm_cancel+0x38>)
10004582:	4808      	ldr	r0, [pc, #32]	; (100045a4 <hardware_alarm_cancel+0x3c>)
10004584:	6213      	str	r3, [r2, #32]
10004586:	7802      	ldrb	r2, [r0, #0]
10004588:	439a      	bics	r2, r3
1000458a:	7002      	strb	r2, [r0, #0]
1000458c:	f3bf 8f5f 	dmb	sy
10004590:	2300      	movs	r3, #0
10004592:	600b      	str	r3, [r1, #0]
10004594:	f384 8810 	msr	PRIMASK, r4
10004598:	bd10      	pop	{r4, pc}
1000459a:	46c0      	nop			; (mov r8, r8)
1000459c:	d0000128 	.word	0xd0000128
100045a0:	40054000 	.word	0x40054000
100045a4:	20008402 	.word	0x20008402

100045a8 <lock_init>:
100045a8:	4b02      	ldr	r3, [pc, #8]	; (100045b4 <lock_init+0xc>)
100045aa:	469c      	mov	ip, r3
100045ac:	4461      	add	r1, ip
100045ae:	0089      	lsls	r1, r1, #2
100045b0:	6001      	str	r1, [r0, #0]
100045b2:	4770      	bx	lr
100045b4:	34000040 	.word	0x34000040

100045b8 <mutex_init>:
100045b8:	b510      	push	{r4, lr}
100045ba:	0004      	movs	r4, r0
100045bc:	f7ff fcf8 	bl	10003fb0 <next_striped_spin_lock_num>
100045c0:	0001      	movs	r1, r0
100045c2:	0020      	movs	r0, r4
100045c4:	f7ff fff0 	bl	100045a8 <lock_init>
100045c8:	23ff      	movs	r3, #255	; 0xff
100045ca:	7123      	strb	r3, [r4, #4]
100045cc:	f3bf 8f5f 	dmb	sy
100045d0:	bd10      	pop	{r4, pc}
100045d2:	46c0      	nop			; (mov r8, r8)

100045d4 <ph_merge_nodes>:
100045d4:	b570      	push	{r4, r5, r6, lr}
100045d6:	0005      	movs	r5, r0
100045d8:	000e      	movs	r6, r1
100045da:	0014      	movs	r4, r2
100045dc:	2900      	cmp	r1, #0
100045de:	d024      	beq.n	1000462a <ph_merge_nodes+0x56>
100045e0:	2a00      	cmp	r2, #0
100045e2:	d024      	beq.n	1000462e <ph_merge_nodes+0x5a>
100045e4:	6880      	ldr	r0, [r0, #8]
100045e6:	686b      	ldr	r3, [r5, #4]
100045e8:	4798      	blx	r3
100045ea:	6829      	ldr	r1, [r5, #0]
100045ec:	2800      	cmp	r0, #0
100045ee:	d00e      	beq.n	1000460e <ph_merge_nodes+0x3a>
100045f0:	0063      	lsls	r3, r4, #1
100045f2:	191b      	adds	r3, r3, r4
100045f4:	0072      	lsls	r2, r6, #1
100045f6:	3b03      	subs	r3, #3
100045f8:	1992      	adds	r2, r2, r6
100045fa:	18cb      	adds	r3, r1, r3
100045fc:	3a03      	subs	r2, #3
100045fe:	709e      	strb	r6, [r3, #2]
10004600:	1888      	adds	r0, r1, r2
10004602:	5c8a      	ldrb	r2, [r1, r2]
10004604:	2a00      	cmp	r2, #0
10004606:	d114      	bne.n	10004632 <ph_merge_nodes+0x5e>
10004608:	7004      	strb	r4, [r0, #0]
1000460a:	0030      	movs	r0, r6
1000460c:	e00e      	b.n	1000462c <ph_merge_nodes+0x58>
1000460e:	0073      	lsls	r3, r6, #1
10004610:	199b      	adds	r3, r3, r6
10004612:	0062      	lsls	r2, r4, #1
10004614:	3b03      	subs	r3, #3
10004616:	1912      	adds	r2, r2, r4
10004618:	18cb      	adds	r3, r1, r3
1000461a:	3a03      	subs	r2, #3
1000461c:	709c      	strb	r4, [r3, #2]
1000461e:	1888      	adds	r0, r1, r2
10004620:	5c8a      	ldrb	r2, [r1, r2]
10004622:	2a00      	cmp	r2, #0
10004624:	d000      	beq.n	10004628 <ph_merge_nodes+0x54>
10004626:	705a      	strb	r2, [r3, #1]
10004628:	7006      	strb	r6, [r0, #0]
1000462a:	0020      	movs	r0, r4
1000462c:	bd70      	pop	{r4, r5, r6, pc}
1000462e:	0008      	movs	r0, r1
10004630:	e7fc      	b.n	1000462c <ph_merge_nodes+0x58>
10004632:	705a      	strb	r2, [r3, #1]
10004634:	7004      	strb	r4, [r0, #0]
10004636:	0030      	movs	r0, r6
10004638:	e7f8      	b.n	1000462c <ph_merge_nodes+0x58>
1000463a:	46c0      	nop			; (mov r8, r8)

1000463c <ph_post_alloc_init>:
1000463c:	b530      	push	{r4, r5, lr}
1000463e:	6083      	str	r3, [r0, #8]
10004640:	2300      	movs	r3, #0
10004642:	b2cc      	uxtb	r4, r1
10004644:	7343      	strb	r3, [r0, #13]
10004646:	3301      	adds	r3, #1
10004648:	7304      	strb	r4, [r0, #12]
1000464a:	6042      	str	r2, [r0, #4]
1000464c:	7383      	strb	r3, [r0, #14]
1000464e:	73c4      	strb	r4, [r0, #15]
10004650:	000d      	movs	r5, r1
10004652:	6800      	ldr	r0, [r0, #0]
10004654:	2c01      	cmp	r4, #1
10004656:	d906      	bls.n	10004666 <ph_post_alloc_init+0x2a>
10004658:	1c42      	adds	r2, r0, #1
1000465a:	3301      	adds	r3, #1
1000465c:	b2db      	uxtb	r3, r3
1000465e:	7013      	strb	r3, [r2, #0]
10004660:	3203      	adds	r2, #3
10004662:	429c      	cmp	r4, r3
10004664:	d1f9      	bne.n	1000465a <ph_post_alloc_init+0x1e>
10004666:	21ff      	movs	r1, #255	; 0xff
10004668:	4029      	ands	r1, r5
1000466a:	004b      	lsls	r3, r1, #1
1000466c:	1859      	adds	r1, r3, r1
1000466e:	2300      	movs	r3, #0
10004670:	1840      	adds	r0, r0, r1
10004672:	3803      	subs	r0, #3
10004674:	7043      	strb	r3, [r0, #1]
10004676:	bd30      	pop	{r4, r5, pc}

10004678 <ph_merge_two_pass>:
10004678:	b5f8      	push	{r3, r4, r5, r6, r7, lr}
1000467a:	46ce      	mov	lr, r9
1000467c:	4647      	mov	r7, r8
1000467e:	0006      	movs	r6, r0
10004680:	000c      	movs	r4, r1
10004682:	b580      	push	{r7, lr}
10004684:	2900      	cmp	r1, #0
10004686:	d007      	beq.n	10004698 <ph_merge_two_pass+0x20>
10004688:	004d      	lsls	r5, r1, #1
1000468a:	6803      	ldr	r3, [r0, #0]
1000468c:	186d      	adds	r5, r5, r1
1000468e:	3d03      	subs	r5, #3
10004690:	195a      	adds	r2, r3, r5
10004692:	7857      	ldrb	r7, [r2, #1]
10004694:	2f00      	cmp	r7, #0
10004696:	d104      	bne.n	100046a2 <ph_merge_two_pass+0x2a>
10004698:	0020      	movs	r0, r4
1000469a:	bc0c      	pop	{r2, r3}
1000469c:	4690      	mov	r8, r2
1000469e:	4699      	mov	r9, r3
100046a0:	bdf8      	pop	{r3, r4, r5, r6, r7, pc}
100046a2:	0079      	lsls	r1, r7, #1
100046a4:	19c9      	adds	r1, r1, r7
100046a6:	3903      	subs	r1, #3
100046a8:	4688      	mov	r8, r1
100046aa:	4443      	add	r3, r8
100046ac:	7859      	ldrb	r1, [r3, #1]
100046ae:	4689      	mov	r9, r1
100046b0:	2100      	movs	r1, #0
100046b2:	7059      	strb	r1, [r3, #1]
100046b4:	7051      	strb	r1, [r2, #1]
100046b6:	6873      	ldr	r3, [r6, #4]
100046b8:	003a      	movs	r2, r7
100046ba:	0021      	movs	r1, r4
100046bc:	6880      	ldr	r0, [r0, #8]
100046be:	4798      	blx	r3
100046c0:	6833      	ldr	r3, [r6, #0]
100046c2:	2800      	cmp	r0, #0
100046c4:	d014      	beq.n	100046f0 <ph_merge_two_pass+0x78>
100046c6:	4642      	mov	r2, r8
100046c8:	189a      	adds	r2, r3, r2
100046ca:	7094      	strb	r4, [r2, #2]
100046cc:	1959      	adds	r1, r3, r5
100046ce:	5d5b      	ldrb	r3, [r3, r5]
100046d0:	2b00      	cmp	r3, #0
100046d2:	d000      	beq.n	100046d6 <ph_merge_two_pass+0x5e>
100046d4:	7053      	strb	r3, [r2, #1]
100046d6:	700f      	strb	r7, [r1, #0]
100046d8:	0027      	movs	r7, r4
100046da:	4649      	mov	r1, r9
100046dc:	0030      	movs	r0, r6
100046de:	f7ff ffcb 	bl	10004678 <ph_merge_two_pass>
100046e2:	0039      	movs	r1, r7
100046e4:	0002      	movs	r2, r0
100046e6:	0030      	movs	r0, r6
100046e8:	f7ff ff74 	bl	100045d4 <ph_merge_nodes>
100046ec:	0004      	movs	r4, r0
100046ee:	e7d3      	b.n	10004698 <ph_merge_two_pass+0x20>
100046f0:	4642      	mov	r2, r8
100046f2:	4641      	mov	r1, r8
100046f4:	195d      	adds	r5, r3, r5
100046f6:	70af      	strb	r7, [r5, #2]
100046f8:	189a      	adds	r2, r3, r2
100046fa:	5c5b      	ldrb	r3, [r3, r1]
100046fc:	2b00      	cmp	r3, #0
100046fe:	d000      	beq.n	10004702 <ph_merge_two_pass+0x8a>
10004700:	706b      	strb	r3, [r5, #1]
10004702:	7014      	strb	r4, [r2, #0]
10004704:	e7e9      	b.n	100046da <ph_merge_two_pass+0x62>
10004706:	46c0      	nop			; (mov r8, r8)

10004708 <ph_remove_any_head>:
10004708:	b5f0      	push	{r4, r5, r6, r7, lr}
1000470a:	4657      	mov	r7, sl
1000470c:	4645      	mov	r5, r8
1000470e:	46de      	mov	lr, fp
10004710:	464e      	mov	r6, r9
10004712:	b5e0      	push	{r5, r6, r7, lr}
10004714:	000d      	movs	r5, r1
10004716:	006b      	lsls	r3, r5, #1
10004718:	6801      	ldr	r1, [r0, #0]
1000471a:	195b      	adds	r3, r3, r5
1000471c:	1edf      	subs	r7, r3, #3
1000471e:	0004      	movs	r4, r0
10004720:	5dc8      	ldrb	r0, [r1, r7]
10004722:	b083      	sub	sp, #12
10004724:	9201      	str	r2, [sp, #4]
10004726:	19ca      	adds	r2, r1, r7
10004728:	2800      	cmp	r0, #0
1000472a:	d04c      	beq.n	100047c6 <ph_remove_any_head+0xbe>
1000472c:	0043      	lsls	r3, r0, #1
1000472e:	181b      	adds	r3, r3, r0
10004730:	3b03      	subs	r3, #3
10004732:	18cb      	adds	r3, r1, r3
10004734:	785e      	ldrb	r6, [r3, #1]
10004736:	46b4      	mov	ip, r6
10004738:	2e00      	cmp	r6, #0
1000473a:	d116      	bne.n	1000476a <ph_remove_any_head+0x62>
1000473c:	9e01      	ldr	r6, [sp, #4]
1000473e:	2e00      	cmp	r6, #0
10004740:	d03e      	beq.n	100047c0 <ph_remove_any_head+0xb8>
10004742:	7be6      	ldrb	r6, [r4, #15]
10004744:	2e00      	cmp	r6, #0
10004746:	d004      	beq.n	10004752 <ph_remove_any_head+0x4a>
10004748:	0073      	lsls	r3, r6, #1
1000474a:	199b      	adds	r3, r3, r6
1000474c:	18cb      	adds	r3, r1, r3
1000474e:	3b03      	subs	r3, #3
10004750:	705d      	strb	r5, [r3, #1]
10004752:	73e5      	strb	r5, [r4, #15]
10004754:	2800      	cmp	r0, #0
10004756:	d12f      	bne.n	100047b8 <ph_remove_any_head+0xb0>
10004758:	2300      	movs	r3, #0
1000475a:	7053      	strb	r3, [r2, #1]
1000475c:	b003      	add	sp, #12
1000475e:	bc3c      	pop	{r2, r3, r4, r5}
10004760:	4690      	mov	r8, r2
10004762:	4699      	mov	r9, r3
10004764:	46a2      	mov	sl, r4
10004766:	46ab      	mov	fp, r5
10004768:	bdf0      	pop	{r4, r5, r6, r7, pc}
1000476a:	0072      	lsls	r2, r6, #1
1000476c:	4462      	add	r2, ip
1000476e:	3a03      	subs	r2, #3
10004770:	1889      	adds	r1, r1, r2
10004772:	784a      	ldrb	r2, [r1, #1]
10004774:	4690      	mov	r8, r2
10004776:	2200      	movs	r2, #0
10004778:	704a      	strb	r2, [r1, #1]
1000477a:	4691      	mov	r9, r2
1000477c:	705a      	strb	r2, [r3, #1]
1000477e:	0001      	movs	r1, r0
10004780:	0032      	movs	r2, r6
10004782:	0020      	movs	r0, r4
10004784:	f7ff ff26 	bl	100045d4 <ph_merge_nodes>
10004788:	4643      	mov	r3, r8
1000478a:	4682      	mov	sl, r0
1000478c:	2b00      	cmp	r3, #0
1000478e:	d007      	beq.n	100047a0 <ph_remove_any_head+0x98>
10004790:	005b      	lsls	r3, r3, #1
10004792:	6821      	ldr	r1, [r4, #0]
10004794:	4443      	add	r3, r8
10004796:	3b03      	subs	r3, #3
10004798:	18cb      	adds	r3, r1, r3
1000479a:	785a      	ldrb	r2, [r3, #1]
1000479c:	2a00      	cmp	r2, #0
1000479e:	d116      	bne.n	100047ce <ph_remove_any_head+0xc6>
100047a0:	4642      	mov	r2, r8
100047a2:	4651      	mov	r1, sl
100047a4:	0020      	movs	r0, r4
100047a6:	f7ff ff15 	bl	100045d4 <ph_merge_nodes>
100047aa:	6821      	ldr	r1, [r4, #0]
100047ac:	9b01      	ldr	r3, [sp, #4]
100047ae:	19ca      	adds	r2, r1, r7
100047b0:	2b00      	cmp	r3, #0
100047b2:	d1c6      	bne.n	10004742 <ph_remove_any_head+0x3a>
100047b4:	2800      	cmp	r0, #0
100047b6:	d0cf      	beq.n	10004758 <ph_remove_any_head+0x50>
100047b8:	0043      	lsls	r3, r0, #1
100047ba:	181b      	adds	r3, r3, r0
100047bc:	3b03      	subs	r3, #3
100047be:	18cb      	adds	r3, r1, r3
100047c0:	2100      	movs	r1, #0
100047c2:	7099      	strb	r1, [r3, #2]
100047c4:	e7c8      	b.n	10004758 <ph_remove_any_head+0x50>
100047c6:	9b01      	ldr	r3, [sp, #4]
100047c8:	2b00      	cmp	r3, #0
100047ca:	d1ba      	bne.n	10004742 <ph_remove_any_head+0x3a>
100047cc:	e7c4      	b.n	10004758 <ph_remove_any_head+0x50>
100047ce:	0050      	lsls	r0, r2, #1
100047d0:	1880      	adds	r0, r0, r2
100047d2:	3803      	subs	r0, #3
100047d4:	1809      	adds	r1, r1, r0
100047d6:	7848      	ldrb	r0, [r1, #1]
100047d8:	4683      	mov	fp, r0
100047da:	4648      	mov	r0, r9
100047dc:	7048      	strb	r0, [r1, #1]
100047de:	7058      	strb	r0, [r3, #1]
100047e0:	4641      	mov	r1, r8
100047e2:	0020      	movs	r0, r4
100047e4:	f7ff fef6 	bl	100045d4 <ph_merge_nodes>
100047e8:	4659      	mov	r1, fp
100047ea:	4680      	mov	r8, r0
100047ec:	0020      	movs	r0, r4
100047ee:	f7ff ff43 	bl	10004678 <ph_merge_two_pass>
100047f2:	4641      	mov	r1, r8
100047f4:	0002      	movs	r2, r0
100047f6:	0020      	movs	r0, r4
100047f8:	f7ff feec 	bl	100045d4 <ph_merge_nodes>
100047fc:	4680      	mov	r8, r0
100047fe:	e7cf      	b.n	100047a0 <ph_remove_any_head+0x98>

10004800 <ph_remove_head>:
10004800:	b5f0      	push	{r4, r5, r6, r7, lr}
10004802:	464e      	mov	r6, r9
10004804:	4645      	mov	r5, r8
10004806:	46de      	mov	lr, fp
10004808:	4657      	mov	r7, sl
1000480a:	b5e0      	push	{r5, r6, r7, lr}
1000480c:	7b46      	ldrb	r6, [r0, #13]
1000480e:	0004      	movs	r4, r0
10004810:	0075      	lsls	r5, r6, #1
10004812:	6800      	ldr	r0, [r0, #0]
10004814:	19ad      	adds	r5, r5, r6
10004816:	3d03      	subs	r5, #3
10004818:	b083      	sub	sp, #12
1000481a:	9101      	str	r1, [sp, #4]
1000481c:	5d41      	ldrb	r1, [r0, r5]
1000481e:	1942      	adds	r2, r0, r5
10004820:	2900      	cmp	r1, #0
10004822:	d04e      	beq.n	100048c2 <ph_remove_head+0xc2>
10004824:	004b      	lsls	r3, r1, #1
10004826:	185b      	adds	r3, r3, r1
10004828:	3b03      	subs	r3, #3
1000482a:	18c3      	adds	r3, r0, r3
1000482c:	785f      	ldrb	r7, [r3, #1]
1000482e:	46bc      	mov	ip, r7
10004830:	2f00      	cmp	r7, #0
10004832:	d118      	bne.n	10004866 <ph_remove_head+0x66>
10004834:	9d01      	ldr	r5, [sp, #4]
10004836:	2d00      	cmp	r5, #0
10004838:	d040      	beq.n	100048bc <ph_remove_head+0xbc>
1000483a:	7be5      	ldrb	r5, [r4, #15]
1000483c:	2d00      	cmp	r5, #0
1000483e:	d004      	beq.n	1000484a <ph_remove_head+0x4a>
10004840:	006b      	lsls	r3, r5, #1
10004842:	195b      	adds	r3, r3, r5
10004844:	18c3      	adds	r3, r0, r3
10004846:	3b03      	subs	r3, #3
10004848:	705e      	strb	r6, [r3, #1]
1000484a:	73e6      	strb	r6, [r4, #15]
1000484c:	2900      	cmp	r1, #0
1000484e:	d131      	bne.n	100048b4 <ph_remove_head+0xb4>
10004850:	2300      	movs	r3, #0
10004852:	0030      	movs	r0, r6
10004854:	7053      	strb	r3, [r2, #1]
10004856:	7361      	strb	r1, [r4, #13]
10004858:	b003      	add	sp, #12
1000485a:	bc3c      	pop	{r2, r3, r4, r5}
1000485c:	4690      	mov	r8, r2
1000485e:	4699      	mov	r9, r3
10004860:	46a2      	mov	sl, r4
10004862:	46ab      	mov	fp, r5
10004864:	bdf0      	pop	{r4, r5, r6, r7, pc}
10004866:	007a      	lsls	r2, r7, #1
10004868:	4462      	add	r2, ip
1000486a:	3a03      	subs	r2, #3
1000486c:	1880      	adds	r0, r0, r2
1000486e:	7842      	ldrb	r2, [r0, #1]
10004870:	4693      	mov	fp, r2
10004872:	2200      	movs	r2, #0
10004874:	7042      	strb	r2, [r0, #1]
10004876:	4691      	mov	r9, r2
10004878:	705a      	strb	r2, [r3, #1]
1000487a:	0020      	movs	r0, r4
1000487c:	003a      	movs	r2, r7
1000487e:	f7ff fea9 	bl	100045d4 <ph_merge_nodes>
10004882:	465b      	mov	r3, fp
10004884:	4680      	mov	r8, r0
10004886:	2b00      	cmp	r3, #0
10004888:	d007      	beq.n	1000489a <ph_remove_head+0x9a>
1000488a:	005b      	lsls	r3, r3, #1
1000488c:	6821      	ldr	r1, [r4, #0]
1000488e:	445b      	add	r3, fp
10004890:	3b03      	subs	r3, #3
10004892:	18cb      	adds	r3, r1, r3
10004894:	785a      	ldrb	r2, [r3, #1]
10004896:	2a00      	cmp	r2, #0
10004898:	d117      	bne.n	100048ca <ph_remove_head+0xca>
1000489a:	465a      	mov	r2, fp
1000489c:	4641      	mov	r1, r8
1000489e:	0020      	movs	r0, r4
100048a0:	f7ff fe98 	bl	100045d4 <ph_merge_nodes>
100048a4:	9b01      	ldr	r3, [sp, #4]
100048a6:	0001      	movs	r1, r0
100048a8:	6820      	ldr	r0, [r4, #0]
100048aa:	1942      	adds	r2, r0, r5
100048ac:	2b00      	cmp	r3, #0
100048ae:	d1c4      	bne.n	1000483a <ph_remove_head+0x3a>
100048b0:	2900      	cmp	r1, #0
100048b2:	d0cd      	beq.n	10004850 <ph_remove_head+0x50>
100048b4:	004b      	lsls	r3, r1, #1
100048b6:	185b      	adds	r3, r3, r1
100048b8:	3b03      	subs	r3, #3
100048ba:	18c3      	adds	r3, r0, r3
100048bc:	2000      	movs	r0, #0
100048be:	7098      	strb	r0, [r3, #2]
100048c0:	e7c6      	b.n	10004850 <ph_remove_head+0x50>
100048c2:	9b01      	ldr	r3, [sp, #4]
100048c4:	2b00      	cmp	r3, #0
100048c6:	d1b8      	bne.n	1000483a <ph_remove_head+0x3a>
100048c8:	e7c2      	b.n	10004850 <ph_remove_head+0x50>
100048ca:	0050      	lsls	r0, r2, #1
100048cc:	1880      	adds	r0, r0, r2
100048ce:	3803      	subs	r0, #3
100048d0:	1809      	adds	r1, r1, r0
100048d2:	7848      	ldrb	r0, [r1, #1]
100048d4:	4682      	mov	sl, r0
100048d6:	4648      	mov	r0, r9
100048d8:	7048      	strb	r0, [r1, #1]
100048da:	7058      	strb	r0, [r3, #1]
100048dc:	4659      	mov	r1, fp
100048de:	0020      	movs	r0, r4
100048e0:	f7ff fe78 	bl	100045d4 <ph_merge_nodes>
100048e4:	4653      	mov	r3, sl
100048e6:	4683      	mov	fp, r0
100048e8:	2b00      	cmp	r3, #0
100048ea:	d007      	beq.n	100048fc <ph_remove_head+0xfc>
100048ec:	005b      	lsls	r3, r3, #1
100048ee:	6821      	ldr	r1, [r4, #0]
100048f0:	4453      	add	r3, sl
100048f2:	3b03      	subs	r3, #3
100048f4:	18cb      	adds	r3, r1, r3
100048f6:	785a      	ldrb	r2, [r3, #1]
100048f8:	2a00      	cmp	r2, #0
100048fa:	d106      	bne.n	1000490a <ph_remove_head+0x10a>
100048fc:	4659      	mov	r1, fp
100048fe:	4652      	mov	r2, sl
10004900:	0020      	movs	r0, r4
10004902:	f7ff fe67 	bl	100045d4 <ph_merge_nodes>
10004906:	4683      	mov	fp, r0
10004908:	e7c7      	b.n	1000489a <ph_remove_head+0x9a>
1000490a:	0050      	lsls	r0, r2, #1
1000490c:	1880      	adds	r0, r0, r2
1000490e:	3803      	subs	r0, #3
10004910:	1809      	adds	r1, r1, r0
10004912:	4648      	mov	r0, r9
10004914:	784f      	ldrb	r7, [r1, #1]
10004916:	7048      	strb	r0, [r1, #1]
10004918:	7058      	strb	r0, [r3, #1]
1000491a:	4651      	mov	r1, sl
1000491c:	0020      	movs	r0, r4
1000491e:	f7ff fe59 	bl	100045d4 <ph_merge_nodes>
10004922:	0039      	movs	r1, r7
10004924:	4681      	mov	r9, r0
10004926:	0020      	movs	r0, r4
10004928:	f7ff fea6 	bl	10004678 <ph_merge_two_pass>
1000492c:	4649      	mov	r1, r9
1000492e:	0002      	movs	r2, r0
10004930:	0020      	movs	r0, r4
10004932:	f7ff fe4f 	bl	100045d4 <ph_merge_nodes>
10004936:	4682      	mov	sl, r0
10004938:	e7e0      	b.n	100048fc <ph_remove_head+0xfc>
1000493a:	46c0      	nop			; (mov r8, r8)

1000493c <ph_remove_and_free_node>:
1000493c:	b570      	push	{r4, r5, r6, lr}
1000493e:	0004      	movs	r4, r0
10004940:	2900      	cmp	r1, #0
10004942:	d02c      	beq.n	1000499e <ph_remove_and_free_node+0x62>
10004944:	7b43      	ldrb	r3, [r0, #13]
10004946:	428b      	cmp	r3, r1
10004948:	d02e      	beq.n	100049a8 <ph_remove_and_free_node+0x6c>
1000494a:	6805      	ldr	r5, [r0, #0]
1000494c:	0048      	lsls	r0, r1, #1
1000494e:	1840      	adds	r0, r0, r1
10004950:	3803      	subs	r0, #3
10004952:	1828      	adds	r0, r5, r0
10004954:	7882      	ldrb	r2, [r0, #2]
10004956:	2a00      	cmp	r2, #0
10004958:	d021      	beq.n	1000499e <ph_remove_and_free_node+0x62>
1000495a:	0053      	lsls	r3, r2, #1
1000495c:	189b      	adds	r3, r3, r2
1000495e:	3b03      	subs	r3, #3
10004960:	5cea      	ldrb	r2, [r5, r3]
10004962:	18ee      	adds	r6, r5, r3
10004964:	428a      	cmp	r2, r1
10004966:	d102      	bne.n	1000496e <ph_remove_and_free_node+0x32>
10004968:	e01b      	b.n	100049a2 <ph_remove_and_free_node+0x66>
1000496a:	2a00      	cmp	r2, #0
1000496c:	d008      	beq.n	10004980 <ph_remove_and_free_node+0x44>
1000496e:	0053      	lsls	r3, r2, #1
10004970:	189b      	adds	r3, r3, r2
10004972:	3b03      	subs	r3, #3
10004974:	18eb      	adds	r3, r5, r3
10004976:	785a      	ldrb	r2, [r3, #1]
10004978:	428a      	cmp	r2, r1
1000497a:	d1f6      	bne.n	1000496a <ph_remove_and_free_node+0x2e>
1000497c:	7842      	ldrb	r2, [r0, #1]
1000497e:	705a      	strb	r2, [r3, #1]
10004980:	2300      	movs	r3, #0
10004982:	2201      	movs	r2, #1
10004984:	7083      	strb	r3, [r0, #2]
10004986:	7043      	strb	r3, [r0, #1]
10004988:	0020      	movs	r0, r4
1000498a:	f7ff febd 	bl	10004708 <ph_remove_any_head>
1000498e:	7b61      	ldrb	r1, [r4, #13]
10004990:	0002      	movs	r2, r0
10004992:	0020      	movs	r0, r4
10004994:	f7ff fe1e 	bl	100045d4 <ph_merge_nodes>
10004998:	7360      	strb	r0, [r4, #13]
1000499a:	2001      	movs	r0, #1
1000499c:	e000      	b.n	100049a0 <ph_remove_and_free_node+0x64>
1000499e:	2000      	movs	r0, #0
100049a0:	bd70      	pop	{r4, r5, r6, pc}
100049a2:	7843      	ldrb	r3, [r0, #1]
100049a4:	7033      	strb	r3, [r6, #0]
100049a6:	e7eb      	b.n	10004980 <ph_remove_and_free_node+0x44>
100049a8:	2201      	movs	r2, #1
100049aa:	0019      	movs	r1, r3
100049ac:	f7ff feac 	bl	10004708 <ph_remove_any_head>
100049b0:	7360      	strb	r0, [r4, #13]
100049b2:	2001      	movs	r0, #1
100049b4:	e7f4      	b.n	100049a0 <ph_remove_and_free_node+0x64>
100049b6:	46c0      	nop			; (mov r8, r8)

100049b8 <runtime_init>:
100049b8:	4b2b      	ldr	r3, [pc, #172]	; (10004a68 <runtime_init+0xb0>)
100049ba:	4a2c      	ldr	r2, [pc, #176]	; (10004a6c <runtime_init+0xb4>)
100049bc:	b570      	push	{r4, r5, r6, lr}
100049be:	601a      	str	r2, [r3, #0]
100049c0:	4a2b      	ldr	r2, [pc, #172]	; (10004a70 <runtime_init+0xb8>)
100049c2:	4b2c      	ldr	r3, [pc, #176]	; (10004a74 <runtime_init+0xbc>)
100049c4:	492c      	ldr	r1, [pc, #176]	; (10004a78 <runtime_init+0xc0>)
100049c6:	601a      	str	r2, [r3, #0]
100049c8:	0010      	movs	r0, r2
100049ca:	688b      	ldr	r3, [r1, #8]
100049cc:	4398      	bics	r0, r3
100049ce:	d1fb      	bne.n	100049c8 <runtime_init+0x10>
100049d0:	4c2a      	ldr	r4, [pc, #168]	; (10004a7c <runtime_init+0xc4>)
100049d2:	4b2b      	ldr	r3, [pc, #172]	; (10004a80 <runtime_init+0xc8>)
100049d4:	429c      	cmp	r4, r3
100049d6:	d209      	bcs.n	100049ec <runtime_init+0x34>
100049d8:	3b01      	subs	r3, #1
100049da:	1b1d      	subs	r5, r3, r4
100049dc:	08ad      	lsrs	r5, r5, #2
100049de:	3501      	adds	r5, #1
100049e0:	00ad      	lsls	r5, r5, #2
100049e2:	192d      	adds	r5, r5, r4
100049e4:	cc08      	ldmia	r4!, {r3}
100049e6:	4798      	blx	r3
100049e8:	42ac      	cmp	r4, r5
100049ea:	d1fb      	bne.n	100049e4 <runtime_init+0x2c>
100049ec:	f000 f8f2 	bl	10004bd4 <clocks_init>
100049f0:	4a24      	ldr	r2, [pc, #144]	; (10004a84 <runtime_init+0xcc>)
100049f2:	4b20      	ldr	r3, [pc, #128]	; (10004a74 <runtime_init+0xbc>)
100049f4:	601a      	str	r2, [r3, #0]
100049f6:	4a20      	ldr	r2, [pc, #128]	; (10004a78 <runtime_init+0xc0>)
100049f8:	6893      	ldr	r3, [r2, #8]
100049fa:	01db      	lsls	r3, r3, #7
100049fc:	3380      	adds	r3, #128	; 0x80
100049fe:	d1fb      	bne.n	100049f8 <runtime_init+0x40>
10004a00:	2240      	movs	r2, #64	; 0x40
10004a02:	4b21      	ldr	r3, [pc, #132]	; (10004a88 <runtime_init+0xd0>)
10004a04:	4c21      	ldr	r4, [pc, #132]	; (10004a8c <runtime_init+0xd4>)
10004a06:	679a      	str	r2, [r3, #120]	; 0x78
10004a08:	675a      	str	r2, [r3, #116]	; 0x74
10004a0a:	671a      	str	r2, [r3, #112]	; 0x70
10004a0c:	66da      	str	r2, [r3, #108]	; 0x6c
10004a0e:	4b20      	ldr	r3, [pc, #128]	; (10004a90 <runtime_init+0xd8>)
10004a10:	429c      	cmp	r4, r3
10004a12:	d20b      	bcs.n	10004a2c <runtime_init+0x74>
10004a14:	3b01      	subs	r3, #1
10004a16:	1b1d      	subs	r5, r3, r4
10004a18:	08ed      	lsrs	r5, r5, #3
10004a1a:	3501      	adds	r5, #1
10004a1c:	00ed      	lsls	r5, r5, #3
10004a1e:	192d      	adds	r5, r5, r4
10004a20:	0020      	movs	r0, r4
10004a22:	3408      	adds	r4, #8
10004a24:	f7ff fdc8 	bl	100045b8 <mutex_init>
10004a28:	42ac      	cmp	r4, r5
10004a2a:	d1f9      	bne.n	10004a20 <runtime_init+0x68>
10004a2c:	4c19      	ldr	r4, [pc, #100]	; (10004a94 <runtime_init+0xdc>)
10004a2e:	4d1a      	ldr	r5, [pc, #104]	; (10004a98 <runtime_init+0xe0>)
10004a30:	68a1      	ldr	r1, [r4, #8]
10004a32:	22c0      	movs	r2, #192	; 0xc0
10004a34:	0028      	movs	r0, r5
10004a36:	f000 ff7d 	bl	10005934 <__wrap___aeabi_memcpy>
10004a3a:	60a5      	str	r5, [r4, #8]
10004a3c:	f7ff faaa 	bl	10003f94 <spin_locks_reset>
10004a40:	f000 fc08 	bl	10005254 <irq_init_priorities>
10004a44:	f7ff fc3e 	bl	100042c4 <alarm_pool_init_default>
10004a48:	4c14      	ldr	r4, [pc, #80]	; (10004a9c <runtime_init+0xe4>)
10004a4a:	4b15      	ldr	r3, [pc, #84]	; (10004aa0 <runtime_init+0xe8>)
10004a4c:	429c      	cmp	r4, r3
10004a4e:	d209      	bcs.n	10004a64 <runtime_init+0xac>
10004a50:	3b01      	subs	r3, #1
10004a52:	1b1d      	subs	r5, r3, r4
10004a54:	08ad      	lsrs	r5, r5, #2
10004a56:	3501      	adds	r5, #1
10004a58:	00ad      	lsls	r5, r5, #2
10004a5a:	192d      	adds	r5, r5, r4
10004a5c:	cc08      	ldmia	r4!, {r3}
10004a5e:	4798      	blx	r3
10004a60:	42a5      	cmp	r5, r4
10004a62:	d1fb      	bne.n	10004a5c <runtime_init+0xa4>
10004a64:	bd70      	pop	{r4, r5, r6, pc}
10004a66:	46c0      	nop			; (mov r8, r8)
10004a68:	4000e000 	.word	0x4000e000
10004a6c:	ffffcdbf 	.word	0xffffcdbf
10004a70:	003c7ffe 	.word	0x003c7ffe
10004a74:	4000f000 	.word	0x4000f000
10004a78:	4000c000 	.word	0x4000c000
10004a7c:	20000228 	.word	0x20000228
10004a80:	20000238 	.word	0x20000238
10004a84:	01ffffff 	.word	0x01ffffff
10004a88:	4001f000 	.word	0x4001f000
10004a8c:	20000220 	.word	0x20000220
10004a90:	20000228 	.word	0x20000228
10004a94:	e000ed00 	.word	0xe000ed00
10004a98:	20000000 	.word	0x20000000
10004a9c:	20000238 	.word	0x20000238
10004aa0:	2000023c 	.word	0x2000023c

10004aa4 <exit>:
10004aa4:	be00      	bkpt	0x0000
10004aa6:	e7fd      	b.n	10004aa4 <exit>

10004aa8 <panic>:
10004aa8:	b40f      	push	{r0, r1, r2, r3}
10004aaa:	b500      	push	{lr}
10004aac:	4808      	ldr	r0, [pc, #32]	; (10004ad0 <panic+0x28>)
10004aae:	b083      	sub	sp, #12
10004ab0:	f001 f816 	bl	10005ae0 <__wrap_puts>
10004ab4:	9b04      	ldr	r3, [sp, #16]
10004ab6:	2b00      	cmp	r3, #0
10004ab8:	d007      	beq.n	10004aca <panic+0x22>
10004aba:	a905      	add	r1, sp, #20
10004abc:	0018      	movs	r0, r3
10004abe:	9101      	str	r1, [sp, #4]
10004ac0:	f000 fbec 	bl	1000529c <weak_raw_vprintf>
10004ac4:	4803      	ldr	r0, [pc, #12]	; (10004ad4 <panic+0x2c>)
10004ac6:	f001 f80b 	bl	10005ae0 <__wrap_puts>
10004aca:	be00      	bkpt	0x0000
10004acc:	e7fd      	b.n	10004aca <panic+0x22>
10004ace:	46c0      	nop			; (mov r8, r8)
10004ad0:	10005bf4 	.word	0x10005bf4
10004ad4:	10005c04 	.word	0x10005c04

10004ad8 <hard_assertion_failure>:
10004ad8:	b510      	push	{r4, lr}
10004ada:	4801      	ldr	r0, [pc, #4]	; (10004ae0 <hard_assertion_failure+0x8>)
10004adc:	f7ff ffe4 	bl	10004aa8 <panic>
10004ae0:	10005c08 	.word	0x10005c08

10004ae4 <clock_configure>:
10004ae4:	b5f0      	push	{r4, r5, r6, r7, lr}
10004ae6:	464f      	mov	r7, r9
10004ae8:	4646      	mov	r6, r8
10004aea:	46d6      	mov	lr, sl
10004aec:	b5c0      	push	{r6, r7, lr}
10004aee:	0017      	movs	r7, r2
10004af0:	9a08      	ldr	r2, [sp, #32]
10004af2:	0005      	movs	r5, r0
10004af4:	4688      	mov	r8, r1
10004af6:	429a      	cmp	r2, r3
10004af8:	d865      	bhi.n	10004bc6 <clock_configure+0xe2>
10004afa:	0e19      	lsrs	r1, r3, #24
10004afc:	0218      	lsls	r0, r3, #8
10004afe:	2300      	movs	r3, #0
10004b00:	f000 fc60 	bl	100053c4 <__wrap___aeabi_uldivmod>
10004b04:	4b31      	ldr	r3, [pc, #196]	; (10004bcc <clock_configure+0xe8>)
10004b06:	006c      	lsls	r4, r5, #1
10004b08:	469c      	mov	ip, r3
10004b0a:	1964      	adds	r4, r4, r5
10004b0c:	00a4      	lsls	r4, r4, #2
10004b0e:	4464      	add	r4, ip
10004b10:	6863      	ldr	r3, [r4, #4]
10004b12:	4681      	mov	r9, r0
10004b14:	4298      	cmp	r0, r3
10004b16:	d900      	bls.n	10004b1a <clock_configure+0x36>
10004b18:	6060      	str	r0, [r4, #4]
10004b1a:	1f2b      	subs	r3, r5, #4
10004b1c:	b2db      	uxtb	r3, r3
10004b1e:	469a      	mov	sl, r3
10004b20:	2b01      	cmp	r3, #1
10004b22:	d92c      	bls.n	10004b7e <clock_configure+0x9a>
10004b24:	23c0      	movs	r3, #192	; 0xc0
10004b26:	2280      	movs	r2, #128	; 0x80
10004b28:	4e29      	ldr	r6, [pc, #164]	; (10004bd0 <clock_configure+0xec>)
10004b2a:	00ad      	lsls	r5, r5, #2
10004b2c:	019b      	lsls	r3, r3, #6
10004b2e:	5971      	ldr	r1, [r6, r5]
10004b30:	4323      	orrs	r3, r4
10004b32:	0112      	lsls	r2, r2, #4
10004b34:	601a      	str	r2, [r3, #0]
10004b36:	2900      	cmp	r1, #0
10004b38:	d005      	beq.n	10004b46 <clock_configure+0x62>
10004b3a:	6970      	ldr	r0, [r6, #20]
10004b3c:	f000 fbfc 	bl	10005338 <__wrap___aeabi_uidiv>
10004b40:	3001      	adds	r0, #1
10004b42:	3801      	subs	r0, #1
10004b44:	d1fd      	bne.n	10004b42 <clock_configure+0x5e>
10004b46:	6822      	ldr	r2, [r4, #0]
10004b48:	017f      	lsls	r7, r7, #5
10004b4a:	407a      	eors	r2, r7
10004b4c:	27e0      	movs	r7, #224	; 0xe0
10004b4e:	2380      	movs	r3, #128	; 0x80
10004b50:	4017      	ands	r7, r2
10004b52:	4652      	mov	r2, sl
10004b54:	015b      	lsls	r3, r3, #5
10004b56:	4323      	orrs	r3, r4
10004b58:	601f      	str	r7, [r3, #0]
10004b5a:	2a01      	cmp	r2, #1
10004b5c:	d926      	bls.n	10004bac <clock_configure+0xc8>
10004b5e:	2380      	movs	r3, #128	; 0x80
10004b60:	2280      	movs	r2, #128	; 0x80
10004b62:	019b      	lsls	r3, r3, #6
10004b64:	4323      	orrs	r3, r4
10004b66:	0112      	lsls	r2, r2, #4
10004b68:	601a      	str	r2, [r3, #0]
10004b6a:	464b      	mov	r3, r9
10004b6c:	2001      	movs	r0, #1
10004b6e:	6063      	str	r3, [r4, #4]
10004b70:	9b08      	ldr	r3, [sp, #32]
10004b72:	5173      	str	r3, [r6, r5]
10004b74:	bc1c      	pop	{r2, r3, r4}
10004b76:	4690      	mov	r8, r2
10004b78:	4699      	mov	r9, r3
10004b7a:	46a2      	mov	sl, r4
10004b7c:	bdf0      	pop	{r4, r5, r6, r7, pc}
10004b7e:	4643      	mov	r3, r8
10004b80:	2b01      	cmp	r3, #1
10004b82:	d1cf      	bne.n	10004b24 <clock_configure+0x40>
10004b84:	23c0      	movs	r3, #192	; 0xc0
10004b86:	2203      	movs	r2, #3
10004b88:	019b      	lsls	r3, r3, #6
10004b8a:	4323      	orrs	r3, r4
10004b8c:	601a      	str	r2, [r3, #0]
10004b8e:	3a02      	subs	r2, #2
10004b90:	68a3      	ldr	r3, [r4, #8]
10004b92:	421a      	tst	r2, r3
10004b94:	d0fc      	beq.n	10004b90 <clock_configure+0xac>
10004b96:	23e0      	movs	r3, #224	; 0xe0
10004b98:	6822      	ldr	r2, [r4, #0]
10004b9a:	017f      	lsls	r7, r7, #5
10004b9c:	4057      	eors	r7, r2
10004b9e:	401f      	ands	r7, r3
10004ba0:	2380      	movs	r3, #128	; 0x80
10004ba2:	015b      	lsls	r3, r3, #5
10004ba4:	4323      	orrs	r3, r4
10004ba6:	4e0a      	ldr	r6, [pc, #40]	; (10004bd0 <clock_configure+0xec>)
10004ba8:	601f      	str	r7, [r3, #0]
10004baa:	00ad      	lsls	r5, r5, #2
10004bac:	4642      	mov	r2, r8
10004bae:	6821      	ldr	r1, [r4, #0]
10004bb0:	4051      	eors	r1, r2
10004bb2:	2203      	movs	r2, #3
10004bb4:	400a      	ands	r2, r1
10004bb6:	601a      	str	r2, [r3, #0]
10004bb8:	2201      	movs	r2, #1
10004bba:	4643      	mov	r3, r8
10004bbc:	409a      	lsls	r2, r3
10004bbe:	68a3      	ldr	r3, [r4, #8]
10004bc0:	421a      	tst	r2, r3
10004bc2:	d0fc      	beq.n	10004bbe <clock_configure+0xda>
10004bc4:	e7cb      	b.n	10004b5e <clock_configure+0x7a>
10004bc6:	2000      	movs	r0, #0
10004bc8:	e7d4      	b.n	10004b74 <clock_configure+0x90>
10004bca:	46c0      	nop			; (mov r8, r8)
10004bcc:	40008000 	.word	0x40008000
10004bd0:	2000036c 	.word	0x2000036c

10004bd4 <clocks_init>:
10004bd4:	b530      	push	{r4, r5, lr}
10004bd6:	200c      	movs	r0, #12
10004bd8:	b083      	sub	sp, #12
10004bda:	f000 f96b 	bl	10004eb4 <watchdog_start_tick>
10004bde:	f7ff f9f3 	bl	10003fc8 <running_on_fpga>
10004be2:	2800      	cmp	r0, #0
10004be4:	d00e      	beq.n	10004c04 <clocks_init+0x30>
10004be6:	4b9a      	ldr	r3, [pc, #616]	; (10004e50 <clocks_init+0x27c>)
10004be8:	4a9a      	ldr	r2, [pc, #616]	; (10004e54 <clocks_init+0x280>)
10004bea:	601a      	str	r2, [r3, #0]
10004bec:	605a      	str	r2, [r3, #4]
10004bee:	609a      	str	r2, [r3, #8]
10004bf0:	60da      	str	r2, [r3, #12]
10004bf2:	611a      	str	r2, [r3, #16]
10004bf4:	615a      	str	r2, [r3, #20]
10004bf6:	619a      	str	r2, [r3, #24]
10004bf8:	61da      	str	r2, [r3, #28]
10004bfa:	621a      	str	r2, [r3, #32]
10004bfc:	4a96      	ldr	r2, [pc, #600]	; (10004e58 <clocks_init+0x284>)
10004bfe:	625a      	str	r2, [r3, #36]	; 0x24
10004c00:	b003      	add	sp, #12
10004c02:	bd30      	pop	{r4, r5, pc}
10004c04:	4c95      	ldr	r4, [pc, #596]	; (10004e5c <clocks_init+0x288>)
10004c06:	67a0      	str	r0, [r4, #120]	; 0x78
10004c08:	f000 f95c 	bl	10004ec4 <xosc_init>
10004c0c:	2201      	movs	r2, #1
10004c0e:	4b94      	ldr	r3, [pc, #592]	; (10004e60 <clocks_init+0x28c>)
10004c10:	601a      	str	r2, [r3, #0]
10004c12:	6c63      	ldr	r3, [r4, #68]	; 0x44
10004c14:	2b01      	cmp	r3, #1
10004c16:	d1fc      	bne.n	10004c12 <clocks_init+0x3e>
10004c18:	2203      	movs	r2, #3
10004c1a:	4b92      	ldr	r3, [pc, #584]	; (10004e64 <clocks_init+0x290>)
10004c1c:	601a      	str	r2, [r3, #0]
10004c1e:	4a8f      	ldr	r2, [pc, #572]	; (10004e5c <clocks_init+0x288>)
10004c20:	6b93      	ldr	r3, [r2, #56]	; 0x38
10004c22:	2b01      	cmp	r3, #1
10004c24:	d1fc      	bne.n	10004c20 <clocks_init+0x4c>
10004c26:	22c0      	movs	r2, #192	; 0xc0
10004c28:	4b8f      	ldr	r3, [pc, #572]	; (10004e68 <clocks_init+0x294>)
10004c2a:	0192      	lsls	r2, r2, #6
10004c2c:	601a      	str	r2, [r3, #0]
10004c2e:	4b8f      	ldr	r3, [pc, #572]	; (10004e6c <clocks_init+0x298>)
10004c30:	498f      	ldr	r1, [pc, #572]	; (10004e70 <clocks_init+0x29c>)
10004c32:	601a      	str	r2, [r3, #0]
10004c34:	0010      	movs	r0, r2
10004c36:	688b      	ldr	r3, [r1, #8]
10004c38:	4398      	bics	r0, r3
10004c3a:	1e03      	subs	r3, r0, #0
10004c3c:	d1fa      	bne.n	10004c34 <clocks_init+0x60>
10004c3e:	2402      	movs	r4, #2
10004c40:	2101      	movs	r1, #1
10004c42:	4a8c      	ldr	r2, [pc, #560]	; (10004e74 <clocks_init+0x2a0>)
10004c44:	488c      	ldr	r0, [pc, #560]	; (10004e78 <clocks_init+0x2a4>)
10004c46:	3306      	adds	r3, #6
10004c48:	9400      	str	r4, [sp, #0]
10004c4a:	f000 f94f 	bl	10004eec <pll_init>
10004c4e:	2305      	movs	r3, #5
10004c50:	4a8a      	ldr	r2, [pc, #552]	; (10004e7c <clocks_init+0x2a8>)
10004c52:	2101      	movs	r1, #1
10004c54:	488a      	ldr	r0, [pc, #552]	; (10004e80 <clocks_init+0x2ac>)
10004c56:	9400      	str	r4, [sp, #0]
10004c58:	f000 f948 	bl	10004eec <pll_init>
10004c5c:	4b89      	ldr	r3, [pc, #548]	; (10004e84 <clocks_init+0x2b0>)
10004c5e:	685a      	ldr	r2, [r3, #4]
10004c60:	2aff      	cmp	r2, #255	; 0xff
10004c62:	d802      	bhi.n	10004c6a <clocks_init+0x96>
10004c64:	2280      	movs	r2, #128	; 0x80
10004c66:	0052      	lsls	r2, r2, #1
10004c68:	605a      	str	r2, [r3, #4]
10004c6a:	2280      	movs	r2, #128	; 0x80
10004c6c:	4c78      	ldr	r4, [pc, #480]	; (10004e50 <clocks_init+0x27c>)
10004c6e:	4b7d      	ldr	r3, [pc, #500]	; (10004e64 <clocks_init+0x290>)
10004c70:	6921      	ldr	r1, [r4, #16]
10004c72:	0112      	lsls	r2, r2, #4
10004c74:	4d83      	ldr	r5, [pc, #524]	; (10004e84 <clocks_init+0x2b0>)
10004c76:	601a      	str	r2, [r3, #0]
10004c78:	2900      	cmp	r1, #0
10004c7a:	d005      	beq.n	10004c88 <clocks_init+0xb4>
10004c7c:	6960      	ldr	r0, [r4, #20]
10004c7e:	f000 fb5b 	bl	10005338 <__wrap___aeabi_uidiv>
10004c82:	3001      	adds	r0, #1
10004c84:	3801      	subs	r0, #1
10004c86:	d1fd      	bne.n	10004c84 <clocks_init+0xb0>
10004c88:	21e0      	movs	r1, #224	; 0xe0
10004c8a:	4b7e      	ldr	r3, [pc, #504]	; (10004e84 <clocks_init+0x2b0>)
10004c8c:	2002      	movs	r0, #2
10004c8e:	681a      	ldr	r2, [r3, #0]
10004c90:	4011      	ands	r1, r2
10004c92:	2280      	movs	r2, #128	; 0x80
10004c94:	0152      	lsls	r2, r2, #5
10004c96:	432a      	orrs	r2, r5
10004c98:	6011      	str	r1, [r2, #0]
10004c9a:	6819      	ldr	r1, [r3, #0]
10004c9c:	4048      	eors	r0, r1
10004c9e:	2103      	movs	r1, #3
10004ca0:	4001      	ands	r1, r0
10004ca2:	6011      	str	r1, [r2, #0]
10004ca4:	2104      	movs	r1, #4
10004ca6:	689a      	ldr	r2, [r3, #8]
10004ca8:	4211      	tst	r1, r2
10004caa:	d0fc      	beq.n	10004ca6 <clocks_init+0xd2>
10004cac:	2280      	movs	r2, #128	; 0x80
10004cae:	2180      	movs	r1, #128	; 0x80
10004cb0:	0192      	lsls	r2, r2, #6
10004cb2:	432a      	orrs	r2, r5
10004cb4:	0109      	lsls	r1, r1, #4
10004cb6:	6011      	str	r1, [r2, #0]
10004cb8:	2280      	movs	r2, #128	; 0x80
10004cba:	0052      	lsls	r2, r2, #1
10004cbc:	605a      	str	r2, [r3, #4]
10004cbe:	4b72      	ldr	r3, [pc, #456]	; (10004e88 <clocks_init+0x2b4>)
10004cc0:	6123      	str	r3, [r4, #16]
10004cc2:	4b72      	ldr	r3, [pc, #456]	; (10004e8c <clocks_init+0x2b8>)
10004cc4:	6859      	ldr	r1, [r3, #4]
10004cc6:	29ff      	cmp	r1, #255	; 0xff
10004cc8:	d800      	bhi.n	10004ccc <clocks_init+0xf8>
10004cca:	605a      	str	r2, [r3, #4]
10004ccc:	2203      	movs	r2, #3
10004cce:	486f      	ldr	r0, [pc, #444]	; (10004e8c <clocks_init+0x2b8>)
10004cd0:	4b63      	ldr	r3, [pc, #396]	; (10004e60 <clocks_init+0x28c>)
10004cd2:	2101      	movs	r1, #1
10004cd4:	601a      	str	r2, [r3, #0]
10004cd6:	0002      	movs	r2, r0
10004cd8:	6893      	ldr	r3, [r2, #8]
10004cda:	4219      	tst	r1, r3
10004cdc:	d0fc      	beq.n	10004cd8 <clocks_init+0x104>
10004cde:	25e0      	movs	r5, #224	; 0xe0
10004ce0:	6813      	ldr	r3, [r2, #0]
10004ce2:	401d      	ands	r5, r3
10004ce4:	2380      	movs	r3, #128	; 0x80
10004ce6:	015b      	lsls	r3, r3, #5
10004ce8:	4303      	orrs	r3, r0
10004cea:	601d      	str	r5, [r3, #0]
10004cec:	6812      	ldr	r2, [r2, #0]
10004cee:	404a      	eors	r2, r1
10004cf0:	2103      	movs	r1, #3
10004cf2:	4011      	ands	r1, r2
10004cf4:	6019      	str	r1, [r3, #0]
10004cf6:	2102      	movs	r1, #2
10004cf8:	4a64      	ldr	r2, [pc, #400]	; (10004e8c <clocks_init+0x2b8>)
10004cfa:	6893      	ldr	r3, [r2, #8]
10004cfc:	4219      	tst	r1, r3
10004cfe:	d0fc      	beq.n	10004cfa <clocks_init+0x126>
10004d00:	2380      	movs	r3, #128	; 0x80
10004d02:	2180      	movs	r1, #128	; 0x80
10004d04:	019b      	lsls	r3, r3, #6
10004d06:	4303      	orrs	r3, r0
10004d08:	0109      	lsls	r1, r1, #4
10004d0a:	6019      	str	r1, [r3, #0]
10004d0c:	2180      	movs	r1, #128	; 0x80
10004d0e:	4b60      	ldr	r3, [pc, #384]	; (10004e90 <clocks_init+0x2bc>)
10004d10:	0049      	lsls	r1, r1, #1
10004d12:	6051      	str	r1, [r2, #4]
10004d14:	6163      	str	r3, [r4, #20]
10004d16:	4b5f      	ldr	r3, [pc, #380]	; (10004e94 <clocks_init+0x2c0>)
10004d18:	685a      	ldr	r2, [r3, #4]
10004d1a:	2aff      	cmp	r2, #255	; 0xff
10004d1c:	d800      	bhi.n	10004d20 <clocks_init+0x14c>
10004d1e:	6059      	str	r1, [r3, #4]
10004d20:	2280      	movs	r2, #128	; 0x80
10004d22:	4b5d      	ldr	r3, [pc, #372]	; (10004e98 <clocks_init+0x2c4>)
10004d24:	69e1      	ldr	r1, [r4, #28]
10004d26:	0112      	lsls	r2, r2, #4
10004d28:	4d5a      	ldr	r5, [pc, #360]	; (10004e94 <clocks_init+0x2c0>)
10004d2a:	601a      	str	r2, [r3, #0]
10004d2c:	2900      	cmp	r1, #0
10004d2e:	d005      	beq.n	10004d3c <clocks_init+0x168>
10004d30:	6960      	ldr	r0, [r4, #20]
10004d32:	f000 fb01 	bl	10005338 <__wrap___aeabi_uidiv>
10004d36:	3001      	adds	r0, #1
10004d38:	3801      	subs	r0, #1
10004d3a:	d1fd      	bne.n	10004d38 <clocks_init+0x164>
10004d3c:	22e0      	movs	r2, #224	; 0xe0
10004d3e:	4955      	ldr	r1, [pc, #340]	; (10004e94 <clocks_init+0x2c0>)
10004d40:	680b      	ldr	r3, [r1, #0]
10004d42:	401a      	ands	r2, r3
10004d44:	2380      	movs	r3, #128	; 0x80
10004d46:	015b      	lsls	r3, r3, #5
10004d48:	432b      	orrs	r3, r5
10004d4a:	601a      	str	r2, [r3, #0]
10004d4c:	2380      	movs	r3, #128	; 0x80
10004d4e:	2280      	movs	r2, #128	; 0x80
10004d50:	019b      	lsls	r3, r3, #6
10004d52:	432b      	orrs	r3, r5
10004d54:	0112      	lsls	r2, r2, #4
10004d56:	601a      	str	r2, [r3, #0]
10004d58:	2280      	movs	r2, #128	; 0x80
10004d5a:	4b3e      	ldr	r3, [pc, #248]	; (10004e54 <clocks_init+0x280>)
10004d5c:	0052      	lsls	r2, r2, #1
10004d5e:	604a      	str	r2, [r1, #4]
10004d60:	61e3      	str	r3, [r4, #28]
10004d62:	4b4e      	ldr	r3, [pc, #312]	; (10004e9c <clocks_init+0x2c8>)
10004d64:	6859      	ldr	r1, [r3, #4]
10004d66:	29ff      	cmp	r1, #255	; 0xff
10004d68:	d800      	bhi.n	10004d6c <clocks_init+0x198>
10004d6a:	605a      	str	r2, [r3, #4]
10004d6c:	2280      	movs	r2, #128	; 0x80
10004d6e:	4b4c      	ldr	r3, [pc, #304]	; (10004ea0 <clocks_init+0x2cc>)
10004d70:	6a21      	ldr	r1, [r4, #32]
10004d72:	0112      	lsls	r2, r2, #4
10004d74:	4d49      	ldr	r5, [pc, #292]	; (10004e9c <clocks_init+0x2c8>)
10004d76:	601a      	str	r2, [r3, #0]
10004d78:	2900      	cmp	r1, #0
10004d7a:	d005      	beq.n	10004d88 <clocks_init+0x1b4>
10004d7c:	6960      	ldr	r0, [r4, #20]
10004d7e:	f000 fadb 	bl	10005338 <__wrap___aeabi_uidiv>
10004d82:	3001      	adds	r0, #1
10004d84:	3801      	subs	r0, #1
10004d86:	d1fd      	bne.n	10004d84 <clocks_init+0x1b0>
10004d88:	22e0      	movs	r2, #224	; 0xe0
10004d8a:	4944      	ldr	r1, [pc, #272]	; (10004e9c <clocks_init+0x2c8>)
10004d8c:	680b      	ldr	r3, [r1, #0]
10004d8e:	401a      	ands	r2, r3
10004d90:	2380      	movs	r3, #128	; 0x80
10004d92:	015b      	lsls	r3, r3, #5
10004d94:	432b      	orrs	r3, r5
10004d96:	601a      	str	r2, [r3, #0]
10004d98:	2380      	movs	r3, #128	; 0x80
10004d9a:	2280      	movs	r2, #128	; 0x80
10004d9c:	019b      	lsls	r3, r3, #6
10004d9e:	432b      	orrs	r3, r5
10004da0:	0112      	lsls	r2, r2, #4
10004da2:	601a      	str	r2, [r3, #0]
10004da4:	2380      	movs	r3, #128	; 0x80
10004da6:	2280      	movs	r2, #128	; 0x80
10004da8:	005b      	lsls	r3, r3, #1
10004daa:	604b      	str	r3, [r1, #4]
10004dac:	4b29      	ldr	r3, [pc, #164]	; (10004e54 <clocks_init+0x280>)
10004dae:	02d2      	lsls	r2, r2, #11
10004db0:	6223      	str	r3, [r4, #32]
10004db2:	4b3c      	ldr	r3, [pc, #240]	; (10004ea4 <clocks_init+0x2d0>)
10004db4:	6859      	ldr	r1, [r3, #4]
10004db6:	4291      	cmp	r1, r2
10004db8:	d200      	bcs.n	10004dbc <clocks_init+0x1e8>
10004dba:	605a      	str	r2, [r3, #4]
10004dbc:	2280      	movs	r2, #128	; 0x80
10004dbe:	4b3a      	ldr	r3, [pc, #232]	; (10004ea8 <clocks_init+0x2d4>)
10004dc0:	6a61      	ldr	r1, [r4, #36]	; 0x24
10004dc2:	0112      	lsls	r2, r2, #4
10004dc4:	4d37      	ldr	r5, [pc, #220]	; (10004ea4 <clocks_init+0x2d0>)
10004dc6:	601a      	str	r2, [r3, #0]
10004dc8:	2900      	cmp	r1, #0
10004dca:	d005      	beq.n	10004dd8 <clocks_init+0x204>
10004dcc:	6960      	ldr	r0, [r4, #20]
10004dce:	f000 fab3 	bl	10005338 <__wrap___aeabi_uidiv>
10004dd2:	3001      	adds	r0, #1
10004dd4:	3801      	subs	r0, #1
10004dd6:	d1fd      	bne.n	10004dd4 <clocks_init+0x200>
10004dd8:	22e0      	movs	r2, #224	; 0xe0
10004dda:	4932      	ldr	r1, [pc, #200]	; (10004ea4 <clocks_init+0x2d0>)
10004ddc:	680b      	ldr	r3, [r1, #0]
10004dde:	401a      	ands	r2, r3
10004de0:	2380      	movs	r3, #128	; 0x80
10004de2:	015b      	lsls	r3, r3, #5
10004de4:	432b      	orrs	r3, r5
10004de6:	601a      	str	r2, [r3, #0]
10004de8:	2380      	movs	r3, #128	; 0x80
10004dea:	2280      	movs	r2, #128	; 0x80
10004dec:	019b      	lsls	r3, r3, #6
10004dee:	432b      	orrs	r3, r5
10004df0:	0112      	lsls	r2, r2, #4
10004df2:	601a      	str	r2, [r3, #0]
10004df4:	2380      	movs	r3, #128	; 0x80
10004df6:	02db      	lsls	r3, r3, #11
10004df8:	604b      	str	r3, [r1, #4]
10004dfa:	4b17      	ldr	r3, [pc, #92]	; (10004e58 <clocks_init+0x284>)
10004dfc:	6263      	str	r3, [r4, #36]	; 0x24
10004dfe:	4b2b      	ldr	r3, [pc, #172]	; (10004eac <clocks_init+0x2d8>)
10004e00:	685a      	ldr	r2, [r3, #4]
10004e02:	2aff      	cmp	r2, #255	; 0xff
10004e04:	d802      	bhi.n	10004e0c <clocks_init+0x238>
10004e06:	2280      	movs	r2, #128	; 0x80
10004e08:	0052      	lsls	r2, r2, #1
10004e0a:	605a      	str	r2, [r3, #4]
10004e0c:	2280      	movs	r2, #128	; 0x80
10004e0e:	4b28      	ldr	r3, [pc, #160]	; (10004eb0 <clocks_init+0x2dc>)
10004e10:	69a1      	ldr	r1, [r4, #24]
10004e12:	0112      	lsls	r2, r2, #4
10004e14:	4d25      	ldr	r5, [pc, #148]	; (10004eac <clocks_init+0x2d8>)
10004e16:	601a      	str	r2, [r3, #0]
10004e18:	2900      	cmp	r1, #0
10004e1a:	d005      	beq.n	10004e28 <clocks_init+0x254>
10004e1c:	6960      	ldr	r0, [r4, #20]
10004e1e:	f000 fa8b 	bl	10005338 <__wrap___aeabi_uidiv>
10004e22:	3001      	adds	r0, #1
10004e24:	3801      	subs	r0, #1
10004e26:	d1fd      	bne.n	10004e24 <clocks_init+0x250>
10004e28:	22e0      	movs	r2, #224	; 0xe0
10004e2a:	4920      	ldr	r1, [pc, #128]	; (10004eac <clocks_init+0x2d8>)
10004e2c:	680b      	ldr	r3, [r1, #0]
10004e2e:	401a      	ands	r2, r3
10004e30:	2380      	movs	r3, #128	; 0x80
10004e32:	015b      	lsls	r3, r3, #5
10004e34:	432b      	orrs	r3, r5
10004e36:	601a      	str	r2, [r3, #0]
10004e38:	2380      	movs	r3, #128	; 0x80
10004e3a:	2280      	movs	r2, #128	; 0x80
10004e3c:	019b      	lsls	r3, r3, #6
10004e3e:	432b      	orrs	r3, r5
10004e40:	0112      	lsls	r2, r2, #4
10004e42:	601a      	str	r2, [r3, #0]
10004e44:	2380      	movs	r3, #128	; 0x80
10004e46:	005b      	lsls	r3, r3, #1
10004e48:	604b      	str	r3, [r1, #4]
10004e4a:	4b11      	ldr	r3, [pc, #68]	; (10004e90 <clocks_init+0x2bc>)
10004e4c:	61a3      	str	r3, [r4, #24]
10004e4e:	e6d7      	b.n	10004c00 <clocks_init+0x2c>
10004e50:	2000036c 	.word	0x2000036c
10004e54:	02dc6c00 	.word	0x02dc6c00
10004e58:	0000b71b 	.word	0x0000b71b
10004e5c:	40008000 	.word	0x40008000
10004e60:	4000b03c 	.word	0x4000b03c
10004e64:	4000b030 	.word	0x4000b030
10004e68:	4000e000 	.word	0x4000e000
10004e6c:	4000f000 	.word	0x4000f000
10004e70:	4000c000 	.word	0x4000c000
10004e74:	59682f00 	.word	0x59682f00
10004e78:	40028000 	.word	0x40028000
10004e7c:	1c9c3800 	.word	0x1c9c3800
10004e80:	4002c000 	.word	0x4002c000
10004e84:	40008030 	.word	0x40008030
10004e88:	00b71b00 	.word	0x00b71b00
10004e8c:	4000803c 	.word	0x4000803c
10004e90:	07735940 	.word	0x07735940
10004e94:	40008054 	.word	0x40008054
10004e98:	4000b054 	.word	0x4000b054
10004e9c:	40008060 	.word	0x40008060
10004ea0:	4000b060 	.word	0x4000b060
10004ea4:	4000806c 	.word	0x4000806c
10004ea8:	4000b06c 	.word	0x4000b06c
10004eac:	40008048 	.word	0x40008048
10004eb0:	4000b048 	.word	0x4000b048

10004eb4 <watchdog_start_tick>:
10004eb4:	2380      	movs	r3, #128	; 0x80
10004eb6:	4a02      	ldr	r2, [pc, #8]	; (10004ec0 <watchdog_start_tick+0xc>)
10004eb8:	009b      	lsls	r3, r3, #2
10004eba:	4303      	orrs	r3, r0
10004ebc:	62d3      	str	r3, [r2, #44]	; 0x2c
10004ebe:	4770      	bx	lr
10004ec0:	40058000 	.word	0x40058000

10004ec4 <xosc_init>:
10004ec4:	23aa      	movs	r3, #170	; 0xaa
10004ec6:	4a06      	ldr	r2, [pc, #24]	; (10004ee0 <xosc_init+0x1c>)
10004ec8:	011b      	lsls	r3, r3, #4
10004eca:	6013      	str	r3, [r2, #0]
10004ecc:	232f      	movs	r3, #47	; 0x2f
10004ece:	4905      	ldr	r1, [pc, #20]	; (10004ee4 <xosc_init+0x20>)
10004ed0:	60d3      	str	r3, [r2, #12]
10004ed2:	4b05      	ldr	r3, [pc, #20]	; (10004ee8 <xosc_init+0x24>)
10004ed4:	6019      	str	r1, [r3, #0]
10004ed6:	6853      	ldr	r3, [r2, #4]
10004ed8:	2b00      	cmp	r3, #0
10004eda:	dafc      	bge.n	10004ed6 <xosc_init+0x12>
10004edc:	4770      	bx	lr
10004ede:	46c0      	nop			; (mov r8, r8)
10004ee0:	40024000 	.word	0x40024000
10004ee4:	00fab000 	.word	0x00fab000
10004ee8:	40026000 	.word	0x40026000

10004eec <pll_init>:
10004eec:	b5f8      	push	{r3, r4, r5, r6, r7, lr}
10004eee:	001e      	movs	r6, r3
10004ef0:	2301      	movs	r3, #1
10004ef2:	425b      	negs	r3, r3
10004ef4:	6043      	str	r3, [r0, #4]
10004ef6:	2300      	movs	r3, #0
10004ef8:	0004      	movs	r4, r0
10004efa:	6083      	str	r3, [r0, #8]
10004efc:	6001      	str	r1, [r0, #0]
10004efe:	200c      	movs	r0, #12
10004f00:	0017      	movs	r7, r2
10004f02:	f000 fa19 	bl	10005338 <__wrap___aeabi_uidiv>
10004f06:	0141      	lsls	r1, r0, #5
10004f08:	1a09      	subs	r1, r1, r0
10004f0a:	018d      	lsls	r5, r1, #6
10004f0c:	1a69      	subs	r1, r5, r1
10004f0e:	00c9      	lsls	r1, r1, #3
10004f10:	1809      	adds	r1, r1, r0
10004f12:	0189      	lsls	r1, r1, #6
10004f14:	0038      	movs	r0, r7
10004f16:	f000 fa0f 	bl	10005338 <__wrap___aeabi_uidiv>
10004f1a:	21c0      	movs	r1, #192	; 0xc0
10004f1c:	1d23      	adds	r3, r4, #4
10004f1e:	0189      	lsls	r1, r1, #6
10004f20:	4319      	orrs	r1, r3
10004f22:	2321      	movs	r3, #33	; 0x21
10004f24:	60a0      	str	r0, [r4, #8]
10004f26:	600b      	str	r3, [r1, #0]
10004f28:	6822      	ldr	r2, [r4, #0]
10004f2a:	2a00      	cmp	r2, #0
10004f2c:	dafc      	bge.n	10004f28 <pll_init+0x3c>
10004f2e:	9b06      	ldr	r3, [sp, #24]
10004f30:	0436      	lsls	r6, r6, #16
10004f32:	031b      	lsls	r3, r3, #12
10004f34:	431e      	orrs	r6, r3
10004f36:	2308      	movs	r3, #8
10004f38:	60e6      	str	r6, [r4, #12]
10004f3a:	600b      	str	r3, [r1, #0]
10004f3c:	bdf8      	pop	{r3, r4, r5, r6, r7, pc}
10004f3e:	46c0      	nop			; (mov r8, r8)

10004f40 <vreg_set_voltage>:
10004f40:	4b04      	ldr	r3, [pc, #16]	; (10004f54 <vreg_set_voltage+0x14>)
10004f42:	0100      	lsls	r0, r0, #4
10004f44:	681b      	ldr	r3, [r3, #0]
10004f46:	4058      	eors	r0, r3
10004f48:	23f0      	movs	r3, #240	; 0xf0
10004f4a:	4018      	ands	r0, r3
10004f4c:	4b02      	ldr	r3, [pc, #8]	; (10004f58 <vreg_set_voltage+0x18>)
10004f4e:	6018      	str	r0, [r3, #0]
10004f50:	4770      	bx	lr
10004f52:	46c0      	nop			; (mov r8, r8)
10004f54:	40064000 	.word	0x40064000
10004f58:	40065000 	.word	0x40065000

10004f5c <irq_set_enabled>:
10004f5c:	2301      	movs	r3, #1
10004f5e:	4083      	lsls	r3, r0
10004f60:	2900      	cmp	r1, #0
10004f62:	d004      	beq.n	10004f6e <irq_set_enabled+0x12>
10004f64:	4a03      	ldr	r2, [pc, #12]	; (10004f74 <irq_set_enabled+0x18>)
10004f66:	6013      	str	r3, [r2, #0]
10004f68:	4a03      	ldr	r2, [pc, #12]	; (10004f78 <irq_set_enabled+0x1c>)
10004f6a:	6013      	str	r3, [r2, #0]
10004f6c:	4770      	bx	lr
10004f6e:	4a03      	ldr	r2, [pc, #12]	; (10004f7c <irq_set_enabled+0x20>)
10004f70:	6013      	str	r3, [r2, #0]
10004f72:	e7fb      	b.n	10004f6c <irq_set_enabled+0x10>
10004f74:	e000e280 	.word	0xe000e280
10004f78:	e000e100 	.word	0xe000e100
10004f7c:	e000e180 	.word	0xe000e180

10004f80 <irq_get_vtable_handler>:
10004f80:	4b02      	ldr	r3, [pc, #8]	; (10004f8c <irq_get_vtable_handler+0xc>)
10004f82:	3010      	adds	r0, #16
10004f84:	689b      	ldr	r3, [r3, #8]
10004f86:	0080      	lsls	r0, r0, #2
10004f88:	58c0      	ldr	r0, [r0, r3]
10004f8a:	4770      	bx	lr
10004f8c:	e000ed00 	.word	0xe000ed00

10004f90 <irq_set_exclusive_handler>:
10004f90:	b570      	push	{r4, r5, r6, lr}
10004f92:	000d      	movs	r5, r1
10004f94:	f3ef 8610 	mrs	r6, PRIMASK
10004f98:	b672      	cpsid	i
10004f9a:	4a0f      	ldr	r2, [pc, #60]	; (10004fd8 <irq_set_exclusive_handler+0x48>)
10004f9c:	6813      	ldr	r3, [r2, #0]
10004f9e:	2b00      	cmp	r3, #0
10004fa0:	d0fc      	beq.n	10004f9c <irq_set_exclusive_handler+0xc>
10004fa2:	f3bf 8f5f 	dmb	sy
10004fa6:	4b0d      	ldr	r3, [pc, #52]	; (10004fdc <irq_set_exclusive_handler+0x4c>)
10004fa8:	3010      	adds	r0, #16
10004faa:	689b      	ldr	r3, [r3, #8]
10004fac:	0084      	lsls	r4, r0, #2
10004fae:	591b      	ldr	r3, [r3, r4]
10004fb0:	4a0b      	ldr	r2, [pc, #44]	; (10004fe0 <irq_set_exclusive_handler+0x50>)
10004fb2:	4293      	cmp	r3, r2
10004fb4:	d003      	beq.n	10004fbe <irq_set_exclusive_handler+0x2e>
10004fb6:	429d      	cmp	r5, r3
10004fb8:	d001      	beq.n	10004fbe <irq_set_exclusive_handler+0x2e>
10004fba:	f7ff fd8d 	bl	10004ad8 <hard_assertion_failure>
10004fbe:	4b07      	ldr	r3, [pc, #28]	; (10004fdc <irq_set_exclusive_handler+0x4c>)
10004fc0:	689b      	ldr	r3, [r3, #8]
10004fc2:	511d      	str	r5, [r3, r4]
10004fc4:	f3bf 8f5f 	dmb	sy
10004fc8:	f3bf 8f5f 	dmb	sy
10004fcc:	2200      	movs	r2, #0
10004fce:	4b02      	ldr	r3, [pc, #8]	; (10004fd8 <irq_set_exclusive_handler+0x48>)
10004fd0:	601a      	str	r2, [r3, #0]
10004fd2:	f386 8810 	msr	PRIMASK, r6
10004fd6:	bd70      	pop	{r4, r5, r6, pc}
10004fd8:	d0000124 	.word	0xd0000124
10004fdc:	e000ed00 	.word	0xe000ed00
10004fe0:	100001cd 	.word	0x100001cd

10004fe4 <irq_remove_handler>:
10004fe4:	b5f0      	push	{r4, r5, r6, r7, lr}
10004fe6:	46de      	mov	lr, fp
10004fe8:	4657      	mov	r7, sl
10004fea:	464e      	mov	r6, r9
10004fec:	4645      	mov	r5, r8
10004fee:	b5e0      	push	{r5, r6, r7, lr}
10004ff0:	000c      	movs	r4, r1
10004ff2:	b083      	sub	sp, #12
10004ff4:	f3ef 8a10 	mrs	sl, PRIMASK
10004ff8:	b672      	cpsid	i
10004ffa:	4a5b      	ldr	r2, [pc, #364]	; (10005168 <irq_remove_handler+0x184>)
10004ffc:	6813      	ldr	r3, [r2, #0]
10004ffe:	2b00      	cmp	r3, #0
10005000:	d0fc      	beq.n	10004ffc <irq_remove_handler+0x18>
10005002:	f3bf 8f5f 	dmb	sy
10005006:	2210      	movs	r2, #16
10005008:	4691      	mov	r9, r2
1000500a:	4481      	add	r9, r0
1000500c:	464a      	mov	r2, r9
1000500e:	4b57      	ldr	r3, [pc, #348]	; (1000516c <irq_remove_handler+0x188>)
10005010:	0096      	lsls	r6, r2, #2
10005012:	689b      	ldr	r3, [r3, #8]
10005014:	599d      	ldr	r5, [r3, r6]
10005016:	4b56      	ldr	r3, [pc, #344]	; (10005170 <irq_remove_handler+0x18c>)
10005018:	4698      	mov	r8, r3
1000501a:	429d      	cmp	r5, r3
1000501c:	d005      	beq.n	1000502a <irq_remove_handler+0x46>
1000501e:	42a5      	cmp	r5, r4
10005020:	d016      	beq.n	10005050 <irq_remove_handler+0x6c>
10005022:	4f54      	ldr	r7, [pc, #336]	; (10005174 <irq_remove_handler+0x190>)
10005024:	1beb      	subs	r3, r5, r7
10005026:	2b2f      	cmp	r3, #47	; 0x2f
10005028:	d914      	bls.n	10005054 <irq_remove_handler+0x70>
1000502a:	4b50      	ldr	r3, [pc, #320]	; (1000516c <irq_remove_handler+0x188>)
1000502c:	689b      	ldr	r3, [r3, #8]
1000502e:	519d      	str	r5, [r3, r6]
10005030:	f3bf 8f5f 	dmb	sy
10005034:	f3bf 8f5f 	dmb	sy
10005038:	2200      	movs	r2, #0
1000503a:	4b4b      	ldr	r3, [pc, #300]	; (10005168 <irq_remove_handler+0x184>)
1000503c:	601a      	str	r2, [r3, #0]
1000503e:	f38a 8810 	msr	PRIMASK, sl
10005042:	b003      	add	sp, #12
10005044:	bc3c      	pop	{r2, r3, r4, r5}
10005046:	4690      	mov	r8, r2
10005048:	4699      	mov	r9, r3
1000504a:	46a2      	mov	sl, r4
1000504c:	46ab      	mov	fp, r5
1000504e:	bdf0      	pop	{r4, r5, r6, r7, pc}
10005050:	001d      	movs	r5, r3
10005052:	e7ea      	b.n	1000502a <irq_remove_handler+0x46>
10005054:	2301      	movs	r3, #1
10005056:	4083      	lsls	r3, r0
10005058:	469b      	mov	fp, r3
1000505a:	465a      	mov	r2, fp
1000505c:	4b46      	ldr	r3, [pc, #280]	; (10005178 <irq_remove_handler+0x194>)
1000505e:	681b      	ldr	r3, [r3, #0]
10005060:	401a      	ands	r2, r3
10005062:	9200      	str	r2, [sp, #0]
10005064:	465a      	mov	r2, fp
10005066:	4b45      	ldr	r3, [pc, #276]	; (1000517c <irq_remove_handler+0x198>)
10005068:	601a      	str	r2, [r3, #0]
1000506a:	f3bf 8f5f 	dmb	sy
1000506e:	f7fb f8fa 	bl	10000266 <__get_current_exception>
10005072:	9001      	str	r0, [sp, #4]
10005074:	2800      	cmp	r0, #0
10005076:	d003      	beq.n	10005080 <irq_remove_handler+0x9c>
10005078:	4581      	cmp	r9, r0
1000507a:	d001      	beq.n	10005080 <irq_remove_handler+0x9c>
1000507c:	f7ff fd2c 	bl	10004ad8 <hard_assertion_failure>
10005080:	2301      	movs	r3, #1
10005082:	002a      	movs	r2, r5
10005084:	439a      	bics	r2, r3
10005086:	0013      	movs	r3, r2
10005088:	1bdb      	subs	r3, r3, r7
1000508a:	415b      	adcs	r3, r3
1000508c:	4942      	ldr	r1, [pc, #264]	; (10005198 <irq_remove_handler+0x1b4>)
1000508e:	4359      	muls	r1, r3
10005090:	0d09      	lsrs	r1, r1, #20
10005092:	6893      	ldr	r3, [r2, #8]
10005094:	429c      	cmp	r4, r3
10005096:	d108      	bne.n	100050aa <irq_remove_handler+0xc6>
10005098:	e05b      	b.n	10005152 <irq_remove_handler+0x16e>
1000509a:	0043      	lsls	r3, r0, #1
1000509c:	181b      	adds	r3, r3, r0
1000509e:	009b      	lsls	r3, r3, #2
100050a0:	18fb      	adds	r3, r7, r3
100050a2:	6898      	ldr	r0, [r3, #8]
100050a4:	42a0      	cmp	r0, r4
100050a6:	d011      	beq.n	100050cc <irq_remove_handler+0xe8>
100050a8:	001a      	movs	r2, r3
100050aa:	2006      	movs	r0, #6
100050ac:	5610      	ldrsb	r0, [r2, r0]
100050ae:	2800      	cmp	r0, #0
100050b0:	daf3      	bge.n	1000509a <irq_remove_handler+0xb6>
100050b2:	9b00      	ldr	r3, [sp, #0]
100050b4:	2b00      	cmp	r3, #0
100050b6:	d005      	beq.n	100050c4 <irq_remove_handler+0xe0>
100050b8:	465a      	mov	r2, fp
100050ba:	4b31      	ldr	r3, [pc, #196]	; (10005180 <irq_remove_handler+0x19c>)
100050bc:	601a      	str	r2, [r3, #0]
100050be:	4b2e      	ldr	r3, [pc, #184]	; (10005178 <irq_remove_handler+0x194>)
100050c0:	601a      	str	r2, [r3, #0]
100050c2:	e7b2      	b.n	1000502a <irq_remove_handler+0x46>
100050c4:	465a      	mov	r2, fp
100050c6:	4b2d      	ldr	r3, [pc, #180]	; (1000517c <irq_remove_handler+0x198>)
100050c8:	601a      	str	r2, [r3, #0]
100050ca:	e7ae      	b.n	1000502a <irq_remove_handler+0x46>
100050cc:	2006      	movs	r0, #6
100050ce:	5618      	ldrsb	r0, [r3, r0]
100050d0:	2800      	cmp	r0, #0
100050d2:	db22      	blt.n	1000511a <irq_remove_handler+0x136>
100050d4:	0042      	lsls	r2, r0, #1
100050d6:	1811      	adds	r1, r2, r0
100050d8:	0089      	lsls	r1, r1, #2
100050da:	187c      	adds	r4, r7, r1
100050dc:	4688      	mov	r8, r1
100050de:	68a1      	ldr	r1, [r4, #8]
100050e0:	6099      	str	r1, [r3, #8]
100050e2:	79e1      	ldrb	r1, [r4, #7]
100050e4:	71d9      	strb	r1, [r3, #7]
100050e6:	2106      	movs	r1, #6
100050e8:	5661      	ldrsb	r1, [r4, r1]
100050ea:	7199      	strb	r1, [r3, #6]
100050ec:	79a1      	ldrb	r1, [r4, #6]
100050ee:	297f      	cmp	r1, #127	; 0x7f
100050f0:	d81f      	bhi.n	10005132 <irq_remove_handler+0x14e>
100050f2:	88a4      	ldrh	r4, [r4, #4]
100050f4:	1af9      	subs	r1, r7, r3
100050f6:	0564      	lsls	r4, r4, #21
100050f8:	1524      	asrs	r4, r4, #20
100050fa:	4444      	add	r4, r8
100050fc:	1909      	adds	r1, r1, r4
100050fe:	24e0      	movs	r4, #224	; 0xe0
10005100:	0509      	lsls	r1, r1, #20
10005102:	0d49      	lsrs	r1, r1, #21
10005104:	0224      	lsls	r4, r4, #8
10005106:	4321      	orrs	r1, r4
10005108:	8099      	strh	r1, [r3, #4]
1000510a:	1812      	adds	r2, r2, r0
1000510c:	4b1d      	ldr	r3, [pc, #116]	; (10005184 <irq_remove_handler+0x1a0>)
1000510e:	0092      	lsls	r2, r2, #2
10005110:	18bf      	adds	r7, r7, r2
10005112:	781a      	ldrb	r2, [r3, #0]
10005114:	7018      	strb	r0, [r3, #0]
10005116:	71ba      	strb	r2, [r7, #6]
10005118:	e7cb      	b.n	100050b2 <irq_remove_handler+0xce>
1000511a:	9801      	ldr	r0, [sp, #4]
1000511c:	2800      	cmp	r0, #0
1000511e:	d10b      	bne.n	10005138 <irq_remove_handler+0x154>
10005120:	30ff      	adds	r0, #255	; 0xff
10005122:	7190      	strb	r0, [r2, #6]
10005124:	4818      	ldr	r0, [pc, #96]	; (10005188 <irq_remove_handler+0x1a4>)
10005126:	8090      	strh	r0, [r2, #4]
10005128:	4a16      	ldr	r2, [pc, #88]	; (10005184 <irq_remove_handler+0x1a0>)
1000512a:	7810      	ldrb	r0, [r2, #0]
1000512c:	7011      	strb	r1, [r2, #0]
1000512e:	7198      	strb	r0, [r3, #6]
10005130:	e7bf      	b.n	100050b2 <irq_remove_handler+0xce>
10005132:	21bd      	movs	r1, #189	; 0xbd
10005134:	0209      	lsls	r1, r1, #8
10005136:	e7e7      	b.n	10005108 <irq_remove_handler+0x124>
10005138:	4a14      	ldr	r2, [pc, #80]	; (1000518c <irq_remove_handler+0x1a8>)
1000513a:	4915      	ldr	r1, [pc, #84]	; (10005190 <irq_remove_handler+0x1ac>)
1000513c:	1ad2      	subs	r2, r2, r3
1000513e:	3a08      	subs	r2, #8
10005140:	0250      	lsls	r0, r2, #9
10005142:	0d40      	lsrs	r0, r0, #21
10005144:	4301      	orrs	r1, r0
10005146:	8099      	strh	r1, [r3, #4]
10005148:	4912      	ldr	r1, [pc, #72]	; (10005194 <irq_remove_handler+0x1b0>)
1000514a:	0852      	lsrs	r2, r2, #1
1000514c:	430a      	orrs	r2, r1
1000514e:	80da      	strh	r2, [r3, #6]
10005150:	e7af      	b.n	100050b2 <irq_remove_handler+0xce>
10005152:	2006      	movs	r0, #6
10005154:	5610      	ldrsb	r0, [r2, r0]
10005156:	0013      	movs	r3, r2
10005158:	2800      	cmp	r0, #0
1000515a:	dabb      	bge.n	100050d4 <irq_remove_handler+0xf0>
1000515c:	9a01      	ldr	r2, [sp, #4]
1000515e:	2a00      	cmp	r2, #0
10005160:	d1ea      	bne.n	10005138 <irq_remove_handler+0x154>
10005162:	4645      	mov	r5, r8
10005164:	e7e0      	b.n	10005128 <irq_remove_handler+0x144>
10005166:	46c0      	nop			; (mov r8, r8)
10005168:	d0000124 	.word	0xd0000124
1000516c:	e000ed00 	.word	0xe000ed00
10005170:	100001cd 	.word	0x100001cd
10005174:	200001ac 	.word	0x200001ac
10005178:	e000e100 	.word	0xe000e100
1000517c:	e000e180 	.word	0xe000e180
10005180:	e000e280 	.word	0xe000e280
10005184:	20008401 	.word	0x20008401
10005188:	ffffbd00 	.word	0xffffbd00
1000518c:	200001e6 	.word	0x200001e6
10005190:	fffff000 	.word	0xfffff000
10005194:	fffff800 	.word	0xfffff800
10005198:	0000aaaa 	.word	0x0000aaaa

1000519c <irq_add_tail_to_free_list>:
1000519c:	b5f8      	push	{r3, r4, r5, r6, r7, lr}
1000519e:	2501      	movs	r5, #1
100051a0:	0004      	movs	r4, r0
100051a2:	4305      	orrs	r5, r0
100051a4:	f7fb f85f 	bl	10000266 <__get_current_exception>
100051a8:	0002      	movs	r2, r0
100051aa:	f3ef 8610 	mrs	r6, PRIMASK
100051ae:	b672      	cpsid	i
100051b0:	4921      	ldr	r1, [pc, #132]	; (10005238 <irq_add_tail_to_free_list+0x9c>)
100051b2:	680b      	ldr	r3, [r1, #0]
100051b4:	2b00      	cmp	r3, #0
100051b6:	d0fc      	beq.n	100051b2 <irq_add_tail_to_free_list+0x16>
100051b8:	f3bf 8f5f 	dmb	sy
100051bc:	491f      	ldr	r1, [pc, #124]	; (1000523c <irq_add_tail_to_free_list+0xa0>)
100051be:	0020      	movs	r0, r4
100051c0:	1a40      	subs	r0, r0, r1
100051c2:	4140      	adcs	r0, r0
100051c4:	4b22      	ldr	r3, [pc, #136]	; (10005250 <irq_add_tail_to_free_list+0xb4>)
100051c6:	4343      	muls	r3, r0
100051c8:	0d1b      	lsrs	r3, r3, #20
100051ca:	481d      	ldr	r0, [pc, #116]	; (10005240 <irq_add_tail_to_free_list+0xa4>)
100051cc:	0092      	lsls	r2, r2, #2
100051ce:	6887      	ldr	r7, [r0, #8]
100051d0:	b25b      	sxtb	r3, r3
100051d2:	58bf      	ldr	r7, [r7, r2]
100051d4:	42af      	cmp	r7, r5
100051d6:	d01c      	beq.n	10005212 <irq_add_tail_to_free_list+0x76>
100051d8:	2206      	movs	r2, #6
100051da:	568a      	ldrsb	r2, [r1, r2]
100051dc:	429a      	cmp	r2, r3
100051de:	d01c      	beq.n	1000521a <irq_add_tail_to_free_list+0x7e>
100051e0:	2212      	movs	r2, #18
100051e2:	568a      	ldrsb	r2, [r1, r2]
100051e4:	429a      	cmp	r2, r3
100051e6:	d022      	beq.n	1000522e <irq_add_tail_to_free_list+0x92>
100051e8:	221e      	movs	r2, #30
100051ea:	568a      	ldrsb	r2, [r1, r2]
100051ec:	429a      	cmp	r2, r3
100051ee:	d020      	beq.n	10005232 <irq_add_tail_to_free_list+0x96>
100051f0:	222a      	movs	r2, #42	; 0x2a
100051f2:	568a      	ldrsb	r2, [r1, r2]
100051f4:	2003      	movs	r0, #3
100051f6:	429a      	cmp	r2, r3
100051f8:	d010      	beq.n	1000521c <irq_add_tail_to_free_list+0x80>
100051fa:	4a12      	ldr	r2, [pc, #72]	; (10005244 <irq_add_tail_to_free_list+0xa8>)
100051fc:	7811      	ldrb	r1, [r2, #0]
100051fe:	7013      	strb	r3, [r2, #0]
10005200:	71a1      	strb	r1, [r4, #6]
10005202:	f3bf 8f5f 	dmb	sy
10005206:	2200      	movs	r2, #0
10005208:	4b0b      	ldr	r3, [pc, #44]	; (10005238 <irq_add_tail_to_free_list+0x9c>)
1000520a:	601a      	str	r2, [r3, #0]
1000520c:	f386 8810 	msr	PRIMASK, r6
10005210:	bdf8      	pop	{r3, r4, r5, r6, r7, pc}
10005212:	6881      	ldr	r1, [r0, #8]
10005214:	480c      	ldr	r0, [pc, #48]	; (10005248 <irq_add_tail_to_free_list+0xac>)
10005216:	5088      	str	r0, [r1, r2]
10005218:	e7ef      	b.n	100051fa <irq_add_tail_to_free_list+0x5e>
1000521a:	2000      	movs	r0, #0
1000521c:	0042      	lsls	r2, r0, #1
1000521e:	1812      	adds	r2, r2, r0
10005220:	0092      	lsls	r2, r2, #2
10005222:	1889      	adds	r1, r1, r2
10005224:	22ff      	movs	r2, #255	; 0xff
10005226:	718a      	strb	r2, [r1, #6]
10005228:	4a08      	ldr	r2, [pc, #32]	; (1000524c <irq_add_tail_to_free_list+0xb0>)
1000522a:	808a      	strh	r2, [r1, #4]
1000522c:	e7e5      	b.n	100051fa <irq_add_tail_to_free_list+0x5e>
1000522e:	2001      	movs	r0, #1
10005230:	e7f4      	b.n	1000521c <irq_add_tail_to_free_list+0x80>
10005232:	2002      	movs	r0, #2
10005234:	e7f2      	b.n	1000521c <irq_add_tail_to_free_list+0x80>
10005236:	46c0      	nop			; (mov r8, r8)
10005238:	d0000124 	.word	0xd0000124
1000523c:	200001ac 	.word	0x200001ac
10005240:	e000ed00 	.word	0xe000ed00
10005244:	20008401 	.word	0x20008401
10005248:	100001cd 	.word	0x100001cd
1000524c:	ffffbd00 	.word	0xffffbd00
10005250:	0000aaaa 	.word	0x0000aaaa

10005254 <irq_init_priorities>:
10005254:	b5f0      	push	{r4, r5, r6, r7, lr}
10005256:	2200      	movs	r2, #0
10005258:	2403      	movs	r4, #3
1000525a:	27ff      	movs	r7, #255	; 0xff
1000525c:	2680      	movs	r6, #128	; 0x80
1000525e:	0020      	movs	r0, r4
10005260:	003d      	movs	r5, r7
10005262:	4b09      	ldr	r3, [pc, #36]	; (10005288 <irq_init_priorities+0x34>)
10005264:	0011      	movs	r1, r2
10005266:	469c      	mov	ip, r3
10005268:	4010      	ands	r0, r2
1000526a:	00c0      	lsls	r0, r0, #3
1000526c:	4085      	lsls	r5, r0
1000526e:	43a1      	bics	r1, r4
10005270:	4461      	add	r1, ip
10005272:	680b      	ldr	r3, [r1, #0]
10005274:	3201      	adds	r2, #1
10005276:	43ab      	bics	r3, r5
10005278:	0035      	movs	r5, r6
1000527a:	4085      	lsls	r5, r0
1000527c:	432b      	orrs	r3, r5
1000527e:	600b      	str	r3, [r1, #0]
10005280:	2a20      	cmp	r2, #32
10005282:	d1ec      	bne.n	1000525e <irq_init_priorities+0xa>
10005284:	bdf0      	pop	{r4, r5, r6, r7, pc}
10005286:	46c0      	nop			; (mov r8, r8)
10005288:	e000e400 	.word	0xe000e400

1000528c <_out_char>:
1000528c:	b510      	push	{r4, lr}
1000528e:	2800      	cmp	r0, #0
10005290:	d100      	bne.n	10005294 <_out_char+0x8>
10005292:	bd10      	pop	{r4, pc}
10005294:	f000 fc16 	bl	10005ac4 <__wrap_putchar>
10005298:	e7fb      	b.n	10005292 <_out_char+0x6>
1000529a:	46c0      	nop			; (mov r8, r8)

1000529c <weak_raw_vprintf>:
1000529c:	b510      	push	{r4, lr}
1000529e:	4a09      	ldr	r2, [pc, #36]	; (100052c4 <weak_raw_vprintf+0x28>)
100052a0:	0003      	movs	r3, r0
100052a2:	6814      	ldr	r4, [r2, #0]
100052a4:	b084      	sub	sp, #16
100052a6:	2c00      	cmp	r4, #0
100052a8:	d008      	beq.n	100052bc <weak_raw_vprintf+0x20>
100052aa:	2201      	movs	r2, #1
100052ac:	9100      	str	r1, [sp, #0]
100052ae:	4806      	ldr	r0, [pc, #24]	; (100052c8 <weak_raw_vprintf+0x2c>)
100052b0:	4252      	negs	r2, r2
100052b2:	a903      	add	r1, sp, #12
100052b4:	47a0      	blx	r4
100052b6:	2001      	movs	r0, #1
100052b8:	b004      	add	sp, #16
100052ba:	bd10      	pop	{r4, pc}
100052bc:	f000 fc10 	bl	10005ae0 <__wrap_puts>
100052c0:	2000      	movs	r0, #0
100052c2:	e7f9      	b.n	100052b8 <weak_raw_vprintf+0x1c>
100052c4:	200003dc 	.word	0x200003dc
100052c8:	1000528d 	.word	0x1000528d

100052cc <__aeabi_bits_init>:
100052cc:	4801      	ldr	r0, [pc, #4]	; (100052d4 <__aeabi_bits_init+0x8>)
100052ce:	2104      	movs	r1, #4
100052d0:	4b01      	ldr	r3, [pc, #4]	; (100052d8 <__aeabi_bits_init+0xc>)
100052d2:	4718      	bx	r3
100052d4:	20000200 	.word	0x20000200
100052d8:	100052fd 	.word	0x100052fd

100052dc <rom_func_lookup>:
100052dc:	2314      	movs	r3, #20
100052de:	b510      	push	{r4, lr}
100052e0:	0001      	movs	r1, r0
100052e2:	8818      	ldrh	r0, [r3, #0]
100052e4:	3304      	adds	r3, #4
100052e6:	881b      	ldrh	r3, [r3, #0]
100052e8:	4798      	blx	r3
100052ea:	bd10      	pop	{r4, pc}

100052ec <rom_data_lookup>:
100052ec:	2316      	movs	r3, #22
100052ee:	b510      	push	{r4, lr}
100052f0:	0001      	movs	r1, r0
100052f2:	8818      	ldrh	r0, [r3, #0]
100052f4:	3302      	adds	r3, #2
100052f6:	881b      	ldrh	r3, [r3, #0]
100052f8:	4798      	blx	r3
100052fa:	bd10      	pop	{r4, pc}

100052fc <rom_funcs_lookup>:
100052fc:	b5f0      	push	{r4, r5, r6, r7, lr}
100052fe:	46c6      	mov	lr, r8
10005300:	b500      	push	{lr}
10005302:	2900      	cmp	r1, #0
10005304:	d016      	beq.n	10005334 <rom_funcs_lookup+0x38>
10005306:	2314      	movs	r3, #20
10005308:	0004      	movs	r4, r0
1000530a:	2501      	movs	r5, #1
1000530c:	4698      	mov	r8, r3
1000530e:	2718      	movs	r7, #24
10005310:	0089      	lsls	r1, r1, #2
10005312:	1846      	adds	r6, r0, r1
10005314:	4643      	mov	r3, r8
10005316:	6821      	ldr	r1, [r4, #0]
10005318:	8818      	ldrh	r0, [r3, #0]
1000531a:	883b      	ldrh	r3, [r7, #0]
1000531c:	4798      	blx	r3
1000531e:	c401      	stmia	r4!, {r0}
10005320:	1e43      	subs	r3, r0, #1
10005322:	4198      	sbcs	r0, r3
10005324:	4240      	negs	r0, r0
10005326:	4005      	ands	r5, r0
10005328:	42a6      	cmp	r6, r4
1000532a:	d1f3      	bne.n	10005314 <rom_funcs_lookup+0x18>
1000532c:	0028      	movs	r0, r5
1000532e:	bc04      	pop	{r2}
10005330:	4690      	mov	r8, r2
10005332:	bdf0      	pop	{r4, r5, r6, r7, pc}
10005334:	2501      	movs	r5, #1
10005336:	e7f9      	b.n	1000532c <rom_funcs_lookup+0x30>

10005338 <__wrap___aeabi_uidiv>:
10005338:	4a13      	ldr	r2, [pc, #76]	; (10005388 <divmod_u32u32_savestate+0x20>)
1000533a:	6f93      	ldr	r3, [r2, #120]	; 0x78
1000533c:	089b      	lsrs	r3, r3, #2
1000533e:	d213      	bcs.n	10005368 <divmod_u32u32_savestate>

10005340 <divmod_u32u32_unsafe>:
10005340:	6610      	str	r0, [r2, #96]	; 0x60
10005342:	6651      	str	r1, [r2, #100]	; 0x64
10005344:	2900      	cmp	r1, #0
10005346:	d005      	beq.n	10005354 <divmod_u32u32_unsafe+0x14>
10005348:	e7ff      	b.n	1000534a <divmod_u32u32_unsafe+0xa>
1000534a:	e7ff      	b.n	1000534c <divmod_u32u32_unsafe+0xc>
1000534c:	e7ff      	b.n	1000534e <divmod_u32u32_unsafe+0xe>
1000534e:	6f51      	ldr	r1, [r2, #116]	; 0x74
10005350:	6f10      	ldr	r0, [r2, #112]	; 0x70
10005352:	4770      	bx	lr
10005354:	b504      	push	{r2, lr}
10005356:	2800      	cmp	r0, #0
10005358:	d001      	beq.n	1000535e <divmod_u32u32_unsafe+0x1e>
1000535a:	2000      	movs	r0, #0
1000535c:	43c0      	mvns	r0, r0
1000535e:	f000 fc1f 	bl	10005ba0 <____aeabi_idiv0_veneer>
10005362:	2100      	movs	r1, #0
10005364:	bd04      	pop	{r2, pc}
10005366:	46c0      	nop			; (mov r8, r8)

10005368 <divmod_u32u32_savestate>:
10005368:	6f93      	ldr	r3, [r2, #120]	; 0x78
1000536a:	085b      	lsrs	r3, r3, #1
1000536c:	d3fd      	bcc.n	1000536a <divmod_u32u32_savestate+0x2>
1000536e:	b5f0      	push	{r4, r5, r6, r7, lr}
10005370:	6e94      	ldr	r4, [r2, #104]	; 0x68
10005372:	6ed5      	ldr	r5, [r2, #108]	; 0x6c
10005374:	6f57      	ldr	r7, [r2, #116]	; 0x74
10005376:	6f16      	ldr	r6, [r2, #112]	; 0x70
10005378:	f7ff ffe2 	bl	10005340 <divmod_u32u32_unsafe>
1000537c:	6694      	str	r4, [r2, #104]	; 0x68
1000537e:	66d5      	str	r5, [r2, #108]	; 0x6c
10005380:	6757      	str	r7, [r2, #116]	; 0x74
10005382:	6716      	str	r6, [r2, #112]	; 0x70
10005384:	bdf0      	pop	{r4, r5, r6, r7, pc}
10005386:	0000      	.short	0x0000
10005388:	d0000000 	.word	0xd0000000

1000538c <__wrap___aeabi_ldivmod>:
1000538c:	4694      	mov	ip, r2
1000538e:	4a4e      	ldr	r2, [pc, #312]	; (100054c8 <udiv0+0x1a>)
10005390:	6f92      	ldr	r2, [r2, #120]	; 0x78
10005392:	0892      	lsrs	r2, r2, #2
10005394:	4662      	mov	r2, ip
10005396:	d201      	bcs.n	1000539c <divmod_s64s64_savestate>
10005398:	e030      	b.n	100053fc <divmod_s64s64_unsafe>
1000539a:	46c0      	nop			; (mov r8, r8)

1000539c <divmod_s64s64_savestate>:
1000539c:	b5f0      	push	{r4, r5, r6, r7, lr}
1000539e:	4e4a      	ldr	r6, [pc, #296]	; (100054c8 <udiv0+0x1a>)
100053a0:	6fb5      	ldr	r5, [r6, #120]	; 0x78
100053a2:	086d      	lsrs	r5, r5, #1
100053a4:	d3fc      	bcc.n	100053a0 <divmod_s64s64_savestate+0x4>
100053a6:	6e34      	ldr	r4, [r6, #96]	; 0x60
100053a8:	6e75      	ldr	r5, [r6, #100]	; 0x64
100053aa:	6f77      	ldr	r7, [r6, #116]	; 0x74
100053ac:	6f36      	ldr	r6, [r6, #112]	; 0x70
100053ae:	f000 f825 	bl	100053fc <divmod_s64s64_unsafe>
100053b2:	4694      	mov	ip, r2
100053b4:	4a44      	ldr	r2, [pc, #272]	; (100054c8 <udiv0+0x1a>)
100053b6:	6614      	str	r4, [r2, #96]	; 0x60
100053b8:	6655      	str	r5, [r2, #100]	; 0x64
100053ba:	6757      	str	r7, [r2, #116]	; 0x74
100053bc:	6716      	str	r6, [r2, #112]	; 0x70
100053be:	4662      	mov	r2, ip
100053c0:	bdf0      	pop	{r4, r5, r6, r7, pc}
100053c2:	46c0      	nop			; (mov r8, r8)

100053c4 <__wrap___aeabi_uldivmod>:
100053c4:	4694      	mov	ip, r2
100053c6:	4a40      	ldr	r2, [pc, #256]	; (100054c8 <udiv0+0x1a>)
100053c8:	6f92      	ldr	r2, [r2, #120]	; 0x78
100053ca:	0892      	lsrs	r2, r2, #2
100053cc:	4662      	mov	r2, ip
100053ce:	d201      	bcs.n	100053d4 <divmod_u64u64_savestate>
100053d0:	e058      	b.n	10005484 <divmod_u64u64_unsafe>
100053d2:	46c0      	nop			; (mov r8, r8)

100053d4 <divmod_u64u64_savestate>:
100053d4:	b5f0      	push	{r4, r5, r6, r7, lr}
100053d6:	4e3c      	ldr	r6, [pc, #240]	; (100054c8 <udiv0+0x1a>)
100053d8:	6fb5      	ldr	r5, [r6, #120]	; 0x78
100053da:	086d      	lsrs	r5, r5, #1
100053dc:	d3fc      	bcc.n	100053d8 <divmod_u64u64_savestate+0x4>
100053de:	6e34      	ldr	r4, [r6, #96]	; 0x60
100053e0:	6e75      	ldr	r5, [r6, #100]	; 0x64
100053e2:	6f77      	ldr	r7, [r6, #116]	; 0x74
100053e4:	6f36      	ldr	r6, [r6, #112]	; 0x70
100053e6:	f000 f84d 	bl	10005484 <divmod_u64u64_unsafe>
100053ea:	4694      	mov	ip, r2
100053ec:	4a36      	ldr	r2, [pc, #216]	; (100054c8 <udiv0+0x1a>)
100053ee:	6614      	str	r4, [r2, #96]	; 0x60
100053f0:	6655      	str	r5, [r2, #100]	; 0x64
100053f2:	6757      	str	r7, [r2, #116]	; 0x74
100053f4:	6716      	str	r6, [r2, #112]	; 0x70
100053f6:	4662      	mov	r2, ip
100053f8:	bdf0      	pop	{r4, r5, r6, r7, pc}
100053fa:	46c0      	nop			; (mov r8, r8)

100053fc <divmod_s64s64_unsafe>:
100053fc:	2b00      	cmp	r3, #0
100053fe:	db24      	blt.n	1000544a <l41_1+0x26>
10005400:	d011      	beq.n	10005426 <l41_1+0x2>
10005402:	2900      	cmp	r1, #0
10005404:	da3e      	bge.n	10005484 <divmod_u64u64_unsafe>
10005406:	b500      	push	{lr}
10005408:	43c9      	mvns	r1, r1
1000540a:	4240      	negs	r0, r0
1000540c:	d100      	bne.n	10005410 <l39_1>
1000540e:	3101      	adds	r1, #1

10005410 <l39_1>:
10005410:	f000 f838 	bl	10005484 <divmod_u64u64_unsafe>
10005414:	43c9      	mvns	r1, r1
10005416:	4240      	negs	r0, r0
10005418:	d100      	bne.n	1000541c <l40_1>
1000541a:	3101      	adds	r1, #1

1000541c <l40_1>:
1000541c:	43db      	mvns	r3, r3
1000541e:	4252      	negs	r2, r2
10005420:	d100      	bne.n	10005424 <l41_1>
10005422:	3301      	adds	r3, #1

10005424 <l41_1>:
10005424:	bd00      	pop	{pc}
10005426:	2a00      	cmp	r2, #0
10005428:	d1eb      	bne.n	10005402 <divmod_s64s64_unsafe+0x6>
1000542a:	2800      	cmp	r0, #0
1000542c:	d101      	bne.n	10005432 <l41_1+0xe>
1000542e:	2900      	cmp	r1, #0
10005430:	d005      	beq.n	1000543e <l41_1+0x1a>
10005432:	2000      	movs	r0, #0
10005434:	0fc9      	lsrs	r1, r1, #31
10005436:	07c9      	lsls	r1, r1, #31
10005438:	d101      	bne.n	1000543e <l41_1+0x1a>
1000543a:	43c0      	mvns	r0, r0
1000543c:	0841      	lsrs	r1, r0, #1
1000543e:	b500      	push	{lr}
10005440:	f000 fba6 	bl	10005b90 <____aeabi_ldiv0_veneer>
10005444:	2200      	movs	r2, #0
10005446:	2300      	movs	r3, #0
10005448:	bd00      	pop	{pc}
1000544a:	b500      	push	{lr}
1000544c:	2900      	cmp	r1, #0
1000544e:	db0a      	blt.n	10005466 <l43_1+0x2>
10005450:	43db      	mvns	r3, r3
10005452:	4252      	negs	r2, r2
10005454:	d100      	bne.n	10005458 <l42_1>
10005456:	3301      	adds	r3, #1

10005458 <l42_1>:
10005458:	f000 f814 	bl	10005484 <divmod_u64u64_unsafe>
1000545c:	43c9      	mvns	r1, r1
1000545e:	4240      	negs	r0, r0
10005460:	d100      	bne.n	10005464 <l43_1>
10005462:	3101      	adds	r1, #1

10005464 <l43_1>:
10005464:	bd00      	pop	{pc}
10005466:	43c9      	mvns	r1, r1
10005468:	4240      	negs	r0, r0
1000546a:	d100      	bne.n	1000546e <l44_1>
1000546c:	3101      	adds	r1, #1

1000546e <l44_1>:
1000546e:	43db      	mvns	r3, r3
10005470:	4252      	negs	r2, r2
10005472:	d100      	bne.n	10005476 <l45_1>
10005474:	3301      	adds	r3, #1

10005476 <l45_1>:
10005476:	f000 f805 	bl	10005484 <divmod_u64u64_unsafe>
1000547a:	43db      	mvns	r3, r3
1000547c:	4252      	negs	r2, r2
1000547e:	d100      	bne.n	10005482 <l46_1>
10005480:	3301      	adds	r3, #1

10005482 <l46_1>:
10005482:	bd00      	pop	{pc}

10005484 <divmod_u64u64_unsafe>:
10005484:	2900      	cmp	r1, #0
10005486:	d123      	bne.n	100054d0 <y64>
10005488:	2b00      	cmp	r3, #0
1000548a:	d118      	bne.n	100054be <udiv0+0x10>
1000548c:	2a00      	cmp	r2, #0
1000548e:	d00c      	beq.n	100054aa <divmod_u64u64_unsafe+0x26>
10005490:	46bc      	mov	ip, r7
10005492:	4f0d      	ldr	r7, [pc, #52]	; (100054c8 <udiv0+0x1a>)
10005494:	6638      	str	r0, [r7, #96]	; 0x60
10005496:	667a      	str	r2, [r7, #100]	; 0x64
10005498:	2100      	movs	r1, #0
1000549a:	2300      	movs	r3, #0
1000549c:	e7ff      	b.n	1000549e <divmod_u64u64_unsafe+0x1a>
1000549e:	e7ff      	b.n	100054a0 <divmod_u64u64_unsafe+0x1c>
100054a0:	e7ff      	b.n	100054a2 <divmod_u64u64_unsafe+0x1e>
100054a2:	6f7a      	ldr	r2, [r7, #116]	; 0x74
100054a4:	6f38      	ldr	r0, [r7, #112]	; 0x70
100054a6:	4667      	mov	r7, ip
100054a8:	4770      	bx	lr
100054aa:	2800      	cmp	r0, #0
100054ac:	d001      	beq.n	100054b2 <udiv0+0x4>

100054ae <udiv0>:
100054ae:	4807      	ldr	r0, [pc, #28]	; (100054cc <udiv0+0x1e>)
100054b0:	0001      	movs	r1, r0
100054b2:	b500      	push	{lr}
100054b4:	f000 fb6c 	bl	10005b90 <____aeabi_ldiv0_veneer>
100054b8:	2200      	movs	r2, #0
100054ba:	2300      	movs	r3, #0
100054bc:	bd00      	pop	{pc}
100054be:	0002      	movs	r2, r0
100054c0:	000b      	movs	r3, r1
100054c2:	2000      	movs	r0, #0
100054c4:	2100      	movs	r1, #0
100054c6:	4770      	bx	lr
100054c8:	d0000000 	.word	0xd0000000
100054cc:	ffffffff 	.word	0xffffffff

100054d0 <y64>:
100054d0:	2b00      	cmp	r3, #0
100054d2:	d000      	beq.n	100054d6 <y64+0x6>
100054d4:	e0bd      	b.n	10005652 <y64_x48>
100054d6:	0c13      	lsrs	r3, r2, #16
100054d8:	d126      	bne.n	10005528 <y64_x32>
100054da:	2a00      	cmp	r2, #0
100054dc:	d0e7      	beq.n	100054ae <udiv0>
100054de:	b480      	push	{r7}
100054e0:	4f10      	ldr	r7, [pc, #64]	; (10005524 <y64+0x54>)
100054e2:	6639      	str	r1, [r7, #96]	; 0x60
100054e4:	667a      	str	r2, [r7, #100]	; 0x64
100054e6:	e7ff      	b.n	100054e8 <y64+0x18>
100054e8:	e7ff      	b.n	100054ea <y64+0x1a>
100054ea:	b430      	push	{r4, r5}
100054ec:	0c04      	lsrs	r4, r0, #16
100054ee:	6f7b      	ldr	r3, [r7, #116]	; 0x74
100054f0:	6f39      	ldr	r1, [r7, #112]	; 0x70
100054f2:	041b      	lsls	r3, r3, #16
100054f4:	4323      	orrs	r3, r4
100054f6:	663b      	str	r3, [r7, #96]	; 0x60
100054f8:	e7ff      	b.n	100054fa <y64+0x2a>
100054fa:	e7ff      	b.n	100054fc <y64+0x2c>
100054fc:	e7ff      	b.n	100054fe <y64+0x2e>
100054fe:	46c0      	nop			; (mov r8, r8)
10005500:	b284      	uxth	r4, r0
10005502:	6f7b      	ldr	r3, [r7, #116]	; 0x74
10005504:	6f3d      	ldr	r5, [r7, #112]	; 0x70
10005506:	041b      	lsls	r3, r3, #16
10005508:	4323      	orrs	r3, r4
1000550a:	663b      	str	r3, [r7, #96]	; 0x60
1000550c:	e7ff      	b.n	1000550e <y64+0x3e>
1000550e:	e7ff      	b.n	10005510 <y64+0x40>
10005510:	46c0      	nop			; (mov r8, r8)
10005512:	2300      	movs	r3, #0
10005514:	042c      	lsls	r4, r5, #16
10005516:	0c2d      	lsrs	r5, r5, #16
10005518:	6f7a      	ldr	r2, [r7, #116]	; 0x74
1000551a:	6f38      	ldr	r0, [r7, #112]	; 0x70
1000551c:	1900      	adds	r0, r0, r4
1000551e:	4169      	adcs	r1, r5
10005520:	bcb0      	pop	{r4, r5, r7}
10005522:	4770      	bx	lr
10005524:	d0000000 	.word	0xd0000000

10005528 <y64_x32>:
10005528:	b5f0      	push	{r4, r5, r6, r7, lr}
1000552a:	4694      	mov	ip, r2
1000552c:	2500      	movs	r5, #0
1000552e:	0e14      	lsrs	r4, r2, #24
10005530:	d101      	bne.n	10005536 <y64_x32+0xe>
10005532:	0212      	lsls	r2, r2, #8
10005534:	3508      	adds	r5, #8
10005536:	0f14      	lsrs	r4, r2, #28
10005538:	d101      	bne.n	1000553e <y64_x32+0x16>
1000553a:	0112      	lsls	r2, r2, #4
1000553c:	3504      	adds	r5, #4
1000553e:	0f94      	lsrs	r4, r2, #30
10005540:	d101      	bne.n	10005546 <y64_x32+0x1e>
10005542:	0092      	lsls	r2, r2, #2
10005544:	3502      	adds	r5, #2
10005546:	0fd4      	lsrs	r4, r2, #31
10005548:	d101      	bne.n	1000554e <y64_x32+0x26>
1000554a:	0052      	lsls	r2, r2, #1
1000554c:	3501      	adds	r5, #1
1000554e:	0bd4      	lsrs	r4, r2, #15
10005550:	3401      	adds	r4, #1
10005552:	4f25      	ldr	r7, [pc, #148]	; (100055e8 <y64_x32+0xc0>)
10005554:	667c      	str	r4, [r7, #100]	; 0x64
10005556:	4c25      	ldr	r4, [pc, #148]	; (100055ec <y64_x32+0xc4>)
10005558:	663c      	str	r4, [r7, #96]	; 0x60
1000555a:	0c0e      	lsrs	r6, r1, #16
1000555c:	b293      	uxth	r3, r2
1000555e:	e7ff      	b.n	10005560 <y64_x32+0x38>
10005560:	e7ff      	b.n	10005562 <y64_x32+0x3a>
10005562:	e7ff      	b.n	10005564 <y64_x32+0x3c>
10005564:	6f3c      	ldr	r4, [r7, #112]	; 0x70
10005566:	4366      	muls	r6, r4
10005568:	0c36      	lsrs	r6, r6, #16
1000556a:	0377      	lsls	r7, r6, #13
1000556c:	46be      	mov	lr, r7
1000556e:	4373      	muls	r3, r6
10005570:	0bdf      	lsrs	r7, r3, #15
10005572:	045b      	lsls	r3, r3, #17
10005574:	1ac0      	subs	r0, r0, r3
10005576:	41b9      	sbcs	r1, r7
10005578:	0c13      	lsrs	r3, r2, #16
1000557a:	4373      	muls	r3, r6
1000557c:	18db      	adds	r3, r3, r3
1000557e:	1ac9      	subs	r1, r1, r3
10005580:	08ce      	lsrs	r6, r1, #3
10005582:	4366      	muls	r6, r4
10005584:	0c36      	lsrs	r6, r6, #16
10005586:	44b6      	add	lr, r6
10005588:	b293      	uxth	r3, r2
1000558a:	4373      	muls	r3, r6
1000558c:	0f1f      	lsrs	r7, r3, #28
1000558e:	011b      	lsls	r3, r3, #4
10005590:	1ac0      	subs	r0, r0, r3
10005592:	41b9      	sbcs	r1, r7
10005594:	0c13      	lsrs	r3, r2, #16
10005596:	4373      	muls	r3, r6
10005598:	0b1f      	lsrs	r7, r3, #12
1000559a:	051b      	lsls	r3, r3, #20
1000559c:	1ac0      	subs	r0, r0, r3
1000559e:	41b9      	sbcs	r1, r7
100055a0:	0d86      	lsrs	r6, r0, #22
100055a2:	028f      	lsls	r7, r1, #10
100055a4:	433e      	orrs	r6, r7
100055a6:	4366      	muls	r6, r4
100055a8:	0c36      	lsrs	r6, r6, #16
100055aa:	2d09      	cmp	r5, #9
100055ac:	db24      	blt.n	100055f8 <last0>
100055ae:	0a52      	lsrs	r2, r2, #9
100055b0:	4372      	muls	r2, r6
100055b2:	1a80      	subs	r0, r0, r2
100055b4:	0377      	lsls	r7, r6, #13
100055b6:	0a46      	lsrs	r6, r0, #9
100055b8:	4366      	muls	r6, r4
100055ba:	0c36      	lsrs	r6, r6, #16
100055bc:	2316      	movs	r3, #22
100055be:	1b5b      	subs	r3, r3, r5
100055c0:	40de      	lsrs	r6, r3
100055c2:	40df      	lsrs	r7, r3
100055c4:	19bf      	adds	r7, r7, r6
100055c6:	4664      	mov	r4, ip
100055c8:	4366      	muls	r6, r4
100055ca:	1b82      	subs	r2, r0, r6
100055cc:	4670      	mov	r0, lr
100055ce:	3504      	adds	r5, #4
100055d0:	3306      	adds	r3, #6
100055d2:	0001      	movs	r1, r0
100055d4:	40d9      	lsrs	r1, r3
100055d6:	40a8      	lsls	r0, r5
100055d8:	19c0      	adds	r0, r0, r7
100055da:	d300      	bcc.n	100055de <y64_x32+0xb6>
100055dc:	3101      	adds	r1, #1
100055de:	42a2      	cmp	r2, r4
100055e0:	d206      	bcs.n	100055f0 <y64_x32+0xc8>
100055e2:	2300      	movs	r3, #0
100055e4:	bdf0      	pop	{r4, r5, r6, r7, pc}
100055e6:	0000      	.short	0x0000
100055e8:	d0000000 	.word	0xd0000000
100055ec:	ffffffff 	.word	0xffffffff
100055f0:	1b12      	subs	r2, r2, r4
100055f2:	3001      	adds	r0, #1
100055f4:	d3f3      	bcc.n	100055de <y64_x32+0xb6>
100055f6:	e7f1      	b.n	100055dc <y64_x32+0xb4>

100055f8 <last0>:
100055f8:	2709      	movs	r7, #9
100055fa:	1b7f      	subs	r7, r7, r5
100055fc:	40fe      	lsrs	r6, r7
100055fe:	4664      	mov	r4, ip
10005600:	b2a2      	uxth	r2, r4
10005602:	4372      	muls	r2, r6
10005604:	1a80      	subs	r0, r0, r2
10005606:	d200      	bcs.n	1000560a <last0+0x12>
10005608:	3901      	subs	r1, #1
1000560a:	0c22      	lsrs	r2, r4, #16
1000560c:	4372      	muls	r2, r6
1000560e:	0c13      	lsrs	r3, r2, #16
10005610:	0412      	lsls	r2, r2, #16
10005612:	1a82      	subs	r2, r0, r2
10005614:	4199      	sbcs	r1, r3
10005616:	000b      	movs	r3, r1
10005618:	4670      	mov	r0, lr
1000561a:	3504      	adds	r5, #4
1000561c:	3713      	adds	r7, #19
1000561e:	0001      	movs	r1, r0
10005620:	40f9      	lsrs	r1, r7
10005622:	40a8      	lsls	r0, r5
10005624:	1980      	adds	r0, r0, r6
10005626:	d300      	bcc.n	1000562a <last0+0x32>
10005628:	3101      	adds	r1, #1
1000562a:	2b00      	cmp	r3, #0
1000562c:	d102      	bne.n	10005634 <last0+0x3c>
1000562e:	42a2      	cmp	r2, r4
10005630:	d20a      	bcs.n	10005648 <last0+0x50>
10005632:	bdf0      	pop	{r4, r5, r6, r7, pc}
10005634:	3001      	adds	r0, #1
10005636:	d300      	bcc.n	1000563a <last0+0x42>
10005638:	3101      	adds	r1, #1
1000563a:	1b12      	subs	r2, r2, r4
1000563c:	d2fa      	bcs.n	10005634 <last0+0x3c>
1000563e:	3b01      	subs	r3, #1
10005640:	d1f8      	bne.n	10005634 <last0+0x3c>
10005642:	42a2      	cmp	r2, r4
10005644:	d200      	bcs.n	10005648 <last0+0x50>
10005646:	bdf0      	pop	{r4, r5, r6, r7, pc}
10005648:	3001      	adds	r0, #1
1000564a:	d300      	bcc.n	1000564e <last0+0x56>
1000564c:	3101      	adds	r1, #1
1000564e:	1b12      	subs	r2, r2, r4
10005650:	e7f7      	b.n	10005642 <last0+0x4a>

10005652 <y64_x48>:
10005652:	b5f0      	push	{r4, r5, r6, r7, lr}
10005654:	0c1c      	lsrs	r4, r3, #16
10005656:	d000      	beq.n	1000565a <y64_x48+0x8>
10005658:	e080      	b.n	1000575c <y64_x64>
1000565a:	b40c      	push	{r2, r3}
1000565c:	2500      	movs	r5, #0
1000565e:	0a1c      	lsrs	r4, r3, #8
10005660:	d104      	bne.n	1000566c <y64_x48+0x1a>
10005662:	021b      	lsls	r3, r3, #8
10005664:	0e16      	lsrs	r6, r2, #24
10005666:	4333      	orrs	r3, r6
10005668:	0212      	lsls	r2, r2, #8
1000566a:	3508      	adds	r5, #8
1000566c:	0b1c      	lsrs	r4, r3, #12
1000566e:	d104      	bne.n	1000567a <y64_x48+0x28>
10005670:	011b      	lsls	r3, r3, #4
10005672:	0f16      	lsrs	r6, r2, #28
10005674:	4333      	orrs	r3, r6
10005676:	0112      	lsls	r2, r2, #4
10005678:	3504      	adds	r5, #4
1000567a:	0b9c      	lsrs	r4, r3, #14
1000567c:	d104      	bne.n	10005688 <y64_x48+0x36>
1000567e:	009b      	lsls	r3, r3, #2
10005680:	0f96      	lsrs	r6, r2, #30
10005682:	4333      	orrs	r3, r6
10005684:	0092      	lsls	r2, r2, #2
10005686:	3502      	adds	r5, #2
10005688:	0bdc      	lsrs	r4, r3, #15
1000568a:	d102      	bne.n	10005692 <y64_x48+0x40>
1000568c:	1892      	adds	r2, r2, r2
1000568e:	415b      	adcs	r3, r3
10005690:	3501      	adds	r5, #1
10005692:	001c      	movs	r4, r3
10005694:	1897      	adds	r7, r2, r2
10005696:	4164      	adcs	r4, r4
10005698:	3401      	adds	r4, #1
1000569a:	4f46      	ldr	r7, [pc, #280]	; (100057b4 <y64_x64+0x58>)
1000569c:	667c      	str	r4, [r7, #100]	; 0x64
1000569e:	4c46      	ldr	r4, [pc, #280]	; (100057b8 <y64_x64+0x5c>)
100056a0:	663c      	str	r4, [r7, #96]	; 0x60
100056a2:	0c0e      	lsrs	r6, r1, #16
100056a4:	e7ff      	b.n	100056a6 <y64_x48+0x54>
100056a6:	e7ff      	b.n	100056a8 <y64_x48+0x56>
100056a8:	e7ff      	b.n	100056aa <y64_x48+0x58>
100056aa:	46c0      	nop			; (mov r8, r8)
100056ac:	6f3c      	ldr	r4, [r7, #112]	; 0x70
100056ae:	4366      	muls	r6, r4
100056b0:	0c36      	lsrs	r6, r6, #16
100056b2:	0377      	lsls	r7, r6, #13
100056b4:	46be      	mov	lr, r7
100056b6:	b297      	uxth	r7, r2
100056b8:	4377      	muls	r7, r6
100056ba:	1bc0      	subs	r0, r0, r7
100056bc:	d200      	bcs.n	100056c0 <y64_x48+0x6e>
100056be:	3901      	subs	r1, #1
100056c0:	1bc0      	subs	r0, r0, r7
100056c2:	d200      	bcs.n	100056c6 <y64_x48+0x74>
100056c4:	3901      	subs	r1, #1
100056c6:	b29f      	uxth	r7, r3
100056c8:	4377      	muls	r7, r6
100056ca:	1bc9      	subs	r1, r1, r7
100056cc:	1bc9      	subs	r1, r1, r7
100056ce:	0c17      	lsrs	r7, r2, #16
100056d0:	4377      	muls	r7, r6
100056d2:	047e      	lsls	r6, r7, #17
100056d4:	0bff      	lsrs	r7, r7, #15
100056d6:	1b80      	subs	r0, r0, r6
100056d8:	41b9      	sbcs	r1, r7
100056da:	08ce      	lsrs	r6, r1, #3
100056dc:	4366      	muls	r6, r4
100056de:	0c36      	lsrs	r6, r6, #16
100056e0:	2d0c      	cmp	r5, #12
100056e2:	db33      	blt.n	1000574c <last1>
100056e4:	44b6      	add	lr, r6
100056e6:	0b12      	lsrs	r2, r2, #12
100056e8:	051f      	lsls	r7, r3, #20
100056ea:	433a      	orrs	r2, r7
100056ec:	0b1b      	lsrs	r3, r3, #12
100056ee:	b297      	uxth	r7, r2
100056f0:	4377      	muls	r7, r6
100056f2:	1bc0      	subs	r0, r0, r7
100056f4:	d200      	bcs.n	100056f8 <y64_x48+0xa6>
100056f6:	3901      	subs	r1, #1
100056f8:	b29f      	uxth	r7, r3
100056fa:	4377      	muls	r7, r6
100056fc:	1bc9      	subs	r1, r1, r7
100056fe:	0c17      	lsrs	r7, r2, #16
10005700:	4377      	muls	r7, r6
10005702:	043e      	lsls	r6, r7, #16
10005704:	0c3f      	lsrs	r7, r7, #16
10005706:	1b80      	subs	r0, r0, r6
10005708:	41b9      	sbcs	r1, r7
1000570a:	0d86      	lsrs	r6, r0, #22
1000570c:	028f      	lsls	r7, r1, #10
1000570e:	433e      	orrs	r6, r7
10005710:	4366      	muls	r6, r4
10005712:	2729      	movs	r7, #41	; 0x29
10005714:	1b7f      	subs	r7, r7, r5
10005716:	40fe      	lsrs	r6, r7
10005718:	3d0c      	subs	r5, #12
1000571a:	4677      	mov	r7, lr
1000571c:	40af      	lsls	r7, r5
1000571e:	19bf      	adds	r7, r7, r6
10005720:	bc30      	pop	{r4, r5}
10005722:	b2a2      	uxth	r2, r4
10005724:	b2ab      	uxth	r3, r5
10005726:	4372      	muls	r2, r6
10005728:	4373      	muls	r3, r6
1000572a:	1a80      	subs	r0, r0, r2
1000572c:	4199      	sbcs	r1, r3
1000572e:	0c22      	lsrs	r2, r4, #16
10005730:	4372      	muls	r2, r6
10005732:	0c13      	lsrs	r3, r2, #16
10005734:	0412      	lsls	r2, r2, #16
10005736:	1a80      	subs	r0, r0, r2
10005738:	4199      	sbcs	r1, r3
1000573a:	0002      	movs	r2, r0
1000573c:	000b      	movs	r3, r1
1000573e:	3701      	adds	r7, #1
10005740:	1b00      	subs	r0, r0, r4
10005742:	41a9      	sbcs	r1, r5
10005744:	d2f9      	bcs.n	1000573a <y64_x48+0xe8>
10005746:	1e78      	subs	r0, r7, #1
10005748:	2100      	movs	r1, #0
1000574a:	bdf0      	pop	{r4, r5, r6, r7, pc}

1000574c <last1>:
1000574c:	270c      	movs	r7, #12
1000574e:	1b7f      	subs	r7, r7, r5
10005750:	40fe      	lsrs	r6, r7
10005752:	4677      	mov	r7, lr
10005754:	0b7f      	lsrs	r7, r7, #13
10005756:	40af      	lsls	r7, r5
10005758:	19ff      	adds	r7, r7, r7
1000575a:	e7e0      	b.n	1000571e <y64_x48+0xcc>

1000575c <y64_x64>:
1000575c:	2400      	movs	r4, #0
1000575e:	1c5d      	adds	r5, r3, #1
10005760:	d007      	beq.n	10005772 <y64_x64+0x16>
10005762:	4f14      	ldr	r7, [pc, #80]	; (100057b4 <y64_x64+0x58>)
10005764:	667d      	str	r5, [r7, #100]	; 0x64
10005766:	6639      	str	r1, [r7, #96]	; 0x60
10005768:	e7ff      	b.n	1000576a <y64_x64+0xe>
1000576a:	e7ff      	b.n	1000576c <y64_x64+0x10>
1000576c:	e7ff      	b.n	1000576e <y64_x64+0x12>
1000576e:	e7ff      	b.n	10005770 <y64_x64+0x14>
10005770:	6f3c      	ldr	r4, [r7, #112]	; 0x70
10005772:	b295      	uxth	r5, r2
10005774:	b29e      	uxth	r6, r3
10005776:	4365      	muls	r5, r4
10005778:	4366      	muls	r6, r4
1000577a:	1b40      	subs	r0, r0, r5
1000577c:	41b1      	sbcs	r1, r6
1000577e:	0c15      	lsrs	r5, r2, #16
10005780:	0c1e      	lsrs	r6, r3, #16
10005782:	4365      	muls	r5, r4
10005784:	4366      	muls	r6, r4
10005786:	0436      	lsls	r6, r6, #16
10005788:	0c2f      	lsrs	r7, r5, #16
1000578a:	433e      	orrs	r6, r7
1000578c:	042d      	lsls	r5, r5, #16
1000578e:	1b40      	subs	r0, r0, r5
10005790:	41b1      	sbcs	r1, r6
10005792:	4299      	cmp	r1, r3
10005794:	d204      	bcs.n	100057a0 <y64_x64+0x44>
10005796:	0002      	movs	r2, r0
10005798:	000b      	movs	r3, r1
1000579a:	0020      	movs	r0, r4
1000579c:	2100      	movs	r1, #0
1000579e:	bdf0      	pop	{r4, r5, r6, r7, pc}
100057a0:	d101      	bne.n	100057a6 <y64_x64+0x4a>
100057a2:	4290      	cmp	r0, r2
100057a4:	d3f7      	bcc.n	10005796 <y64_x64+0x3a>
100057a6:	1a80      	subs	r0, r0, r2
100057a8:	4199      	sbcs	r1, r3
100057aa:	3401      	adds	r4, #1
100057ac:	4299      	cmp	r1, r3
100057ae:	d3f2      	bcc.n	10005796 <y64_x64+0x3a>
100057b0:	e7f6      	b.n	100057a0 <y64_x64+0x44>
100057b2:	0000      	.short	0x0000
100057b4:	d0000000 	.word	0xd0000000
100057b8:	ffffffff 	.word	0xffffffff

100057bc <__aeabi_double_init>:
100057bc:	2313      	movs	r3, #19
100057be:	b570      	push	{r4, r5, r6, lr}
100057c0:	781d      	ldrb	r5, [r3, #0]
100057c2:	2d01      	cmp	r5, #1
100057c4:	d010      	beq.n	100057e8 <__aeabi_double_init+0x2c>
100057c6:	dd0b      	ble.n	100057e0 <__aeabi_double_init+0x24>
100057c8:	4824      	ldr	r0, [pc, #144]	; (1000585c <__aeabi_double_init+0xa0>)
100057ca:	f7ff fd8f 	bl	100052ec <rom_data_lookup>
100057ce:	4c24      	ldr	r4, [pc, #144]	; (10005860 <__aeabi_double_init+0xa4>)
100057d0:	0001      	movs	r1, r0
100057d2:	2280      	movs	r2, #128	; 0x80
100057d4:	0020      	movs	r0, r4
100057d6:	f000 f8ad 	bl	10005934 <__wrap___aeabi_memcpy>
100057da:	2d02      	cmp	r5, #2
100057dc:	d001      	beq.n	100057e2 <__aeabi_double_init+0x26>
100057de:	bd70      	pop	{r4, r5, r6, pc}
100057e0:	4c1f      	ldr	r4, [pc, #124]	; (10005860 <__aeabi_double_init+0xa4>)
100057e2:	4a20      	ldr	r2, [pc, #128]	; (10005864 <__aeabi_double_init+0xa8>)
100057e4:	64a2      	str	r2, [r4, #72]	; 0x48
100057e6:	e7fa      	b.n	100057de <__aeabi_double_init+0x22>
100057e8:	002e      	movs	r6, r5
100057ea:	4c1d      	ldr	r4, [pc, #116]	; (10005860 <__aeabi_double_init+0xa4>)
100057ec:	4a1d      	ldr	r2, [pc, #116]	; (10005864 <__aeabi_double_init+0xa8>)
100057ee:	08a3      	lsrs	r3, r4, #2
100057f0:	425b      	negs	r3, r3
100057f2:	401e      	ands	r6, r3
100057f4:	421d      	tst	r5, r3
100057f6:	d02f      	beq.n	10005858 <__aeabi_double_init+0x9c>
100057f8:	0033      	movs	r3, r6
100057fa:	6022      	str	r2, [r4, #0]
100057fc:	2020      	movs	r0, #32
100057fe:	00b1      	lsls	r1, r6, #2
10005800:	1861      	adds	r1, r4, r1
10005802:	1b80      	subs	r0, r0, r6
10005804:	600a      	str	r2, [r1, #0]
10005806:	604a      	str	r2, [r1, #4]
10005808:	608a      	str	r2, [r1, #8]
1000580a:	60ca      	str	r2, [r1, #12]
1000580c:	610a      	str	r2, [r1, #16]
1000580e:	614a      	str	r2, [r1, #20]
10005810:	618a      	str	r2, [r1, #24]
10005812:	61ca      	str	r2, [r1, #28]
10005814:	620a      	str	r2, [r1, #32]
10005816:	624a      	str	r2, [r1, #36]	; 0x24
10005818:	628a      	str	r2, [r1, #40]	; 0x28
1000581a:	62ca      	str	r2, [r1, #44]	; 0x2c
1000581c:	630a      	str	r2, [r1, #48]	; 0x30
1000581e:	634a      	str	r2, [r1, #52]	; 0x34
10005820:	638a      	str	r2, [r1, #56]	; 0x38
10005822:	63ca      	str	r2, [r1, #60]	; 0x3c
10005824:	640a      	str	r2, [r1, #64]	; 0x40
10005826:	644a      	str	r2, [r1, #68]	; 0x44
10005828:	648a      	str	r2, [r1, #72]	; 0x48
1000582a:	64ca      	str	r2, [r1, #76]	; 0x4c
1000582c:	650a      	str	r2, [r1, #80]	; 0x50
1000582e:	654a      	str	r2, [r1, #84]	; 0x54
10005830:	658a      	str	r2, [r1, #88]	; 0x58
10005832:	65ca      	str	r2, [r1, #92]	; 0x5c
10005834:	660a      	str	r2, [r1, #96]	; 0x60
10005836:	664a      	str	r2, [r1, #100]	; 0x64
10005838:	668a      	str	r2, [r1, #104]	; 0x68
1000583a:	66ca      	str	r2, [r1, #108]	; 0x6c
1000583c:	670a      	str	r2, [r1, #112]	; 0x70
1000583e:	674a      	str	r2, [r1, #116]	; 0x74
10005840:	0840      	lsrs	r0, r0, #1
10005842:	2810      	cmp	r0, #16
10005844:	d103      	bne.n	1000584e <__aeabi_double_init+0x92>
10005846:	678a      	str	r2, [r1, #120]	; 0x78
10005848:	67ca      	str	r2, [r1, #124]	; 0x7c
1000584a:	64a2      	str	r2, [r4, #72]	; 0x48
1000584c:	e7c7      	b.n	100057de <__aeabi_double_init+0x22>
1000584e:	331e      	adds	r3, #30
10005850:	009b      	lsls	r3, r3, #2
10005852:	50e2      	str	r2, [r4, r3]
10005854:	64a2      	str	r2, [r4, #72]	; 0x48
10005856:	e7c2      	b.n	100057de <__aeabi_double_init+0x22>
10005858:	2300      	movs	r3, #0
1000585a:	e7cf      	b.n	100057fc <__aeabi_double_init+0x40>
1000585c:	00004453 	.word	0x00004453
10005860:	20008404 	.word	0x20008404
10005864:	10005869 	.word	0x10005869

10005868 <double_table_shim_on_use_helper>:
10005868:	b507      	push	{r0, r1, r2, lr}
1000586a:	4660      	mov	r0, ip
1000586c:	8801      	ldrh	r1, [r0, #0]
1000586e:	0a0a      	lsrs	r2, r1, #8
10005870:	3002      	adds	r0, #2
10005872:	2adf      	cmp	r2, #223	; 0xdf
10005874:	d1fa      	bne.n	1000586c <double_table_shim_on_use_helper+0x4>
10005876:	b2c9      	uxtb	r1, r1
10005878:	0882      	lsrs	r2, r0, #2
1000587a:	d304      	bcc.n	10005886 <double_table_shim_on_use_helper+0x1e>
1000587c:	8802      	ldrh	r2, [r0, #0]
1000587e:	8840      	ldrh	r0, [r0, #2]
10005880:	0400      	lsls	r0, r0, #16
10005882:	4310      	orrs	r0, r2
10005884:	e000      	b.n	10005888 <double_table_shim_on_use_helper+0x20>
10005886:	6800      	ldr	r0, [r0, #0]
10005888:	4a01      	ldr	r2, [pc, #4]	; (10005890 <double_table_shim_on_use_helper+0x28>)
1000588a:	5050      	str	r0, [r2, r1]
1000588c:	9003      	str	r0, [sp, #12]
1000588e:	bd07      	pop	{r0, r1, r2, pc}
10005890:	20008404 	.word	0x20008404

10005894 <__aeabi_float_init>:
10005894:	2313      	movs	r3, #19
10005896:	b510      	push	{r4, lr}
10005898:	4812      	ldr	r0, [pc, #72]	; (100058e4 <__aeabi_float_init+0x50>)
1000589a:	781c      	ldrb	r4, [r3, #0]
1000589c:	f7ff fd26 	bl	100052ec <rom_data_lookup>
100058a0:	0001      	movs	r1, r0
100058a2:	2c01      	cmp	r4, #1
100058a4:	d00a      	beq.n	100058bc <__aeabi_float_init+0x28>
100058a6:	dd03      	ble.n	100058b0 <__aeabi_float_init+0x1c>
100058a8:	2280      	movs	r2, #128	; 0x80
100058aa:	480f      	ldr	r0, [pc, #60]	; (100058e8 <__aeabi_float_init+0x54>)
100058ac:	f000 f842 	bl	10005934 <__wrap___aeabi_memcpy>
100058b0:	480e      	ldr	r0, [pc, #56]	; (100058ec <__aeabi_float_init+0x58>)
100058b2:	f7ff fd13 	bl	100052dc <rom_func_lookup>
100058b6:	4b0e      	ldr	r3, [pc, #56]	; (100058f0 <__aeabi_float_init+0x5c>)
100058b8:	6018      	str	r0, [r3, #0]
100058ba:	bd10      	pop	{r4, pc}
100058bc:	4c0a      	ldr	r4, [pc, #40]	; (100058e8 <__aeabi_float_init+0x54>)
100058be:	2254      	movs	r2, #84	; 0x54
100058c0:	0020      	movs	r0, r4
100058c2:	f000 f837 	bl	10005934 <__wrap___aeabi_memcpy>
100058c6:	4b0b      	ldr	r3, [pc, #44]	; (100058f4 <__aeabi_float_init+0x60>)
100058c8:	6563      	str	r3, [r4, #84]	; 0x54
100058ca:	65a3      	str	r3, [r4, #88]	; 0x58
100058cc:	65e3      	str	r3, [r4, #92]	; 0x5c
100058ce:	6623      	str	r3, [r4, #96]	; 0x60
100058d0:	6663      	str	r3, [r4, #100]	; 0x64
100058d2:	66a3      	str	r3, [r4, #104]	; 0x68
100058d4:	66e3      	str	r3, [r4, #108]	; 0x6c
100058d6:	6723      	str	r3, [r4, #112]	; 0x70
100058d8:	6763      	str	r3, [r4, #116]	; 0x74
100058da:	67a3      	str	r3, [r4, #120]	; 0x78
100058dc:	67e3      	str	r3, [r4, #124]	; 0x7c
100058de:	6223      	str	r3, [r4, #32]
100058e0:	61e3      	str	r3, [r4, #28]
100058e2:	e7e5      	b.n	100058b0 <__aeabi_float_init+0x1c>
100058e4:	00004653 	.word	0x00004653
100058e8:	20008504 	.word	0x20008504
100058ec:	0000334c 	.word	0x0000334c
100058f0:	20008604 	.word	0x20008604
100058f4:	100058f9 	.word	0x100058f9

100058f8 <float_table_shim_on_use_helper>:
100058f8:	b507      	push	{r0, r1, r2, lr}
100058fa:	4660      	mov	r0, ip
100058fc:	8801      	ldrh	r1, [r0, #0]
100058fe:	0a0a      	lsrs	r2, r1, #8
10005900:	3002      	adds	r0, #2
10005902:	2adf      	cmp	r2, #223	; 0xdf
10005904:	d1fa      	bne.n	100058fc <float_table_shim_on_use_helper+0x4>
10005906:	b2c9      	uxtb	r1, r1
10005908:	0882      	lsrs	r2, r0, #2
1000590a:	d304      	bcc.n	10005916 <float_table_shim_on_use_helper+0x1e>
1000590c:	8802      	ldrh	r2, [r0, #0]
1000590e:	8840      	ldrh	r0, [r0, #2]
10005910:	0400      	lsls	r0, r0, #16
10005912:	4310      	orrs	r0, r2
10005914:	e000      	b.n	10005918 <float_table_shim_on_use_helper+0x20>
10005916:	6800      	ldr	r0, [r0, #0]
10005918:	4a01      	ldr	r2, [pc, #4]	; (10005920 <float_table_shim_on_use_helper+0x28>)
1000591a:	5050      	str	r0, [r2, r1]
1000591c:	9003      	str	r0, [sp, #12]
1000591e:	bd07      	pop	{r0, r1, r2, pc}
10005920:	20008504 	.word	0x20008504

10005924 <__aeabi_mem_init>:
10005924:	4801      	ldr	r0, [pc, #4]	; (1000592c <__aeabi_mem_init+0x8>)
10005926:	2104      	movs	r1, #4
10005928:	4b01      	ldr	r3, [pc, #4]	; (10005930 <__aeabi_mem_init+0xc>)
1000592a:	4718      	bx	r3
1000592c:	20000210 	.word	0x20000210
10005930:	100052fd 	.word	0x100052fd

10005934 <__wrap___aeabi_memcpy>:
10005934:	4b01      	ldr	r3, [pc, #4]	; (1000593c <__wrap___aeabi_memcpy+0x8>)
10005936:	685b      	ldr	r3, [r3, #4]
10005938:	4718      	bx	r3
1000593a:	0000      	.short	0x0000
1000593c:	20000210 	.word	0x20000210

10005940 <stdio_out_chars_crlf.part.0>:
10005940:	b5f8      	push	{r3, r4, r5, r6, r7, lr}
10005942:	4647      	mov	r7, r8
10005944:	46ce      	mov	lr, r9
10005946:	000d      	movs	r5, r1
10005948:	b580      	push	{r7, lr}
1000594a:	0016      	movs	r6, r2
1000594c:	0007      	movs	r7, r0
1000594e:	2a00      	cmp	r2, #0
10005950:	dd20      	ble.n	10005994 <stdio_out_chars_crlf.part.0+0x54>
10005952:	1e4b      	subs	r3, r1, #1
10005954:	4698      	mov	r8, r3
10005956:	4b1a      	ldr	r3, [pc, #104]	; (100059c0 <stdio_out_chars_crlf.part.0+0x80>)
10005958:	2400      	movs	r4, #0
1000595a:	2000      	movs	r0, #0
1000595c:	4699      	mov	r9, r3
1000595e:	2c00      	cmp	r4, #0
10005960:	d02b      	beq.n	100059ba <stdio_out_chars_crlf.part.0+0x7a>
10005962:	4643      	mov	r3, r8
10005964:	5d1b      	ldrb	r3, [r3, r4]
10005966:	3b0d      	subs	r3, #13
10005968:	425a      	negs	r2, r3
1000596a:	4153      	adcs	r3, r2
1000596c:	b2db      	uxtb	r3, r3
1000596e:	5d2a      	ldrb	r2, [r5, r4]
10005970:	2a0a      	cmp	r2, #10
10005972:	d013      	beq.n	1000599c <stdio_out_chars_crlf.part.0+0x5c>
10005974:	3401      	adds	r4, #1
10005976:	42a6      	cmp	r6, r4
10005978:	dcf1      	bgt.n	1000595e <stdio_out_chars_crlf.part.0+0x1e>
1000597a:	4286      	cmp	r6, r0
1000597c:	dd03      	ble.n	10005986 <stdio_out_chars_crlf.part.0+0x46>
1000597e:	1a31      	subs	r1, r6, r0
10005980:	683b      	ldr	r3, [r7, #0]
10005982:	1828      	adds	r0, r5, r0
10005984:	4798      	blx	r3
10005986:	19ad      	adds	r5, r5, r6
10005988:	3d01      	subs	r5, #1
1000598a:	782b      	ldrb	r3, [r5, #0]
1000598c:	3b0d      	subs	r3, #13
1000598e:	425a      	negs	r2, r3
10005990:	4153      	adcs	r3, r2
10005992:	743b      	strb	r3, [r7, #16]
10005994:	bc0c      	pop	{r2, r3}
10005996:	4690      	mov	r8, r2
10005998:	4699      	mov	r9, r3
1000599a:	bdf8      	pop	{r3, r4, r5, r6, r7, pc}
1000599c:	2b00      	cmp	r3, #0
1000599e:	d1e9      	bne.n	10005974 <stdio_out_chars_crlf.part.0+0x34>
100059a0:	42a0      	cmp	r0, r4
100059a2:	da03      	bge.n	100059ac <stdio_out_chars_crlf.part.0+0x6c>
100059a4:	1a21      	subs	r1, r4, r0
100059a6:	683b      	ldr	r3, [r7, #0]
100059a8:	1828      	adds	r0, r5, r0
100059aa:	4798      	blx	r3
100059ac:	4648      	mov	r0, r9
100059ae:	2102      	movs	r1, #2
100059b0:	683b      	ldr	r3, [r7, #0]
100059b2:	3401      	adds	r4, #1
100059b4:	4798      	blx	r3
100059b6:	0020      	movs	r0, r4
100059b8:	e7dd      	b.n	10005976 <stdio_out_chars_crlf.part.0+0x36>
100059ba:	7c3b      	ldrb	r3, [r7, #16]
100059bc:	e7d7      	b.n	1000596e <stdio_out_chars_crlf.part.0+0x2e>
100059be:	46c0      	nop			; (mov r8, r8)
100059c0:	10005cc4 	.word	0x10005cc4

100059c4 <stdio_put_string>:
100059c4:	b5f0      	push	{r4, r5, r6, r7, lr}
100059c6:	4657      	mov	r7, sl
100059c8:	4645      	mov	r5, r8
100059ca:	46de      	mov	lr, fp
100059cc:	464e      	mov	r6, r9
100059ce:	23d0      	movs	r3, #208	; 0xd0
100059d0:	b5e0      	push	{r5, r6, r7, lr}
100059d2:	061b      	lsls	r3, r3, #24
100059d4:	681c      	ldr	r4, [r3, #0]
100059d6:	4b37      	ldr	r3, [pc, #220]	; (10005ab4 <stdio_put_string+0xf0>)
100059d8:	b083      	sub	sp, #12
100059da:	0007      	movs	r7, r0
100059dc:	000d      	movs	r5, r1
100059de:	0018      	movs	r0, r3
100059e0:	a901      	add	r1, sp, #4
100059e2:	4690      	mov	r8, r2
100059e4:	469a      	mov	sl, r3
100059e6:	f000 f8e3 	bl	10005bb0 <__mutex_try_enter_veneer>
100059ea:	4681      	mov	r9, r0
100059ec:	2800      	cmp	r0, #0
100059ee:	d107      	bne.n	10005a00 <stdio_put_string+0x3c>
100059f0:	9b01      	ldr	r3, [sp, #4]
100059f2:	429c      	cmp	r4, r3
100059f4:	d004      	beq.n	10005a00 <stdio_put_string+0x3c>
100059f6:	4650      	mov	r0, sl
100059f8:	f000 f8e2 	bl	10005bc0 <__mutex_enter_blocking_veneer>
100059fc:	2301      	movs	r3, #1
100059fe:	4699      	mov	r9, r3
10005a00:	1c6b      	adds	r3, r5, #1
10005a02:	d103      	bne.n	10005a0c <stdio_put_string+0x48>
10005a04:	0038      	movs	r0, r7
10005a06:	f000 f889 	bl	10005b1c <strlen>
10005a0a:	0005      	movs	r5, r0
10005a0c:	4b2a      	ldr	r3, [pc, #168]	; (10005ab8 <stdio_put_string+0xf4>)
10005a0e:	681c      	ldr	r4, [r3, #0]
10005a10:	2c00      	cmp	r4, #0
10005a12:	d02f      	beq.n	10005a74 <stdio_put_string+0xb0>
10005a14:	230a      	movs	r3, #10
10005a16:	4e29      	ldr	r6, [pc, #164]	; (10005abc <stdio_put_string+0xf8>)
10005a18:	469b      	mov	fp, r3
10005a1a:	e002      	b.n	10005a22 <stdio_put_string+0x5e>
10005a1c:	68e4      	ldr	r4, [r4, #12]
10005a1e:	2c00      	cmp	r4, #0
10005a20:	d028      	beq.n	10005a74 <stdio_put_string+0xb0>
10005a22:	6822      	ldr	r2, [r4, #0]
10005a24:	2a00      	cmp	r2, #0
10005a26:	d0f9      	beq.n	10005a1c <stdio_put_string+0x58>
10005a28:	6833      	ldr	r3, [r6, #0]
10005a2a:	2b00      	cmp	r3, #0
10005a2c:	d001      	beq.n	10005a32 <stdio_put_string+0x6e>
10005a2e:	42a3      	cmp	r3, r4
10005a30:	d1f4      	bne.n	10005a1c <stdio_put_string+0x58>
10005a32:	7c63      	ldrb	r3, [r4, #17]
10005a34:	2b00      	cmp	r3, #0
10005a36:	d02a      	beq.n	10005a8e <stdio_put_string+0xca>
10005a38:	002a      	movs	r2, r5
10005a3a:	0039      	movs	r1, r7
10005a3c:	0020      	movs	r0, r4
10005a3e:	f7ff ff7f 	bl	10005940 <stdio_out_chars_crlf.part.0>
10005a42:	4643      	mov	r3, r8
10005a44:	2b00      	cmp	r3, #0
10005a46:	d0e9      	beq.n	10005a1c <stdio_put_string+0x58>
10005a48:	466b      	mov	r3, sp
10005a4a:	465a      	mov	r2, fp
10005a4c:	711a      	strb	r2, [r3, #4]
10005a4e:	7c63      	ldrb	r3, [r4, #17]
10005a50:	2b00      	cmp	r3, #0
10005a52:	d020      	beq.n	10005a96 <stdio_put_string+0xd2>
10005a54:	7c23      	ldrb	r3, [r4, #16]
10005a56:	2b00      	cmp	r3, #0
10005a58:	d026      	beq.n	10005aa8 <stdio_put_string+0xe4>
10005a5a:	2101      	movs	r1, #1
10005a5c:	6823      	ldr	r3, [r4, #0]
10005a5e:	a801      	add	r0, sp, #4
10005a60:	4798      	blx	r3
10005a62:	466b      	mov	r3, sp
10005a64:	791b      	ldrb	r3, [r3, #4]
10005a66:	3b0d      	subs	r3, #13
10005a68:	425a      	negs	r2, r3
10005a6a:	4153      	adcs	r3, r2
10005a6c:	7423      	strb	r3, [r4, #16]
10005a6e:	68e4      	ldr	r4, [r4, #12]
10005a70:	2c00      	cmp	r4, #0
10005a72:	d1d6      	bne.n	10005a22 <stdio_put_string+0x5e>
10005a74:	464b      	mov	r3, r9
10005a76:	2b00      	cmp	r3, #0
10005a78:	d112      	bne.n	10005aa0 <stdio_put_string+0xdc>
10005a7a:	1e68      	subs	r0, r5, #1
10005a7c:	4185      	sbcs	r5, r0
10005a7e:	b2e8      	uxtb	r0, r5
10005a80:	b003      	add	sp, #12
10005a82:	bc3c      	pop	{r2, r3, r4, r5}
10005a84:	4690      	mov	r8, r2
10005a86:	4699      	mov	r9, r3
10005a88:	46a2      	mov	sl, r4
10005a8a:	46ab      	mov	fp, r5
10005a8c:	bdf0      	pop	{r4, r5, r6, r7, pc}
10005a8e:	0029      	movs	r1, r5
10005a90:	0038      	movs	r0, r7
10005a92:	4790      	blx	r2
10005a94:	e7d5      	b.n	10005a42 <stdio_put_string+0x7e>
10005a96:	2101      	movs	r1, #1
10005a98:	6823      	ldr	r3, [r4, #0]
10005a9a:	a801      	add	r0, sp, #4
10005a9c:	4798      	blx	r3
10005a9e:	e7bd      	b.n	10005a1c <stdio_put_string+0x58>
10005aa0:	4650      	mov	r0, sl
10005aa2:	f000 f86d 	bl	10005b80 <__mutex_exit_veneer>
10005aa6:	e7e8      	b.n	10005a7a <stdio_put_string+0xb6>
10005aa8:	2102      	movs	r1, #2
10005aaa:	4805      	ldr	r0, [pc, #20]	; (10005ac0 <stdio_put_string+0xfc>)
10005aac:	6823      	ldr	r3, [r4, #0]
10005aae:	4798      	blx	r3
10005ab0:	e7d7      	b.n	10005a62 <stdio_put_string+0x9e>
10005ab2:	46c0      	nop			; (mov r8, r8)
10005ab4:	20000220 	.word	0x20000220
10005ab8:	200003d4 	.word	0x200003d4
10005abc:	200003d8 	.word	0x200003d8
10005ac0:	10005cc4 	.word	0x10005cc4

10005ac4 <__wrap_putchar>:
10005ac4:	b510      	push	{r4, lr}
10005ac6:	b082      	sub	sp, #8
10005ac8:	466b      	mov	r3, sp
10005aca:	0004      	movs	r4, r0
10005acc:	2200      	movs	r2, #0
10005ace:	1dd8      	adds	r0, r3, #7
10005ad0:	2101      	movs	r1, #1
10005ad2:	7004      	strb	r4, [r0, #0]
10005ad4:	f7ff ff76 	bl	100059c4 <stdio_put_string>
10005ad8:	0020      	movs	r0, r4
10005ada:	b002      	add	sp, #8
10005adc:	bd10      	pop	{r4, pc}
10005ade:	46c0      	nop			; (mov r8, r8)

10005ae0 <__wrap_puts>:
10005ae0:	b570      	push	{r4, r5, r6, lr}
10005ae2:	0004      	movs	r4, r0
10005ae4:	f000 f81a 	bl	10005b1c <strlen>
10005ae8:	2201      	movs	r2, #1
10005aea:	0001      	movs	r1, r0
10005aec:	0005      	movs	r5, r0
10005aee:	0020      	movs	r0, r4
10005af0:	f7ff ff68 	bl	100059c4 <stdio_put_string>
10005af4:	4b08      	ldr	r3, [pc, #32]	; (10005b18 <__wrap_puts+0x38>)
10005af6:	681c      	ldr	r4, [r3, #0]
10005af8:	2c00      	cmp	r4, #0
10005afa:	d006      	beq.n	10005b0a <__wrap_puts+0x2a>
10005afc:	6863      	ldr	r3, [r4, #4]
10005afe:	2b00      	cmp	r3, #0
10005b00:	d005      	beq.n	10005b0e <__wrap_puts+0x2e>
10005b02:	4798      	blx	r3
10005b04:	68e4      	ldr	r4, [r4, #12]
10005b06:	2c00      	cmp	r4, #0
10005b08:	d1f8      	bne.n	10005afc <__wrap_puts+0x1c>
10005b0a:	0028      	movs	r0, r5
10005b0c:	bd70      	pop	{r4, r5, r6, pc}
10005b0e:	68e4      	ldr	r4, [r4, #12]
10005b10:	2c00      	cmp	r4, #0
10005b12:	d1f3      	bne.n	10005afc <__wrap_puts+0x1c>
10005b14:	e7f9      	b.n	10005b0a <__wrap_puts+0x2a>
10005b16:	46c0      	nop			; (mov r8, r8)
10005b18:	200003d4 	.word	0x200003d4

10005b1c <strlen>:
10005b1c:	b510      	push	{r4, lr}
10005b1e:	0783      	lsls	r3, r0, #30
10005b20:	d00a      	beq.n	10005b38 <strlen+0x1c>
10005b22:	0003      	movs	r3, r0
10005b24:	2103      	movs	r1, #3
10005b26:	e002      	b.n	10005b2e <strlen+0x12>
10005b28:	3301      	adds	r3, #1
10005b2a:	420b      	tst	r3, r1
10005b2c:	d005      	beq.n	10005b3a <strlen+0x1e>
10005b2e:	781a      	ldrb	r2, [r3, #0]
10005b30:	2a00      	cmp	r2, #0
10005b32:	d1f9      	bne.n	10005b28 <strlen+0xc>
10005b34:	1a18      	subs	r0, r3, r0
10005b36:	bd10      	pop	{r4, pc}
10005b38:	0003      	movs	r3, r0
10005b3a:	6819      	ldr	r1, [r3, #0]
10005b3c:	4a0c      	ldr	r2, [pc, #48]	; (10005b70 <strlen+0x54>)
10005b3e:	4c0d      	ldr	r4, [pc, #52]	; (10005b74 <strlen+0x58>)
10005b40:	188a      	adds	r2, r1, r2
10005b42:	438a      	bics	r2, r1
10005b44:	4222      	tst	r2, r4
10005b46:	d10f      	bne.n	10005b68 <strlen+0x4c>
10005b48:	6859      	ldr	r1, [r3, #4]
10005b4a:	4a09      	ldr	r2, [pc, #36]	; (10005b70 <strlen+0x54>)
10005b4c:	3304      	adds	r3, #4
10005b4e:	188a      	adds	r2, r1, r2
10005b50:	438a      	bics	r2, r1
10005b52:	4222      	tst	r2, r4
10005b54:	d108      	bne.n	10005b68 <strlen+0x4c>
10005b56:	6859      	ldr	r1, [r3, #4]
10005b58:	4a05      	ldr	r2, [pc, #20]	; (10005b70 <strlen+0x54>)
10005b5a:	3304      	adds	r3, #4
10005b5c:	188a      	adds	r2, r1, r2
10005b5e:	438a      	bics	r2, r1
10005b60:	4222      	tst	r2, r4
10005b62:	d0f1      	beq.n	10005b48 <strlen+0x2c>
10005b64:	e000      	b.n	10005b68 <strlen+0x4c>
10005b66:	3301      	adds	r3, #1
10005b68:	781a      	ldrb	r2, [r3, #0]
10005b6a:	2a00      	cmp	r2, #0
10005b6c:	d1fb      	bne.n	10005b66 <strlen+0x4a>
10005b6e:	e7e1      	b.n	10005b34 <strlen+0x18>
10005b70:	fefefeff 	.word	0xfefefeff
10005b74:	80808080 	.word	0x80808080

10005b78 <_fini>:
10005b78:	b5f8      	push	{r3, r4, r5, r6, r7, lr}
10005b7a:	46c0      	nop			; (mov r8, r8)
10005b7c:	0000      	movs	r0, r0
	...

10005b80 <__mutex_exit_veneer>:
10005b80:	b401      	push	{r0}
10005b82:	4802      	ldr	r0, [pc, #8]	; (10005b8c <__mutex_exit_veneer+0xc>)
10005b84:	4684      	mov	ip, r0
10005b86:	bc01      	pop	{r0}
10005b88:	4760      	bx	ip
10005b8a:	bf00      	nop
10005b8c:	20000155 	.word	0x20000155

10005b90 <____aeabi_ldiv0_veneer>:
10005b90:	b401      	push	{r0}
10005b92:	4802      	ldr	r0, [pc, #8]	; (10005b9c <____aeabi_ldiv0_veneer+0xc>)
10005b94:	4684      	mov	ip, r0
10005b96:	bc01      	pop	{r0}
10005b98:	4760      	bx	ip
10005b9a:	bf00      	nop
10005b9c:	2000017d 	.word	0x2000017d

10005ba0 <____aeabi_idiv0_veneer>:
10005ba0:	b401      	push	{r0}
10005ba2:	4802      	ldr	r0, [pc, #8]	; (10005bac <____aeabi_idiv0_veneer+0xc>)
10005ba4:	4684      	mov	ip, r0
10005ba6:	bc01      	pop	{r0}
10005ba8:	4760      	bx	ip
10005baa:	bf00      	nop
10005bac:	2000017d 	.word	0x2000017d

10005bb0 <__mutex_try_enter_veneer>:
10005bb0:	b401      	push	{r0}
10005bb2:	4802      	ldr	r0, [pc, #8]	; (10005bbc <__mutex_try_enter_veneer+0xc>)
10005bb4:	4684      	mov	ip, r0
10005bb6:	bc01      	pop	{r0}
10005bb8:	4760      	bx	ip
10005bba:	bf00      	nop
10005bbc:	2000010d 	.word	0x2000010d

10005bc0 <__mutex_enter_blocking_veneer>:
10005bc0:	b401      	push	{r0}
10005bc2:	4802      	ldr	r0, [pc, #8]	; (10005bcc <__mutex_enter_blocking_veneer+0xc>)
10005bc4:	4684      	mov	ip, r0
10005bc6:	bc01      	pop	{r0}
10005bc8:	4760      	bx	ip
10005bca:	bf00      	nop
10005bcc:	200000c1 	.word	0x200000c1

Disassembly of section .data:

200000c0 <mutex_enter_blocking>:
200000c0:	b510      	push	{r4, lr}
200000c2:	6802      	ldr	r2, [r0, #0]
200000c4:	2400      	movs	r4, #0
200000c6:	f3ef 8110 	mrs	r1, PRIMASK
200000ca:	b672      	cpsid	i
200000cc:	6813      	ldr	r3, [r2, #0]
200000ce:	2b00      	cmp	r3, #0
200000d0:	d0fc      	beq.n	200000cc <mutex_enter_blocking+0xc>
200000d2:	f3bf 8f5f 	dmb	sy
200000d6:	7903      	ldrb	r3, [r0, #4]
200000d8:	2b7f      	cmp	r3, #127	; 0x7f
200000da:	d80b      	bhi.n	200000f4 <mutex_enter_blocking+0x34>
200000dc:	6803      	ldr	r3, [r0, #0]
200000de:	f3bf 8f5f 	dmb	sy
200000e2:	601c      	str	r4, [r3, #0]
200000e4:	f381 8810 	msr	PRIMASK, r1
200000e8:	bf20      	wfe
200000ea:	6802      	ldr	r2, [r0, #0]
200000ec:	f3ef 8110 	mrs	r1, PRIMASK
200000f0:	b672      	cpsid	i
200000f2:	e7eb      	b.n	200000cc <mutex_enter_blocking+0xc>
200000f4:	23d0      	movs	r3, #208	; 0xd0
200000f6:	061b      	lsls	r3, r3, #24
200000f8:	681b      	ldr	r3, [r3, #0]
200000fa:	7103      	strb	r3, [r0, #4]
200000fc:	6803      	ldr	r3, [r0, #0]
200000fe:	f3bf 8f5f 	dmb	sy
20000102:	2200      	movs	r2, #0
20000104:	601a      	str	r2, [r3, #0]
20000106:	f381 8810 	msr	PRIMASK, r1
2000010a:	bd10      	pop	{r4, pc}

2000010c <mutex_try_enter>:
2000010c:	0003      	movs	r3, r0
2000010e:	b510      	push	{r4, lr}
20000110:	6800      	ldr	r0, [r0, #0]
20000112:	f3ef 8410 	mrs	r4, PRIMASK
20000116:	b672      	cpsid	i
20000118:	6802      	ldr	r2, [r0, #0]
2000011a:	2a00      	cmp	r2, #0
2000011c:	d0fc      	beq.n	20000118 <mutex_try_enter+0xc>
2000011e:	f3bf 8f5f 	dmb	sy
20000122:	2204      	movs	r2, #4
20000124:	569a      	ldrsb	r2, [r3, r2]
20000126:	2a00      	cmp	r2, #0
20000128:	db0b      	blt.n	20000142 <mutex_try_enter+0x36>
2000012a:	2900      	cmp	r1, #0
2000012c:	d00f      	beq.n	2000014e <mutex_try_enter+0x42>
2000012e:	2000      	movs	r0, #0
20000130:	600a      	str	r2, [r1, #0]
20000132:	681b      	ldr	r3, [r3, #0]
20000134:	f3bf 8f5f 	dmb	sy
20000138:	2200      	movs	r2, #0
2000013a:	601a      	str	r2, [r3, #0]
2000013c:	f384 8810 	msr	PRIMASK, r4
20000140:	bd10      	pop	{r4, pc}
20000142:	22d0      	movs	r2, #208	; 0xd0
20000144:	0612      	lsls	r2, r2, #24
20000146:	6812      	ldr	r2, [r2, #0]
20000148:	2001      	movs	r0, #1
2000014a:	711a      	strb	r2, [r3, #4]
2000014c:	e7f1      	b.n	20000132 <mutex_try_enter+0x26>
2000014e:	2000      	movs	r0, #0
20000150:	e7ef      	b.n	20000132 <mutex_try_enter+0x26>
20000152:	46c0      	nop			; (mov r8, r8)

20000154 <mutex_exit>:
20000154:	6802      	ldr	r2, [r0, #0]
20000156:	f3ef 8110 	mrs	r1, PRIMASK
2000015a:	b672      	cpsid	i
2000015c:	6813      	ldr	r3, [r2, #0]
2000015e:	2b00      	cmp	r3, #0
20000160:	d0fc      	beq.n	2000015c <mutex_exit+0x8>
20000162:	f3bf 8f5f 	dmb	sy
20000166:	23ff      	movs	r3, #255	; 0xff
20000168:	7103      	strb	r3, [r0, #4]
2000016a:	bf40      	sev
2000016c:	6803      	ldr	r3, [r0, #0]
2000016e:	f3bf 8f5f 	dmb	sy
20000172:	2200      	movs	r2, #0
20000174:	601a      	str	r2, [r3, #0]
20000176:	f381 8810 	msr	PRIMASK, r1
2000017a:	4770      	bx	lr

2000017c <__aeabi_idiv0>:
2000017c:	4770      	bx	lr
2000017e:	46c0      	nop			; (mov r8, r8)

20000180 <striped_spin_lock_num>:
20000180:	0010 0000                                   ....

20000184 <default_alarm_pool>:
20000184:	019c 2000 0000 0000 0240 2000 0394 2000     ... ....@.. ... 
	...

2000019c <default_alarm_pool_heap>:
2000019c:	03a4 2000 0000 0000 0000 0000 0010 0000     ... ............

200001ac <irq_handler_chain_slots>:
200001ac:	00000000 	.word	0x00000000
200001b0:	00010000 	.word	0x00010000
	...
200001bc:	00020000 	.word	0x00020000
	...
200001c8:	00030000 	.word	0x00030000
	...
200001d4:	00ff0000 	.word	0x00ff0000
200001d8:	00000000 	.word	0x00000000

200001dc <irq_handler_chain_first_slot>:
200001dc:	b500      	push	{lr}
200001de:	6848      	ldr	r0, [r1, #4]
200001e0:	3101      	adds	r1, #1
200001e2:	468e      	mov	lr, r1
200001e4:	4700      	bx	r0

200001e6 <irq_handler_chain_remove_tail>:
200001e6:	4670      	mov	r0, lr
200001e8:	3809      	subs	r0, #9
200001ea:	4901      	ldr	r1, [pc, #4]	; (200001f0 <irq_handler_chain_remove_tail+0xa>)
200001ec:	4788      	blx	r1
200001ee:	bd00      	pop	{pc}
200001f0:	1000519d 	.word	0x1000519d
	...

20000200 <aeabi_bits_funcs>:
20000200:	00003350 	.word	0x00003350
20000204:	0000334c 	.word	0x0000334c
20000208:	00003354 	.word	0x00003354
2000020c:	00003352 	.word	0x00003352

20000210 <aeabi_bits_funcs_end>:
20000210:	0000534d 	.word	0x0000534d
20000214:	0000434d 	.word	0x0000434d
20000218:	00003453 	.word	0x00003453
2000021c:	00003443 	.word	0x00003443

20000220 <aeabi_mem_funcs_end>:
	...

20000228 <__mutex_array_end>:
20000228:	10005925 	.word	0x10005925
2000022c:	100052cd 	.word	0x100052cd
20000230:	100057bd 	.word	0x100057bd
20000234:	10005895 	.word	0x10005895

20000238 <__frame_dummy_init_array_entry>:
20000238:	100002ed                                ....
